; ModuleID = 'data/base_solutions/TRANS_FFT/solution0/.autopilot/db/a.g.ld.5.gdce.bc'
source_filename = "llvm-link"
target datalayout = "e-m:e-i64:64-i128:128-i256:256-i512:512-i1024:1024-i2048:2048-i4096:4096-n8:16:32:64-S128-v16:16-v24:32-v32:32-v48:64-v96:128-v192:256-v256:256-v512:512-v1024:1024"
target triple = "fpga64-xilinx-none"

%"struct.ap_fixed<26, 9, AP_TRN, AP_WRAP, 0>" = type { %"struct.ap_fixed_base<26, 10, true, AP_TRN, AP_WRAP, 0>" }
%"struct.ap_fixed_base<26, 10, true, AP_TRN, AP_WRAP, 0>" = type { %"struct.ssdm_int<26, true>.87" }
%"struct.ssdm_int<26, true>.87" = type { i26 }
%"struct.ap_fixed<34, 34, AP_TRN, AP_WRAP, 0>" = type { %"struct.ap_fixed_base<34, 34, true, AP_TRN, AP_WRAP, 0>" }
%"struct.ap_fixed_base<34, 34, true, AP_TRN, AP_WRAP, 0>" = type { %"struct.ssdm_int<34, true>.88" }
%"struct.ssdm_int<34, true>.88" = type { i34 }
%"struct.ap_ufixed<44, -11, AP_TRN, AP_WRAP, 0>" = type { %"struct.ap_fixed_base<44, -11, false, AP_TRN, AP_WRAP, 0>" }
%"struct.ap_fixed_base<44, -11, false, AP_TRN, AP_WRAP, 0>" = type { %"struct.ssdm_int<44, false>.73" }
%"struct.ssdm_int<44, false>.73" = type { i44 }
%"struct.ap_uint<52>.91" = type { %"struct.ap_int_base<52, false>.90" }
%"struct.ap_int_base<52, false>.90" = type { %"struct.ssdm_int<52, false>.89" }
%"struct.ssdm_int<52, false>.89" = type { i52 }
%"struct.ap_ufixed<59, 0, AP_TRN, AP_WRAP, 0>" = type { %"struct.ap_fixed_base<59, 0, false, AP_TRN, AP_WRAP, 0>" }
%"struct.ap_fixed_base<59, 0, false, AP_TRN, AP_WRAP, 0>" = type { %"struct.ssdm_int<59, false>" }
%"struct.ssdm_int<59, false>" = type { i59 }
%"struct.ap_ufixed<24, 1, AP_TRN, AP_WRAP, 0>.50" = type { %"struct.ap_fixed_base<24, 1, false, AP_TRN, AP_WRAP, 0>.49" }
%"struct.ap_fixed_base<24, 1, false, AP_TRN, AP_WRAP, 0>.49" = type { %"struct.ssdm_int<24, false>.48" }
%"struct.ssdm_int<24, false>.48" = type { i24 }
%"struct.ap_int<33>.94" = type { %"struct.ap_int_base<33, true>.93" }
%"struct.ap_int_base<33, true>.93" = type { %"struct.ssdm_int<33, true>.92" }
%"struct.ssdm_int<33, true>.92" = type { i33 }
%"struct.ap_fixed<43, 4, AP_TRN, AP_WRAP, 0>" = type { %"struct.ap_fixed_base<43, 4, true, AP_TRN, AP_WRAP, 0>" }
%"struct.ap_fixed_base<43, 4, true, AP_TRN, AP_WRAP, 0>" = type { %"struct.ssdm_int<43, true>.95" }
%"struct.ssdm_int<43, true>.95" = type { i43 }
%"struct.ap_ufixed<51, 24, AP_TRN, AP_WRAP, 0>" = type { %"struct.ap_fixed_base<51, 24, false, AP_TRN, AP_WRAP, 0>" }
%"struct.ap_fixed_base<51, 24, false, AP_TRN, AP_WRAP, 0>" = type { %"struct.ssdm_int<51, false>.27" }
%"struct.ssdm_int<51, false>.27" = type { i51 }
%"struct.ap_fixed<60, 52, AP_TRN, AP_WRAP, 0>" = type { %"struct.ap_fixed_base<60, 52, true, AP_TRN, AP_WRAP, 0>" }
%"struct.ap_fixed_base<60, 52, true, AP_TRN, AP_WRAP, 0>" = type { %"struct.ssdm_int<60, true>.96" }
%"struct.ssdm_int<60, true>.96" = type { i60 }
%"struct.ap_uint<256>" = type { %"struct.ap_int_base<256, false>" }
%"struct.ap_int_base<256, false>" = type { %"struct.ssdm_int<256, false>" }
%"struct.ssdm_int<256, false>" = type { i256 }
%"class.fp_struct<double>.101" = type { %"struct.ap_uint<1>", %"struct.ap_uint<11>.43", %"struct.ap_uint<52>.91" }
%"struct.ap_uint<1>" = type { %"struct.ap_int_base<1, false>" }
%"struct.ap_int_base<1, false>" = type { %"struct.ssdm_int<1, false>" }
%"struct.ssdm_int<1, false>" = type { i1 }
%"struct.ap_uint<11>.43" = type { %"struct.ap_int_base<11, false>" }
%"struct.ap_int_base<11, false>" = type { %"struct.ssdm_int<11, false>" }
%"struct.ssdm_int<11, false>" = type { i11 }
%"struct.ap_int<3>" = type { %"struct.ap_int_base<3, true>" }
%"struct.ap_int_base<3, true>" = type { %"struct.ssdm_int<3, true>" }
%"struct.ssdm_int<3, true>" = type { i3 }
%"struct.ap_ufixed<63, 0, AP_TRN, AP_WRAP, 0>.144" = type { %"struct.ap_fixed_base<63, 0, false, AP_TRN, AP_WRAP, 0>.143" }
%"struct.ap_fixed_base<63, 0, false, AP_TRN, AP_WRAP, 0>.143" = type { %"struct.ssdm_int<63, false>.142" }
%"struct.ssdm_int<63, false>.142" = type { i63 }
%"struct.ap_int<12>" = type { %"struct.ap_int_base<12, true>" }
%"struct.ap_int_base<12, true>" = type { %"struct.ssdm_int<12, true>" }
%"struct.ssdm_int<12, true>" = type { i12 }
%"struct.ap_uint<4>.69" = type { %"struct.ap_int_base<4, false>.68" }
%"struct.ap_int_base<4, false>.68" = type { %"struct.ssdm_int<4, false>.67" }
%"struct.ssdm_int<4, false>.67" = type { i4 }
%"struct.ap_bit_ref<4, false>.145" = type { %"struct.ap_int_base<4, false>.68"*, i32 }
%union.double_cast.330 = type { double }
%"struct.ap_uint<64>.30" = type { %"struct.ap_int_base<64, false>" }
%"struct.ap_int_base<64, false>" = type { %"struct.ssdm_int<64, false>" }
%"struct.ssdm_int<64, false>" = type { i64 }
%"struct.ap_bit_ref<64, false>.103" = type { %"struct.ap_int_base<64, false>"*, i32 }
%"struct.ap_bit_ref<1, false>.104" = type { %"struct.ap_int_base<1, false>"*, i32 }
%"struct.ap_range_ref<64, false>.105" = type { %"struct.ap_int_base<64, false>"*, i32, i32 }
%"struct.ap_range_ref<11, false>.102" = type { %"struct.ap_int_base<11, false>"*, i32, i32 }
%"struct.ap_range_ref<52, false>.106" = type { %"struct.ap_int_base<52, false>.90"*, i32, i32 }
%"struct.ap_ufixed<223, 56, AP_TRN, AP_WRAP, 0>.150" = type { %"struct.ap_fixed_base<223, 56, false, AP_TRN, AP_WRAP, 0>.149" }
%"struct.ap_fixed_base<223, 56, false, AP_TRN, AP_WRAP, 0>.149" = type { %"struct.ssdm_int<223, false>.148" }
%"struct.ssdm_int<223, false>.148" = type { i223 }
%"struct.ap_ufixed<53, 1, AP_TRN, AP_WRAP, 0>.99" = type { %"struct.ap_fixed_base<53, 1, false, AP_TRN, AP_WRAP, 0>.98" }
%"struct.ap_fixed_base<53, 1, false, AP_TRN, AP_WRAP, 0>.98" = type { %"struct.ssdm_int<53, false>.97" }
%"struct.ssdm_int<53, false>.97" = type { i53 }
%"struct.ap_uint<170>" = type { %"struct.ap_int_base<170, false>" }
%"struct.ap_int_base<170, false>" = type { %"struct.ssdm_int<170, false>.147" }
%"struct.ssdm_int<170, false>.147" = type { i170 }
%"struct.ap_range_ref<53, false>" = type { %"struct.ap_fixed_base<53, 1, false, AP_TRN, AP_WRAP, 0>.98"*, i32, i32 }
%"struct.ap_bit_ref<53, false>" = type { %"struct.ap_fixed_base<53, 1, false, AP_TRN, AP_WRAP, 0>.98"*, i32 }
%"struct.ap_range_ref<223, false>.151" = type { %"struct.ap_fixed_base<223, 56, false, AP_TRN, AP_WRAP, 0>.149"*, i32, i32 }
%"struct.ap_ufixed<124, 0, AP_TRN, AP_WRAP, 0>.154" = type { %"struct.ap_fixed_base<124, 0, false, AP_TRN, AP_WRAP, 0>.153" }
%"struct.ap_fixed_base<124, 0, false, AP_TRN, AP_WRAP, 0>.153" = type { %"struct.ssdm_int<124, false>.152" }
%"struct.ssdm_int<124, false>.152" = type { i124 }
%"struct.ap_bit_ref<3, false>.155" = type { %"struct.ap_int_base<3, true>"*, i32 }
%"struct.ap_fixed<157, 33, AP_TRN, AP_WRAP, 0>.158" = type { %"struct.ap_fixed_base<157, 33, true, AP_TRN, AP_WRAP, 0>.157" }
%"struct.ap_fixed_base<157, 33, true, AP_TRN, AP_WRAP, 0>.157" = type { %"struct.ssdm_int<157, true>.156" }
%"struct.ssdm_int<157, true>.156" = type { i157 }
%"struct.ap_ufixed<7, 0, AP_TRN, AP_WRAP, 0>" = type { %"struct.ap_fixed_base<7, 0, false, AP_TRN, AP_WRAP, 0>" }
%"struct.ap_fixed_base<7, 0, false, AP_TRN, AP_WRAP, 0>" = type { %"struct.ssdm_int<7, false>" }
%"struct.ssdm_int<7, false>" = type { i7 }
%"struct.ap_int<8>" = type { %"struct.ap_int_base<8, true>" }
%"struct.ap_int_base<8, true>" = type { %"struct.ssdm_int<8, true>" }
%"struct.ssdm_int<8, true>" = type { i8 }
%"struct.af_range_ref<63, 1, false, AP_TRN, AP_WRAP, 0>.146" = type { %"struct.ap_fixed_base<63, 0, false, AP_TRN, AP_WRAP, 0>.143"*, i32, i32 }
%"struct.ap_uint<56>.62" = type { %"struct.ap_int_base<56, false>.61" }
%"struct.ap_int_base<56, false>.61" = type { %"struct.ssdm_int<56, false>.60" }
%"struct.ssdm_int<56, false>.60" = type { i56 }
%"struct.ap_ufixed<49, 0, AP_TRN, AP_WRAP, 0>" = type { %"struct.ap_fixed_base<49, 32, true, AP_TRN, AP_WRAP, 0>" }
%"struct.ap_fixed_base<49, 32, true, AP_TRN, AP_WRAP, 0>" = type { %"struct.ssdm_int<49, true>.59" }
%"struct.ssdm_int<49, true>.59" = type { i49 }
%"struct.ap_ufixed<98, -12, AP_TRN, AP_WRAP, 0>" = type { %"struct.ap_fixed_base<98, -12, false, AP_TRN, AP_WRAP, 0>" }
%"struct.ap_fixed_base<98, -12, false, AP_TRN, AP_WRAP, 0>" = type { %"struct.ssdm_int<98, false>.201" }
%"struct.ssdm_int<98, false>.201" = type { i98 }
%"struct.ap_fixed<42, 3, AP_TRN, AP_WRAP, 0>" = type { %"struct.ap_fixed_base<42, 3, true, AP_TRN, AP_WRAP, 0>" }
%"struct.ap_fixed_base<42, 3, true, AP_TRN, AP_WRAP, 0>" = type { %"struct.ssdm_int<42, true>" }
%"struct.ssdm_int<42, true>" = type { i42 }
%"struct.ap_fixed<35, 15, AP_TRN, AP_WRAP, 0>" = type { %"struct.ap_fixed_base<35, 15, true, AP_TRN, AP_WRAP, 0>" }
%"struct.ap_fixed_base<35, 15, true, AP_TRN, AP_WRAP, 0>" = type { %"struct.ssdm_int<35, true>" }
%"struct.ssdm_int<35, true>" = type { i35 }
%"struct.af_bit_ref<8, 8, true, AP_TRN, AP_WRAP, 0>" = type { %"struct.ap_int_base<8, true>"*, i32 }
%"struct.ap_fixed<108, 33, AP_TRN, AP_WRAP, 0>.287" = type { %"struct.ap_fixed_base<108, 33, true, AP_TRN, AP_WRAP, 0>.286" }
%"struct.ap_fixed_base<108, 33, true, AP_TRN, AP_WRAP, 0>.286" = type { %"struct.ssdm_int<108, true>.285" }
%"struct.ssdm_int<108, true>.285" = type { i108 }
%"struct.ap_ufixed<93, -44, AP_TRN, AP_WRAP, 0>.272" = type { %"struct.ap_fixed_base<93, -44, false, AP_TRN, AP_WRAP, 0>.271" }
%"struct.ap_fixed_base<93, -44, false, AP_TRN, AP_WRAP, 0>.271" = type { %"struct.ssdm_int<93, false>.270" }
%"struct.ssdm_int<93, false>.270" = type { i93 }
%"struct.ap_ufixed<76, -24, AP_TRN, AP_WRAP, 0>" = type { %"struct.ap_fixed_base<76, -24, false, AP_TRN, AP_WRAP, 0>" }
%"struct.ap_fixed_base<76, -24, false, AP_TRN, AP_WRAP, 0>" = type { %"struct.ssdm_int<76, false>.214" }
%"struct.ssdm_int<76, false>.214" = type { i76 }
%"struct.ap_fixed<61, -51, AP_TRN, AP_WRAP, 0>" = type { %"struct.ap_fixed_base<61, -51, true, AP_TRN, AP_WRAP, 0>" }
%"struct.ap_fixed_base<61, -51, true, AP_TRN, AP_WRAP, 0>" = type { %"struct.ssdm_int<61, true>" }
%"struct.ssdm_int<61, true>" = type { i61 }
%"struct.ap_ufixed<130, -10, AP_TRN, AP_WRAP, 0>" = type { %"struct.ap_fixed_base<130, -10, false, AP_TRN, AP_WRAP, 0>" }
%"struct.ap_fixed_base<130, -10, false, AP_TRN, AP_WRAP, 0>" = type { %"struct.ssdm_int<130, false>" }
%"struct.ssdm_int<130, false>" = type { i130 }
%"struct.ap_ufixed<67, 0, AP_TRN, AP_WRAP, 0>" = type { %"struct.ap_fixed_base<67, 0, false, AP_TRN, AP_WRAP, 0>" }
%"struct.ap_fixed_base<67, 0, false, AP_TRN, AP_WRAP, 0>" = type { %"struct.ssdm_int<67, false>.63" }
%"struct.ssdm_int<67, false>.63" = type { i67 }
%"struct.ap_uint<65>" = type { %"struct.ap_int_base<65, false>" }
%"struct.ap_int_base<65, false>" = type { %"struct.ssdm_int<65, false>" }
%"struct.ssdm_int<65, false>" = type { i65 }
%"struct.ap_ufixed<66, 34, AP_TRN, AP_WRAP, 0>" = type { %"struct.ap_fixed_base<66, 66, false, AP_TRN, AP_SAT, 0>" }
%"struct.ap_fixed_base<66, 66, false, AP_TRN, AP_SAT, 0>" = type { %"struct.ssdm_int<66, false>" }
%"struct.ssdm_int<66, false>" = type { i66 }
%"struct.ap_uint<32>.24" = type { %"struct.ap_int_base<32, true>" }
%"struct.ap_int_base<32, true>" = type { %"struct.ssdm_int<32, true>" }
%"struct.ssdm_int<32, true>" = type { i32 }
%"struct.ap_range_ref<32, false>.115" = type { %"struct.ap_int_base<32, true>"*, i32, i32 }
%"struct.ap_bit_ref<32, false>.114" = type { %"struct.ap_int_base<32, true>"*, i32 }
%"struct.ap_fixed_base<94, 32, true, AP_TRN, AP_WRAP, 0>" = type { %"struct.ssdm_int<94, true>" }
%"struct.ssdm_int<94, true>" = type { i94 }
%"struct.ap_range_ref<12, true>" = type { %"struct.ap_int_base<12, true>"*, i32, i32 }
%"struct.ap_range_ref<256, false>.164" = type { %"struct.ap_int_base<256, false>"*, i32, i32 }
%"struct.ap_uint<62>.189" = type { %"struct.ap_int_base<62, false>.161" }
%"struct.ap_int_base<62, false>.161" = type { %"struct.ssdm_int<62, false>.160" }
%"struct.ssdm_int<62, false>.160" = type { i62 }
%"struct.af_range_ref<124, 0, false, AP_TRN, AP_WRAP, 0>.159" = type { %"struct.ap_fixed_base<124, 0, false, AP_TRN, AP_WRAP, 0>.153"*, i32, i32 }
%"struct.ap_range_ref<62, false>.162" = type { %"struct.ap_int_base<62, false>.161"*, i32, i32 }
%"struct.ap_bit_ref<62, false>.163" = type { %"struct.ap_int_base<62, false>.161"*, i32 }
%"struct.ap_fixed_base<155, 32, true, AP_TRN, AP_WRAP, 0>.166" = type { %"struct.ssdm_int<155, true>.165" }
%"struct.ssdm_int<155, true>.165" = type { i155 }

$_ZN8ap_fixedILi26ELin4EL9ap_q_mode5EL9ap_o_mode3ELi0EEC2EPKc = comdat any

$_ZN13ap_fixed_baseILi26ELin4ELb1EL9ap_q_mode5EL9ap_o_mode3ELi0EEC2EPKc = comdat any

$_ZN8ap_fixedILi34ELin3EL9ap_q_mode5EL9ap_o_mode3ELi0EEC2EPKc = comdat any

$_ZN13ap_fixed_baseILi34ELin3ELb1EL9ap_q_mode5EL9ap_o_mode3ELi0EEC2EPKc = comdat any

$_ZN8ap_fixedILi44ELi0EL9ap_q_mode5EL9ap_o_mode3ELi0EEC2EPKc = comdat any

$_ZN13ap_fixed_baseILi44ELi0ELb1EL9ap_q_mode5EL9ap_o_mode3ELi0EEC2EPKc = comdat any

$_ZN8ap_fixedILi52ELi1EL9ap_q_mode5EL9ap_o_mode3ELi0EEC2EPKc = comdat any

$_ZN13ap_fixed_baseILi52ELi1ELb1EL9ap_q_mode5EL9ap_o_mode3ELi0EEC2EPKc = comdat any

$_ZN8ap_fixedILi59ELi1EL9ap_q_mode5EL9ap_o_mode3ELi0EEC2EPKc = comdat any

$_ZN13ap_fixed_baseILi59ELi1ELb1EL9ap_q_mode5EL9ap_o_mode3ELi0EEC2EPKc = comdat any

$_ZN8ap_fixedILi24ELin7EL9ap_q_mode5EL9ap_o_mode3ELi0EEC2EPKc = comdat any

$_ZN13ap_fixed_baseILi24ELin7ELb1EL9ap_q_mode5EL9ap_o_mode3ELi0EEC2EPKc = comdat any

$_ZN8ap_fixedILi33ELin5EL9ap_q_mode5EL9ap_o_mode3ELi0EEC2EPKc = comdat any

$_ZN13ap_fixed_baseILi33ELin5ELb1EL9ap_q_mode5EL9ap_o_mode3ELi0EEC2EPKc = comdat any

$_ZN8ap_fixedILi43ELin2EL9ap_q_mode5EL9ap_o_mode3ELi0EEC2EPKc = comdat any

$_ZN13ap_fixed_baseILi43ELin2ELb1EL9ap_q_mode5EL9ap_o_mode3ELi0EEC2EPKc = comdat any

$_ZN8ap_fixedILi51ELin1EL9ap_q_mode5EL9ap_o_mode3ELi0EEC2EPKc = comdat any

$_ZN13ap_fixed_baseILi51ELin1ELb1EL9ap_q_mode5EL9ap_o_mode3ELi0EEC2EPKc = comdat any

$_ZN8ap_fixedILi60ELi1EL9ap_q_mode5EL9ap_o_mode3ELi0EEC2EPKc = comdat any

$_ZN13ap_fixed_baseILi60ELi1ELb1EL9ap_q_mode5EL9ap_o_mode3ELi0EEC2EPKc = comdat any

$_ZN7ap_uintILi256EEC2EPKc = comdat any

$_ZN11ap_int_baseILi256ELb0EEC2EPKc = comdat any

$_ZN6hotbm_10sin_or_cosIdEET_S1_bb = comdat any

$_ZN9fp_structIdEC2Ed = comdat any

$_Z32range_redux_payne_hanek_hotbm_piILi61EdLi63ELi63EEvT0_R7ap_uintILi3EER9ap_ufixedIXT1_ELi0EL9ap_q_mode5EL9ap_o_mode3ELi0EERS4_IXT2_ELi0ELS5_5ELS6_3ELi0EER6ap_intIXsr9fp_structIS0_EE8EXP_BITSEERi = comdat any

$_Z29range_redux_payne_hanek_hotbmILi61EdLi63ELi63EEvT0_R7ap_uintILi3EER9ap_ufixedIXT1_ELi0EL9ap_q_mode5EL9ap_o_mode3ELi0EERS4_IXT2_ELi0ELS5_5ELS6_3ELi0EER6ap_intIXsr9fp_structIS0_EE8EXP_BITSEE = comdat any

$_ZNK11ap_int_baseILi3ELb0EEcvyEv = comdat any

$_ZN9ap_ufixedILi63ELi0EL9ap_q_mode0EL9ap_o_mode0ELi0EEC2Ei = comdat any

$_ZN9ap_ufixedILi63ELi0EL9ap_q_mode5EL9ap_o_mode3ELi0EEC2ILi63ELi0ELb0ELS0_0ELS1_0ELi0EEERK13ap_fixed_baseIXT_EXT0_EXT1_EXT2_EXT3_EXT4_EE = comdat any

$_ZN6ap_intILi11EEC2Ei = comdat any

$_ZN6hotbm_10value_listIdE24sin_or_cos_approximationILi63ELi63EEE9ap_ufixedIXT_ELi1EL9ap_q_mode5EL9ap_o_mode3ELi0EEbR7ap_uintILi3EERS3_IXT_ELi0ELS4_5ELS5_3ELi0EERS3_IXT0_ELi0ELS4_5ELS5_3ELi0EER6ap_intILi11EE = comdat any

$_ZNK11ap_int_baseILi11ELb1EEngEv = comdat any

$_ZNK11ap_int_baseILi12ELb1EEcvxEv = comdat any

$_Z17scaled_fixed2ieeeILi63ELi1EEv9ap_ufixedIXT_EXT0_EL9ap_q_mode5EL9ap_o_mode3ELi0EERdi = comdat any

$_ZN7ap_uintILi4EEC2ILi3EEERKS_IXT_EE = comdat any

$_ZN11ap_int_baseILi4ELb0EEixEi = comdat any

$_ZN10ap_bit_refILi4ELb0EEaSILi1ELb0EEERS0_RK11ap_int_baseIXT_EXT0_EE = comdat any

$_ZNK11ap_int_baseILi4ELb0EEcvyEv = comdat any

$_ZN7ap_uintILi1EEC2Ei = comdat any

$_ZeqILi11ELb0EEbRK11ap_int_baseIXT_EXT0_EEi = comdat any

$_ZeqILi52ELb0EEbRK11ap_int_baseIXT_EXT0_EEi = comdat any

$_ZN7ap_uintILi11EEC2Ei = comdat any

$_ZN7ap_uintILi52EEC2Ei = comdat any

$_ZNK9fp_structIdE7to_ieeeEv = comdat any

$_ZNK9fp_structIdE9to_doubleEv = comdat any

$_ZNK9fp_structIdE4dataEv = comdat any

$_ZNK11ap_int_baseILi64ELb0EE9to_uint64Ev = comdat any

$_ZNK11ap_int_baseILi1ELb0EEixEi = comdat any

$_ZN11ap_int_baseILi64ELb0EEixEi = comdat any

$_ZN10ap_bit_refILi64ELb0EEaSEb = comdat any

$_ZNK11ap_int_baseILi11ELb0EEclEii = comdat any

$_ZN11ap_int_baseILi64ELb0EEclEii = comdat any

$_ZN12ap_range_refILi64ELb0EEaSILi11ELb0EEERS0_RKS_IXT_EXT0_EE = comdat any

$_ZNK11ap_int_baseILi52ELb0EEclEii = comdat any

$_ZN12ap_range_refILi64ELb0EEaSILi52ELb0EEERS0_RKS_IXT_EXT0_EE = comdat any

$_ZN11ap_int_baseILi52ELb0EEC2ILi52ELb0EEERK12ap_range_refIXT_EXT0_EE = comdat any

$_ZN12ap_range_refILi64ELb0EEaSILi52ELb0EEERS0_RK11ap_int_baseIXT_EXT0_EE = comdat any

$_ZN11ap_int_baseILi64ELb0EEC2ILi52ELb0EEERKS_IXT_EXT0_EE = comdat any

$_ZN8ssdm_intILi64ELb0EEC2Em = comdat any

$_ZNK12ap_range_refILi52ELb0EE3getEv = comdat any

$_ZNK11ap_int_baseILi52ELb0EE5rangeEii = comdat any

$_ZN12ap_range_refILi52ELb0EEC2EP11ap_int_baseILi52ELb0EEii = comdat any

$_ZN11ap_int_baseILi11ELb0EEC2ILi11ELb0EEERK12ap_range_refIXT_EXT0_EE = comdat any

$_ZN12ap_range_refILi64ELb0EEaSILi11ELb0EEERS0_RK11ap_int_baseIXT_EXT0_EE = comdat any

$_ZN11ap_int_baseILi64ELb0EEC2ILi11ELb0EEERKS_IXT_EXT0_EE = comdat any

$_ZNK12ap_range_refILi11ELb0EE3getEv = comdat any

$_ZN11ap_int_baseILi64ELb0EE5rangeEii = comdat any

$_ZN12ap_range_refILi64ELb0EEC2EP11ap_int_baseILi64ELb0EEii = comdat any

$_ZNK11ap_int_baseILi11ELb0EE5rangeEii = comdat any

$_ZN12ap_range_refILi11ELb0EEC2EP11ap_int_baseILi11ELb0EEii = comdat any

$_ZN10ap_bit_refILi64ELb0EEC2EP11ap_int_baseILi64ELb0EEi = comdat any

$_ZN10ap_bit_refILi1ELb0EEC2EPK11ap_int_baseILi1ELb0EEi = comdat any

$_ZNK10ap_bit_refILi1ELb0EE7to_boolEv = comdat any

$_ZN11ap_int_baseILi52ELb0EEC2Ei = comdat any

$_ZN11ap_int_baseILi52ELb0EE18checkOverflowBaseCIiEEvT_ = comdat any

$_ZN8ssdm_intILi52ELb0EEC2EDq52_j = comdat any

$_ZN11ap_int_baseILi11ELb0EEC2Ei = comdat any

$_ZN11ap_int_baseILi11ELb0EE18checkOverflowBaseCIiEEvT_ = comdat any

$_ZN8ssdm_intILi11ELb0EEC2EDq11_j = comdat any

$_ZN11ap_int_baseILi32ELb1EEC2Ei = comdat any

$_ZNK11ap_int_baseILi52ELb0EEeqILi32ELb1EEEbRKS_IXT_EXT0_EE = comdat any

$_ZN8ssdm_intILi32ELb1EEC2Ei = comdat any

$_ZNK11ap_int_baseILi11ELb0EEeqILi32ELb1EEEbRKS_IXT_EXT0_EE = comdat any

$_ZN11ap_int_baseILi1ELb0EEC2Ei = comdat any

$_ZN11ap_int_baseILi1ELb0EE18checkOverflowBaseCIiEEvT_ = comdat any

$_ZN8ssdm_intILi1ELb0EEC2EDq1_j = comdat any

$_ZN10ap_bit_refILi4ELb0EEaSEy = comdat any

$_ZN10ap_bit_refILi4ELb0EEC2EP11ap_int_baseILi4ELb0EEi = comdat any

$_ZN11ap_int_baseILi4ELb0EEC2ILi3ELb0EEERKS_IXT_EXT0_EE = comdat any

$_ZNK11ap_int_baseILi3ELb0EE17checkOverflowCsimEibb = comdat any

$_ZN8ssdm_intILi4ELb0EEC2EDq4_j = comdat any

$_ZN9fp_structIdEC2Ev = comdat any

$_ZN11ap_int_baseILi1ELb0EEixEi = comdat any

$_ZN10ap_bit_refILi1ELb0EEaSEi = comdat any

$_ZN7ap_uintILi32EEC2Ei = comdat any

$_ZNK13ap_fixed_baseILi63ELi1ELb0EL9ap_q_mode5EL9ap_o_mode3ELi0EE2wlEv = comdat any

$_ZN13ap_fixed_baseILi63ELi1ELb0EL9ap_q_mode5EL9ap_o_mode3ELi0EEclEii = comdat any

$_ZN11ap_int_baseILi32ELb0EEclEii = comdat any

$_ZN12ap_range_refILi32ELb0EEaSILi63ELi1ELb0EL9ap_q_mode5EL9ap_o_mode3ELi0EEERS0_RK12af_range_refIXT_EXT0_EXT1_EXT2_EXT3_EXT4_EE = comdat any

$_ZN11ap_int_baseILi32ELb0EEixEi = comdat any

$_ZN10ap_bit_refILi32ELb0EEaSEi = comdat any

$_ZNK11ap_int_baseILi32ELb0EE7to_uintEv = comdat any

$_ZN8ap_fixedILi63ELi1EL9ap_q_mode5EL9ap_o_mode3ELi0EEC2ILi63ELi1ELb0ELS0_5ELS1_3ELi0EEERK13ap_fixed_baseIXT_EXT0_EXT1_EXT2_EXT3_EXT4_EE = comdat any

$_ZNK13ap_fixed_baseILi63ELi1ELb1EL9ap_q_mode5EL9ap_o_mode3ELi0EElsEi = comdat any

$_ZN8ap_fixedILi63ELi1EL9ap_q_mode5EL9ap_o_mode3ELi0EEC2ILi63ELi1ELb1ELS0_5ELS1_3ELi0EEERK13ap_fixed_baseIXT_EXT0_EXT1_EXT2_EXT3_EXT4_EE = comdat any

$_ZNK13ap_fixed_baseILi63ELi1ELb1EL9ap_q_mode5EL9ap_o_mode3ELi0EE3iwlEv = comdat any

$_ZeqILi63ELi1ELb0EL9ap_q_mode5EL9ap_o_mode3ELi0EEbRK13ap_fixed_baseIXT_EXT0_EXT1_EXT2_EXT3_EXT4_EEi = comdat any

$_ZN9ap_ufixedILi63ELi1EL9ap_q_mode5EL9ap_o_mode3ELi0EEC2Ei = comdat any

$_ZN13ap_fixed_baseILi63ELi1ELb1EL9ap_q_mode5EL9ap_o_mode3ELi0EEclEii = comdat any

$_ZN12af_range_refILi63ELi1ELb0EL9ap_q_mode5EL9ap_o_mode3ELi0EEaSILi63ELi1ELb1ELS0_5ELS1_3ELi0EEERS2_RKS_IXT_EXT0_EXT1_EXT2_EXT3_EXT4_EE = comdat any

$_ZN9ap_ufixedILi53ELi1EL9ap_q_mode5EL9ap_o_mode3ELi0EEC2ILi63ELi1ELb0ELS0_5ELS1_3ELi0EEERK13ap_fixed_baseIXT_EXT0_EXT1_EXT2_EXT3_EXT4_EE = comdat any

$_ZN9fp_structIdE12set_mantissaE9ap_ufixedILi53ELi1EL9ap_q_mode5EL9ap_o_mode3ELi0EE = comdat any

$_ZN9ap_ufixedILi52ELi0EL9ap_q_mode5EL9ap_o_mode3ELi0EEC2ILi53ELi1ELb0ELS0_5ELS1_3ELi0EEERK13ap_fixed_baseIXT_EXT0_EXT1_EXT2_EXT3_EXT4_EE = comdat any

$_ZN13ap_fixed_baseILi52ELi0ELb0EL9ap_q_mode5EL9ap_o_mode3ELi0EEclEii = comdat any

$_ZN7ap_uintILi52EEC2ILi52ELi0ELb0EL9ap_q_mode5EL9ap_o_mode3ELi0EEERK12af_range_refIXT_EXT0_EXT1_EXT2_EXT3_EXT4_EE = comdat any

$_ZN11ap_int_baseILi52ELb0EEC2ILi52ELi0ELb0EL9ap_q_mode5EL9ap_o_mode3ELi0EEERK12af_range_refIXT_EXT0_EXT1_EXT2_EXT3_EXT4_EE = comdat any

$_ZNK12af_range_refILi52ELi0ELb0EL9ap_q_mode5EL9ap_o_mode3ELi0EE3getEv = comdat any

$_ZN13ap_fixed_baseILi52ELi0ELb0EL9ap_q_mode5EL9ap_o_mode3ELi0EE5rangeEii = comdat any

$_ZN12af_range_refILi52ELi0ELb0EL9ap_q_mode5EL9ap_o_mode3ELi0EEC2EP13ap_fixed_baseILi52ELi0ELb0ELS0_5ELS1_3ELi0EEii = comdat any

$_ZN13ap_fixed_baseILi52ELi0ELb0EL9ap_q_mode5EL9ap_o_mode3ELi0EEC2ILi53ELi1ELb0ELS0_5ELS1_3ELi0EEERKS_IXT_EXT0_EXT1_EXT2_EXT3_EXT4_EE = comdat any

$_ZN13ap_fixed_baseILi52ELi0ELb0EL9ap_q_mode5EL9ap_o_mode3ELi0EEaSILi53ELi1ELb0ELS0_5ELS1_3ELi0EEERS2_RKS_IXT_EXT0_EXT1_EXT2_EXT3_EXT4_EE = comdat any

$_ZN13ap_fixed_baseILi52ELi0ELb0EL9ap_q_mode5EL9ap_o_mode3ELi0EE6reportEv = comdat any

$_ZNK13ap_fixed_baseILi53ELi1ELb0EL9ap_q_mode5EL9ap_o_mode3ELi0EEntEv = comdat any

$_ZN13ap_fixed_baseILi53ELi1ELb0EL9ap_q_mode5EL9ap_o_mode3ELi0EEC2ILi63ELi1ELb0ELS0_5ELS1_3ELi0EEERKS_IXT_EXT0_EXT1_EXT2_EXT3_EXT4_EE = comdat any

$_ZN8ssdm_intILi53ELb0EEC2EDq53_j = comdat any

$_ZN13ap_fixed_baseILi53ELi1ELb0EL9ap_q_mode5EL9ap_o_mode3ELi0EEaSILi63ELi1ELb0ELS0_5ELS1_3ELi0EEERS2_RKS_IXT_EXT0_EXT1_EXT2_EXT3_EXT4_EE = comdat any

$_ZN13ap_fixed_baseILi53ELi1ELb0EL9ap_q_mode5EL9ap_o_mode3ELi0EE6reportEv = comdat any

$_ZNK13ap_fixed_baseILi63ELi1ELb0EL9ap_q_mode5EL9ap_o_mode3ELi0EEntEv = comdat any

$_ZN11ap_int_baseILi63ELb0EEC2ILi63ELi1ELb1EL9ap_q_mode5EL9ap_o_mode3ELi0EEERK12af_range_refIXT_EXT0_EXT1_EXT2_EXT3_EXT4_EE = comdat any

$_ZN12af_range_refILi63ELi1ELb0EL9ap_q_mode5EL9ap_o_mode3ELi0EEaSILi63ELb0EEERS2_RK11ap_int_baseIXT_EXT0_EE = comdat any

$_ZNK12af_range_refILi63ELi1ELb1EL9ap_q_mode5EL9ap_o_mode3ELi0EE3getEv = comdat any

$_ZN13ap_fixed_baseILi63ELi1ELb1EL9ap_q_mode5EL9ap_o_mode3ELi0EE5rangeEii = comdat any

$_ZN12af_range_refILi63ELi1ELb1EL9ap_q_mode5EL9ap_o_mode3ELi0EEC2EP13ap_fixed_baseILi63ELi1ELb1ELS0_5ELS1_3ELi0EEii = comdat any

$_ZN13ap_fixed_baseILi63ELi1ELb0EL9ap_q_mode5EL9ap_o_mode3ELi0EEC2Ei = comdat any

$_ZN13ap_fixed_baseILi63ELi1ELb0EL9ap_q_mode5EL9ap_o_mode3ELi0EEaSILi32ELi32ELb1ELS0_5ELS1_3ELi0EEERS2_RKS_IXT_EXT0_EXT1_EXT2_EXT3_EXT4_EE = comdat any

$_ZNK13ap_fixed_baseILi32ELi32ELb1EL9ap_q_mode5EL9ap_o_mode3ELi0EEntEv = comdat any

$_ZN13ap_fixed_baseILi32ELi32ELb1EL9ap_q_mode5EL9ap_o_mode3ELi0EEC2Ei = comdat any

$_ZNK13ap_fixed_baseILi63ELi1ELb0EL9ap_q_mode5EL9ap_o_mode3ELi0EEeqILi32ELi32ELb1ELS0_5ELS1_3ELi0EEEbRKS_IXT_EXT0_EXT1_EXT2_EXT3_EXT4_EE = comdat any

$_ZN13ap_fixed_baseILi94ELi32ELb1EL9ap_q_mode5EL9ap_o_mode3ELi0EEC2ILi32ELi32ELb1ELS0_5ELS1_3ELi0EEERKS_IXT_EXT0_EXT1_EXT2_EXT3_EXT4_EE = comdat any

$_ZN8ssdm_intILi94ELb1EEC2EDq94_i = comdat any

$_ZN13ap_fixed_baseILi94ELi32ELb1EL9ap_q_mode5EL9ap_o_mode3ELi0EEaSILi32ELi32ELb1ELS0_5ELS1_3ELi0EEERS2_RKS_IXT_EXT0_EXT1_EXT2_EXT3_EXT4_EE = comdat any

$_ZN13ap_fixed_baseILi94ELi32ELb1EL9ap_q_mode5EL9ap_o_mode3ELi0EE6reportEv = comdat any

$_ZN13ap_fixed_baseILi63ELi1ELb1EL9ap_q_mode5EL9ap_o_mode3ELi0EEC2Ei = comdat any

$_ZNK13ap_fixed_baseILi63ELi1ELb1EL9ap_q_mode5EL9ap_o_mode3ELi0EErsEj = comdat any

$_ZNK13ap_fixed_baseILi63ELi1ELb1EL9ap_q_mode5EL9ap_o_mode3ELi0EElsEj = comdat any

$_ZN13ap_fixed_baseILi63ELi1ELb1EL9ap_q_mode5EL9ap_o_mode3ELi0EEaSILi32ELi32ELb1ELS0_5ELS1_3ELi0EEERS2_RKS_IXT_EXT0_EXT1_EXT2_EXT3_EXT4_EE = comdat any

$_ZN13ap_fixed_baseILi63ELi1ELb1EL9ap_q_mode5EL9ap_o_mode3ELi0EEC2ILi63ELi1ELb0ELS0_5ELS1_3ELi0EEERKS_IXT_EXT0_EXT1_EXT2_EXT3_EXT4_EE = comdat any

$_ZN8ssdm_intILi63ELb1EEC2EDq63_i = comdat any

$_ZN13ap_fixed_baseILi63ELi1ELb1EL9ap_q_mode5EL9ap_o_mode3ELi0EEaSILi63ELi1ELb0ELS0_5ELS1_3ELi0EEERS2_RKS_IXT_EXT0_EXT1_EXT2_EXT3_EXT4_EE = comdat any

$_ZN13ap_fixed_baseILi63ELi1ELb1EL9ap_q_mode5EL9ap_o_mode3ELi0EE6reportEv = comdat any

$_ZN6ap_intILi32EEC2Ei = comdat any

$_ZNK11ap_int_baseILi32ELb1EE17countLeadingZerosEv = comdat any

$_ZN11ap_int_baseILi32ELb0EEC2Em = comdat any

$_ZN8ssdm_intILi32ELb0EEC2Ej = comdat any

$_ZN11ap_int_baseILi32ELb1EE18checkOverflowBaseCIiEEvT_ = comdat any

$_ZN10ap_bit_refILi32ELb0EEC2EP11ap_int_baseILi32ELb0EEi = comdat any

$_ZN11ap_int_baseILi63ELb0EEC2ILi63ELi1ELb0EL9ap_q_mode5EL9ap_o_mode3ELi0EEERK12af_range_refIXT_EXT0_EXT1_EXT2_EXT3_EXT4_EE = comdat any

$_ZN12ap_range_refILi32ELb0EEaSILi63ELb0EEERS0_RK11ap_int_baseIXT_EXT0_EE = comdat any

$_ZN11ap_int_baseILi32ELb0EEC2ILi63ELb0EEERKS_IXT_EXT0_EE = comdat any

$_ZNK12af_range_refILi63ELi1ELb0EL9ap_q_mode5EL9ap_o_mode3ELi0EE3getEv = comdat any

$_ZN11ap_int_baseILi32ELb0EE5rangeEii = comdat any

$_ZN12ap_range_refILi32ELb0EEC2EP11ap_int_baseILi32ELb0EEii = comdat any

$_ZN13ap_fixed_baseILi63ELi1ELb0EL9ap_q_mode5EL9ap_o_mode3ELi0EE5rangeEii = comdat any

$_ZN12af_range_refILi63ELi1ELb0EL9ap_q_mode5EL9ap_o_mode3ELi0EEC2EP13ap_fixed_baseILi63ELi1ELb0ELS0_5ELS1_3ELi0EEii = comdat any

$_ZN11ap_int_baseILi32ELb0EEC2Ei = comdat any

$_ZN11ap_int_baseILi32ELb0EE18checkOverflowBaseCIiEEvT_ = comdat any

$_ZN10ap_bit_refILi1ELb0EEC2EP11ap_int_baseILi1ELb0EEi = comdat any

$_ZmiILi1ELb0ELi11ELb1EEN11ap_int_baseIXT_EXT0_EE5RTypeIXT1_EXT2_EE5minusERKS1_RKS0_IXT1_EXT2_EE = comdat any

$_ZN11ap_int_baseILi12ELb1EEC2ILi1ELb0EEERKS_IXT_EXT0_EE = comdat any

$_ZN11ap_int_baseILi12ELb1EEC2ILi11ELb1EEERKS_IXT_EXT0_EE = comdat any

$_ZN11ap_int_baseILi12ELb1EEC2Ei = comdat any

$_ZN6ap_intILi12EEC2ILi12ELb1EEERK11ap_int_baseIXT_EXT0_EE = comdat any

$_ZN8ssdm_intILi12ELb1EEC2EDq12_i = comdat any

$_ZNK13ap_fixed_baseILi63ELi0ELb0EL9ap_q_mode5EL9ap_o_mode3ELi0EE2wlEv = comdat any

$_ZNK13ap_fixed_baseILi63ELi0ELb0EL9ap_q_mode5EL9ap_o_mode3ELi0EE3iwlEv = comdat any

$_ZN13ap_fixed_baseILi63ELi0ELb0EL9ap_q_mode5EL9ap_o_mode3ELi0EEclEii = comdat any

$_ZN7ap_uintILi8EEC2ILi63ELi0ELb0EL9ap_q_mode5EL9ap_o_mode3ELi0EEERK12af_range_refIXT_EXT0_EXT1_EXT2_EXT3_EXT4_EE = comdat any

$_ZN9ap_ufixedILi56ELin7EL9ap_q_mode5EL9ap_o_mode3ELi0EEC2ILi63ELi0ELb0ELS0_5ELS1_3ELi0EEERK13ap_fixed_baseIXT_EXT0_EXT1_EXT2_EXT3_EXT4_EE = comdat any

$_ZN9ap_ufixedILi49ELin7EL9ap_q_mode5EL9ap_o_mode3ELi0EEC2ILi56ELin7ELb0ELS0_5ELS1_3ELi0EEERK13ap_fixed_baseIXT_EXT0_EXT1_EXT2_EXT3_EXT4_EE = comdat any

$_ZNK13ap_fixed_baseILi49ELin7ELb0EL9ap_q_mode5EL9ap_o_mode3ELi0EEmlILi49ELin7ELb0ELS0_5ELS1_3ELi0EEENS2_5RTypeIXT_EXT0_EXT1_EE4multERKS_IXT_EXT0_EXT1_EXT2_EXT3_EXT4_EE = comdat any

$_ZN9ap_ufixedILi49ELin14EL9ap_q_mode5EL9ap_o_mode3ELi0EEC2ILi98ELin14ELb0ELS0_5ELS1_3ELi0EEERK13ap_fixed_baseIXT_EXT0_EXT1_EXT2_EXT3_EXT4_EE = comdat any

$_ZNK13ap_fixed_baseILi49ELin7ELb0EL9ap_q_mode5EL9ap_o_mode3ELi0EEmlILi49ELin14ELb0ELS0_5ELS1_3ELi0EEENS2_5RTypeIXT_EXT0_EXT1_EE4multERKS_IXT_EXT0_EXT1_EXT2_EXT3_EXT4_EE = comdat any

$_ZN9ap_ufixedILi42ELin21EL9ap_q_mode5EL9ap_o_mode3ELi0EEC2ILi98ELin21ELb0ELS0_5ELS1_3ELi0EEERK13ap_fixed_baseIXT_EXT0_EXT1_EXT2_EXT3_EXT4_EE = comdat any

$_ZNK13ap_fixed_baseILi49ELin14ELb0EL9ap_q_mode5EL9ap_o_mode3ELi0EEmlILi49ELin14ELb0ELS0_5ELS1_3ELi0EEENS2_5RTypeIXT_EXT0_EXT1_EE4multERKS_IXT_EXT0_EXT1_EXT2_EXT3_EXT4_EE = comdat any

$_ZN9ap_ufixedILi35ELin28EL9ap_q_mode5EL9ap_o_mode3ELi0EEC2ILi98ELin28ELb0ELS0_5ELS1_3ELi0EEERK13ap_fixed_baseIXT_EXT0_EXT1_EXT2_EXT3_EXT4_EE = comdat any

$_ZNK11ap_int_baseILi3ELb0EE6to_intEv = comdat any

$_ZN11ap_int_baseILi8ELb0EEixEi = comdat any

$_ZN10ap_bit_refILi8ELb0EEaSEb = comdat any

$_ZNK11ap_int_baseILi8ELb0EEcvyEv = comdat any

$_ZN8ap_fixedILi63ELi1EL9ap_q_mode5EL9ap_o_mode3ELi0EEC2ILi59ELi1ELb1ELS0_5ELS1_3ELi0EEERK13ap_fixed_baseIXT_EXT0_EXT1_EXT2_EXT3_EXT4_EE = comdat any

$_ZNK13ap_fixed_baseILi56ELin7ELb0EL9ap_q_mode5EL9ap_o_mode3ELi0EEmlILi52ELi1ELb1ELS0_5ELS1_3ELi0EEENS2_5RTypeIXT_EXT0_EXT1_EE4multERKS_IXT_EXT0_EXT1_EXT2_EXT3_EXT4_EE = comdat any

$_ZN8ap_fixedILi63ELi1EL9ap_q_mode5EL9ap_o_mode3ELi0EEC2ILi108ELin6ELb1ELS0_5ELS1_3ELi0EEERK13ap_fixed_baseIXT_EXT0_EXT1_EXT2_EXT3_EXT4_EE = comdat any

$_ZNK13ap_fixed_baseILi49ELin14ELb0EL9ap_q_mode5EL9ap_o_mode3ELi0EEmlILi44ELi0ELb1ELS0_5ELS1_3ELi0EEENS2_5RTypeIXT_EXT0_EXT1_EE4multERKS_IXT_EXT0_EXT1_EXT2_EXT3_EXT4_EE = comdat any

$_ZN8ap_fixedILi63ELi1EL9ap_q_mode5EL9ap_o_mode3ELi0EEC2ILi93ELin14ELb1ELS0_5ELS1_3ELi0EEERK13ap_fixed_baseIXT_EXT0_EXT1_EXT2_EXT3_EXT4_EE = comdat any

$_ZNK13ap_fixed_baseILi42ELin21ELb0EL9ap_q_mode5EL9ap_o_mode3ELi0EEmlILi34ELin3ELb1ELS0_5ELS1_3ELi0EEENS2_5RTypeIXT_EXT0_EXT1_EE4multERKS_IXT_EXT0_EXT1_EXT2_EXT3_EXT4_EE = comdat any

$_ZN8ap_fixedILi63ELi1EL9ap_q_mode5EL9ap_o_mode3ELi0EEC2ILi76ELin24ELb1ELS0_5ELS1_3ELi0EEERK13ap_fixed_baseIXT_EXT0_EXT1_EXT2_EXT3_EXT4_EE = comdat any

$_ZNK13ap_fixed_baseILi35ELin28ELb0EL9ap_q_mode5EL9ap_o_mode3ELi0EEmlILi26ELin4ELb1ELS0_5ELS1_3ELi0EEENS2_5RTypeIXT_EXT0_EXT1_EE4multERKS_IXT_EXT0_EXT1_EXT2_EXT3_EXT4_EE = comdat any

$_ZN8ap_fixedILi63ELi1EL9ap_q_mode5EL9ap_o_mode3ELi0EEC2ILi61ELin32ELb1ELS0_5ELS1_3ELi0EEERK13ap_fixed_baseIXT_EXT0_EXT1_EXT2_EXT3_EXT4_EE = comdat any

$_ZNK13ap_fixed_baseILi63ELi1ELb1EL9ap_q_mode5EL9ap_o_mode3ELi0EEplILi63ELi1ELb1ELS0_5ELS1_3ELi0EEENS2_5RTypeIXT_EXT0_EXT1_EE4plusERKS_IXT_EXT0_EXT1_EXT2_EXT3_EXT4_EE = comdat any

$_ZNK13ap_fixed_baseILi64ELi2ELb1EL9ap_q_mode5EL9ap_o_mode3ELi0EEplILi63ELi1ELb1ELS0_5ELS1_3ELi0EEENS2_5RTypeIXT_EXT0_EXT1_EE4plusERKS_IXT_EXT0_EXT1_EXT2_EXT3_EXT4_EE = comdat any

$_ZNK13ap_fixed_baseILi65ELi3ELb1EL9ap_q_mode5EL9ap_o_mode3ELi0EEplILi63ELi1ELb1ELS0_5ELS1_3ELi0EEENS2_5RTypeIXT_EXT0_EXT1_EE4plusERKS_IXT_EXT0_EXT1_EXT2_EXT3_EXT4_EE = comdat any

$_ZNK13ap_fixed_baseILi66ELi4ELb1EL9ap_q_mode5EL9ap_o_mode3ELi0EEplILi63ELi1ELb1ELS0_5ELS1_3ELi0EEENS2_5RTypeIXT_EXT0_EXT1_EE4plusERKS_IXT_EXT0_EXT1_EXT2_EXT3_EXT4_EE = comdat any

$_ZNK13ap_fixed_baseILi63ELi0ELb0EL9ap_q_mode5EL9ap_o_mode3ELi0EEmlILi67ELi5ELb1ELS0_5ELS1_3ELi0EEENS2_5RTypeIXT_EXT0_EXT1_EE4multERKS_IXT_EXT0_EXT1_EXT2_EXT3_EXT4_EE = comdat any

$_ZN9ap_ufixedILi63ELi1EL9ap_q_mode5EL9ap_o_mode3ELi0EEC2ILi130ELi5ELb1ELS0_5ELS1_3ELi0EEERK13ap_fixed_baseIXT_EXT0_EXT1_EXT2_EXT3_EXT4_EE = comdat any

$_ZN13ap_fixed_baseILi63ELi1ELb0EL9ap_q_mode5EL9ap_o_mode3ELi0EEC2ILi130ELi5ELb1ELS0_5ELS1_3ELi0EEERKS_IXT_EXT0_EXT1_EXT2_EXT3_EXT4_EE = comdat any

$_ZN8ssdm_intILi63ELb0EEC2EDq63_j = comdat any

$_ZN13ap_fixed_baseILi63ELi1ELb0EL9ap_q_mode5EL9ap_o_mode3ELi0EEaSILi130ELi5ELb1ELS0_5ELS1_3ELi0EEERS2_RKS_IXT_EXT0_EXT1_EXT2_EXT3_EXT4_EE = comdat any

$_ZN13ap_fixed_baseILi63ELi1ELb0EL9ap_q_mode5EL9ap_o_mode3ELi0EE6reportEv = comdat any

$_ZNK13ap_fixed_baseILi130ELi5ELb1EL9ap_q_mode5EL9ap_o_mode3ELi0EEntEv = comdat any

$_ZN13ap_fixed_baseILi130ELi5ELb1EL9ap_q_mode5EL9ap_o_mode3ELi0EEC2Ei = comdat any

$_ZN8ap_fixedILi130ELi5EL9ap_q_mode5EL9ap_o_mode3ELi0EEC2ILi130ELi5ELb1ELS0_5ELS1_3ELi0EEERK13ap_fixed_baseIXT_EXT0_EXT1_EXT2_EXT3_EXT4_EE = comdat any

$_ZN13ap_fixed_baseILi130ELi5ELb1EL9ap_q_mode5EL9ap_o_mode3ELi0EEaSILi32ELi32ELb1ELS0_5ELS1_3ELi0EEERS2_RKS_IXT_EXT0_EXT1_EXT2_EXT3_EXT4_EE = comdat any

$_ZN13ap_fixed_baseILi67ELi5ELb1EL9ap_q_mode5EL9ap_o_mode3ELi0EEC2Ei = comdat any

$_ZN13ap_fixed_baseILi67ELi5ELb1EL9ap_q_mode5EL9ap_o_mode3ELi0EEC2ILi66ELi4ELb1ELS0_5ELS1_3ELi0EEERKS_IXT_EXT0_EXT1_EXT2_EXT3_EXT4_EE = comdat any

$_ZN13ap_fixed_baseILi67ELi5ELb1EL9ap_q_mode5EL9ap_o_mode3ELi0EEC2ILi63ELi1ELb1ELS0_5ELS1_3ELi0EEERKS_IXT_EXT0_EXT1_EXT2_EXT3_EXT4_EE = comdat any

$_ZN8ap_fixedILi67ELi5EL9ap_q_mode5EL9ap_o_mode3ELi0EEC2ILi67ELi5ELb1ELS0_5ELS1_3ELi0EEERK13ap_fixed_baseIXT_EXT0_EXT1_EXT2_EXT3_EXT4_EE = comdat any

$_ZN8ssdm_intILi67ELb1EEC2EDq67_i = comdat any

$_ZN13ap_fixed_baseILi67ELi5ELb1EL9ap_q_mode5EL9ap_o_mode3ELi0EEaSILi63ELi1ELb1ELS0_5ELS1_3ELi0EEERS2_RKS_IXT_EXT0_EXT1_EXT2_EXT3_EXT4_EE = comdat any

$_ZN13ap_fixed_baseILi67ELi5ELb1EL9ap_q_mode5EL9ap_o_mode3ELi0EE6reportEv = comdat any

$_ZNK13ap_fixed_baseILi63ELi1ELb1EL9ap_q_mode5EL9ap_o_mode3ELi0EEntEv = comdat any

$_ZN13ap_fixed_baseILi67ELi5ELb1EL9ap_q_mode5EL9ap_o_mode3ELi0EEaSILi66ELi4ELb1ELS0_5ELS1_3ELi0EEERS2_RKS_IXT_EXT0_EXT1_EXT2_EXT3_EXT4_EE = comdat any

$_ZNK13ap_fixed_baseILi66ELi4ELb1EL9ap_q_mode5EL9ap_o_mode3ELi0EEntEv = comdat any

$_ZN13ap_fixed_baseILi67ELi5ELb1EL9ap_q_mode5EL9ap_o_mode3ELi0EEaSILi32ELi32ELb1ELS0_5ELS1_3ELi0EEERS2_RKS_IXT_EXT0_EXT1_EXT2_EXT3_EXT4_EE = comdat any

$_ZN13ap_fixed_baseILi66ELi4ELb1EL9ap_q_mode5EL9ap_o_mode3ELi0EEC2Ei = comdat any

$_ZN13ap_fixed_baseILi66ELi4ELb1EL9ap_q_mode5EL9ap_o_mode3ELi0EEC2ILi65ELi3ELb1ELS0_5ELS1_3ELi0EEERKS_IXT_EXT0_EXT1_EXT2_EXT3_EXT4_EE = comdat any

$_ZN13ap_fixed_baseILi66ELi4ELb1EL9ap_q_mode5EL9ap_o_mode3ELi0EEC2ILi63ELi1ELb1ELS0_5ELS1_3ELi0EEERKS_IXT_EXT0_EXT1_EXT2_EXT3_EXT4_EE = comdat any

$_ZN8ap_fixedILi66ELi4EL9ap_q_mode5EL9ap_o_mode3ELi0EEC2ILi66ELi4ELb1ELS0_5ELS1_3ELi0EEERK13ap_fixed_baseIXT_EXT0_EXT1_EXT2_EXT3_EXT4_EE = comdat any

$_ZN8ssdm_intILi66ELb1EEC2EDq66_i = comdat any

$_ZN13ap_fixed_baseILi66ELi4ELb1EL9ap_q_mode5EL9ap_o_mode3ELi0EEaSILi63ELi1ELb1ELS0_5ELS1_3ELi0EEERS2_RKS_IXT_EXT0_EXT1_EXT2_EXT3_EXT4_EE = comdat any

$_ZN13ap_fixed_baseILi66ELi4ELb1EL9ap_q_mode5EL9ap_o_mode3ELi0EE6reportEv = comdat any

$_ZN13ap_fixed_baseILi66ELi4ELb1EL9ap_q_mode5EL9ap_o_mode3ELi0EEaSILi65ELi3ELb1ELS0_5ELS1_3ELi0EEERS2_RKS_IXT_EXT0_EXT1_EXT2_EXT3_EXT4_EE = comdat any

$_ZNK13ap_fixed_baseILi65ELi3ELb1EL9ap_q_mode5EL9ap_o_mode3ELi0EEntEv = comdat any

$_ZN13ap_fixed_baseILi66ELi4ELb1EL9ap_q_mode5EL9ap_o_mode3ELi0EEaSILi32ELi32ELb1ELS0_5ELS1_3ELi0EEERS2_RKS_IXT_EXT0_EXT1_EXT2_EXT3_EXT4_EE = comdat any

$_ZN13ap_fixed_baseILi65ELi3ELb1EL9ap_q_mode5EL9ap_o_mode3ELi0EEC2Ei = comdat any

$_ZN13ap_fixed_baseILi65ELi3ELb1EL9ap_q_mode5EL9ap_o_mode3ELi0EEC2ILi64ELi2ELb1ELS0_5ELS1_3ELi0EEERKS_IXT_EXT0_EXT1_EXT2_EXT3_EXT4_EE = comdat any

$_ZN13ap_fixed_baseILi65ELi3ELb1EL9ap_q_mode5EL9ap_o_mode3ELi0EEC2ILi63ELi1ELb1ELS0_5ELS1_3ELi0EEERKS_IXT_EXT0_EXT1_EXT2_EXT3_EXT4_EE = comdat any

$_ZN8ap_fixedILi65ELi3EL9ap_q_mode5EL9ap_o_mode3ELi0EEC2ILi65ELi3ELb1ELS0_5ELS1_3ELi0EEERK13ap_fixed_baseIXT_EXT0_EXT1_EXT2_EXT3_EXT4_EE = comdat any

$_ZN8ssdm_intILi65ELb1EEC2EDq65_i = comdat any

$_ZN13ap_fixed_baseILi65ELi3ELb1EL9ap_q_mode5EL9ap_o_mode3ELi0EEaSILi63ELi1ELb1ELS0_5ELS1_3ELi0EEERS2_RKS_IXT_EXT0_EXT1_EXT2_EXT3_EXT4_EE = comdat any

$_ZN13ap_fixed_baseILi65ELi3ELb1EL9ap_q_mode5EL9ap_o_mode3ELi0EE6reportEv = comdat any

$_ZN13ap_fixed_baseILi65ELi3ELb1EL9ap_q_mode5EL9ap_o_mode3ELi0EEaSILi64ELi2ELb1ELS0_5ELS1_3ELi0EEERS2_RKS_IXT_EXT0_EXT1_EXT2_EXT3_EXT4_EE = comdat any

$_ZNK13ap_fixed_baseILi64ELi2ELb1EL9ap_q_mode5EL9ap_o_mode3ELi0EEntEv = comdat any

$_ZN13ap_fixed_baseILi65ELi3ELb1EL9ap_q_mode5EL9ap_o_mode3ELi0EEaSILi32ELi32ELb1ELS0_5ELS1_3ELi0EEERS2_RKS_IXT_EXT0_EXT1_EXT2_EXT3_EXT4_EE = comdat any

$_ZN13ap_fixed_baseILi64ELi2ELb1EL9ap_q_mode5EL9ap_o_mode3ELi0EEC2Ei = comdat any

$_ZN13ap_fixed_baseILi64ELi2ELb1EL9ap_q_mode5EL9ap_o_mode3ELi0EEC2ILi63ELi1ELb1ELS0_5ELS1_3ELi0EEERKS_IXT_EXT0_EXT1_EXT2_EXT3_EXT4_EE = comdat any

$_ZN8ap_fixedILi64ELi2EL9ap_q_mode5EL9ap_o_mode3ELi0EEC2ILi64ELi2ELb1ELS0_5ELS1_3ELi0EEERK13ap_fixed_baseIXT_EXT0_EXT1_EXT2_EXT3_EXT4_EE = comdat any

$_ZN8ssdm_intILi64ELb1EEC2El = comdat any

$_ZN13ap_fixed_baseILi64ELi2ELb1EL9ap_q_mode5EL9ap_o_mode3ELi0EEaSILi63ELi1ELb1ELS0_5ELS1_3ELi0EEERS2_RKS_IXT_EXT0_EXT1_EXT2_EXT3_EXT4_EE = comdat any

$_ZN13ap_fixed_baseILi64ELi2ELb1EL9ap_q_mode5EL9ap_o_mode3ELi0EE6reportEv = comdat any

$_ZN13ap_fixed_baseILi64ELi2ELb1EL9ap_q_mode5EL9ap_o_mode3ELi0EEaSILi32ELi32ELb1ELS0_5ELS1_3ELi0EEERS2_RKS_IXT_EXT0_EXT1_EXT2_EXT3_EXT4_EE = comdat any

$_ZN13ap_fixed_baseILi63ELi1ELb1EL9ap_q_mode5EL9ap_o_mode3ELi0EEC2ILi61ELin32ELb1ELS0_5ELS1_3ELi0EEERKS_IXT_EXT0_EXT1_EXT2_EXT3_EXT4_EE = comdat any

$_ZN13ap_fixed_baseILi63ELi1ELb1EL9ap_q_mode5EL9ap_o_mode3ELi0EEaSILi61ELin32ELb1ELS0_5ELS1_3ELi0EEERS2_RKS_IXT_EXT0_EXT1_EXT2_EXT3_EXT4_EE = comdat any

$_ZNK13ap_fixed_baseILi61ELin32ELb1EL9ap_q_mode5EL9ap_o_mode3ELi0EEntEv = comdat any

$_ZN13ap_fixed_baseILi61ELin32ELb1EL9ap_q_mode5EL9ap_o_mode3ELi0EEC2Ei = comdat any

$_ZN8ap_fixedILi61ELin32EL9ap_q_mode5EL9ap_o_mode3ELi0EEC2ILi61ELin32ELb1ELS0_5ELS1_3ELi0EEERK13ap_fixed_baseIXT_EXT0_EXT1_EXT2_EXT3_EXT4_EE = comdat any

$_ZN13ap_fixed_baseILi61ELin32ELb1EL9ap_q_mode5EL9ap_o_mode3ELi0EEaSILi32ELi32ELb1ELS0_5ELS1_3ELi0EEERS2_RKS_IXT_EXT0_EXT1_EXT2_EXT3_EXT4_EE = comdat any

$_ZN13ap_fixed_baseILi63ELi1ELb1EL9ap_q_mode5EL9ap_o_mode3ELi0EEC2ILi76ELin24ELb1ELS0_5ELS1_3ELi0EEERKS_IXT_EXT0_EXT1_EXT2_EXT3_EXT4_EE = comdat any

$_ZN13ap_fixed_baseILi63ELi1ELb1EL9ap_q_mode5EL9ap_o_mode3ELi0EEaSILi76ELin24ELb1ELS0_5ELS1_3ELi0EEERS2_RKS_IXT_EXT0_EXT1_EXT2_EXT3_EXT4_EE = comdat any

$_ZNK13ap_fixed_baseILi76ELin24ELb1EL9ap_q_mode5EL9ap_o_mode3ELi0EEntEv = comdat any

$_ZN13ap_fixed_baseILi76ELin24ELb1EL9ap_q_mode5EL9ap_o_mode3ELi0EEC2Ei = comdat any

$_ZN8ap_fixedILi76ELin24EL9ap_q_mode5EL9ap_o_mode3ELi0EEC2ILi76ELin24ELb1ELS0_5ELS1_3ELi0EEERK13ap_fixed_baseIXT_EXT0_EXT1_EXT2_EXT3_EXT4_EE = comdat any

$_ZN13ap_fixed_baseILi76ELin24ELb1EL9ap_q_mode5EL9ap_o_mode3ELi0EEaSILi32ELi32ELb1ELS0_5ELS1_3ELi0EEERS2_RKS_IXT_EXT0_EXT1_EXT2_EXT3_EXT4_EE = comdat any

$_ZN13ap_fixed_baseILi63ELi1ELb1EL9ap_q_mode5EL9ap_o_mode3ELi0EEC2ILi93ELin14ELb1ELS0_5ELS1_3ELi0EEERKS_IXT_EXT0_EXT1_EXT2_EXT3_EXT4_EE = comdat any

$_ZN13ap_fixed_baseILi63ELi1ELb1EL9ap_q_mode5EL9ap_o_mode3ELi0EEaSILi93ELin14ELb1ELS0_5ELS1_3ELi0EEERS2_RKS_IXT_EXT0_EXT1_EXT2_EXT3_EXT4_EE = comdat any

$_ZNK13ap_fixed_baseILi93ELin14ELb1EL9ap_q_mode5EL9ap_o_mode3ELi0EEntEv = comdat any

$_ZN13ap_fixed_baseILi93ELin14ELb1EL9ap_q_mode5EL9ap_o_mode3ELi0EEC2Ei = comdat any

$_ZN8ap_fixedILi93ELin14EL9ap_q_mode5EL9ap_o_mode3ELi0EEC2ILi93ELin14ELb1ELS0_5ELS1_3ELi0EEERK13ap_fixed_baseIXT_EXT0_EXT1_EXT2_EXT3_EXT4_EE = comdat any

$_ZN13ap_fixed_baseILi93ELin14ELb1EL9ap_q_mode5EL9ap_o_mode3ELi0EEaSILi32ELi32ELb1ELS0_5ELS1_3ELi0EEERS2_RKS_IXT_EXT0_EXT1_EXT2_EXT3_EXT4_EE = comdat any

$_ZN13ap_fixed_baseILi63ELi1ELb1EL9ap_q_mode5EL9ap_o_mode3ELi0EEC2ILi108ELin6ELb1ELS0_5ELS1_3ELi0EEERKS_IXT_EXT0_EXT1_EXT2_EXT3_EXT4_EE = comdat any

$_ZN13ap_fixed_baseILi63ELi1ELb1EL9ap_q_mode5EL9ap_o_mode3ELi0EEaSILi108ELin6ELb1ELS0_5ELS1_3ELi0EEERS2_RKS_IXT_EXT0_EXT1_EXT2_EXT3_EXT4_EE = comdat any

$_ZNK13ap_fixed_baseILi108ELin6ELb1EL9ap_q_mode5EL9ap_o_mode3ELi0EEntEv = comdat any

$_ZN13ap_fixed_baseILi108ELin6ELb1EL9ap_q_mode5EL9ap_o_mode3ELi0EEC2Ei = comdat any

$_ZN8ap_fixedILi108ELin6EL9ap_q_mode5EL9ap_o_mode3ELi0EEC2ILi108ELin6ELb1ELS0_5ELS1_3ELi0EEERK13ap_fixed_baseIXT_EXT0_EXT1_EXT2_EXT3_EXT4_EE = comdat any

$_ZN13ap_fixed_baseILi108ELin6ELb1EL9ap_q_mode5EL9ap_o_mode3ELi0EEaSILi32ELi32ELb1ELS0_5ELS1_3ELi0EEERS2_RKS_IXT_EXT0_EXT1_EXT2_EXT3_EXT4_EE = comdat any

$_ZN13ap_fixed_baseILi63ELi1ELb1EL9ap_q_mode5EL9ap_o_mode3ELi0EEC2ILi59ELi1ELb1ELS0_5ELS1_3ELi0EEERKS_IXT_EXT0_EXT1_EXT2_EXT3_EXT4_EE = comdat any

$_ZN13ap_fixed_baseILi63ELi1ELb1EL9ap_q_mode5EL9ap_o_mode3ELi0EEaSILi59ELi1ELb1ELS0_5ELS1_3ELi0EEERS2_RKS_IXT_EXT0_EXT1_EXT2_EXT3_EXT4_EE = comdat any

$_ZNK13ap_fixed_baseILi59ELi1ELb1EL9ap_q_mode5EL9ap_o_mode3ELi0EEntEv = comdat any

$_ZN10ap_bit_refILi8ELb0EEC2EP11ap_int_baseILi8ELb0EEi = comdat any

$_ZN13ap_fixed_baseILi35ELin28ELb0EL9ap_q_mode5EL9ap_o_mode3ELi0EEC2ILi98ELin28ELb0ELS0_5ELS1_3ELi0EEERKS_IXT_EXT0_EXT1_EXT2_EXT3_EXT4_EE = comdat any

$_ZN8ssdm_intILi35ELb0EEC2EDq35_j = comdat any

$_ZN13ap_fixed_baseILi35ELin28ELb0EL9ap_q_mode5EL9ap_o_mode3ELi0EEaSILi98ELin28ELb0ELS0_5ELS1_3ELi0EEERS2_RKS_IXT_EXT0_EXT1_EXT2_EXT3_EXT4_EE = comdat any

$_ZN13ap_fixed_baseILi35ELin28ELb0EL9ap_q_mode5EL9ap_o_mode3ELi0EE6reportEv = comdat any

$_ZNK13ap_fixed_baseILi98ELin28ELb0EL9ap_q_mode5EL9ap_o_mode3ELi0EEntEv = comdat any

$_ZN13ap_fixed_baseILi98ELin28ELb0EL9ap_q_mode5EL9ap_o_mode3ELi0EEC2Ei = comdat any

$_ZN9ap_ufixedILi98ELin28EL9ap_q_mode5EL9ap_o_mode3ELi0EEC2ILi98ELin28ELb0ELS0_5ELS1_3ELi0EEERK13ap_fixed_baseIXT_EXT0_EXT1_EXT2_EXT3_EXT4_EE = comdat any

$_ZN13ap_fixed_baseILi98ELin28ELb0EL9ap_q_mode5EL9ap_o_mode3ELi0EEaSILi32ELi32ELb1ELS0_5ELS1_3ELi0EEERS2_RKS_IXT_EXT0_EXT1_EXT2_EXT3_EXT4_EE = comdat any

$_ZN13ap_fixed_baseILi42ELin21ELb0EL9ap_q_mode5EL9ap_o_mode3ELi0EEC2ILi98ELin21ELb0ELS0_5ELS1_3ELi0EEERKS_IXT_EXT0_EXT1_EXT2_EXT3_EXT4_EE = comdat any

$_ZN8ssdm_intILi42ELb0EEC2EDq42_j = comdat any

$_ZN13ap_fixed_baseILi42ELin21ELb0EL9ap_q_mode5EL9ap_o_mode3ELi0EEaSILi98ELin21ELb0ELS0_5ELS1_3ELi0EEERS2_RKS_IXT_EXT0_EXT1_EXT2_EXT3_EXT4_EE = comdat any

$_ZN13ap_fixed_baseILi42ELin21ELb0EL9ap_q_mode5EL9ap_o_mode3ELi0EE6reportEv = comdat any

$_ZNK13ap_fixed_baseILi98ELin21ELb0EL9ap_q_mode5EL9ap_o_mode3ELi0EEntEv = comdat any

$_ZN13ap_fixed_baseILi98ELin21ELb0EL9ap_q_mode5EL9ap_o_mode3ELi0EEC2Ei = comdat any

$_ZN9ap_ufixedILi98ELin21EL9ap_q_mode5EL9ap_o_mode3ELi0EEC2ILi98ELin21ELb0ELS0_5ELS1_3ELi0EEERK13ap_fixed_baseIXT_EXT0_EXT1_EXT2_EXT3_EXT4_EE = comdat any

$_ZN13ap_fixed_baseILi98ELin21ELb0EL9ap_q_mode5EL9ap_o_mode3ELi0EEaSILi32ELi32ELb1ELS0_5ELS1_3ELi0EEERS2_RKS_IXT_EXT0_EXT1_EXT2_EXT3_EXT4_EE = comdat any

$_ZN13ap_fixed_baseILi49ELin14ELb0EL9ap_q_mode5EL9ap_o_mode3ELi0EEC2ILi98ELin14ELb0ELS0_5ELS1_3ELi0EEERKS_IXT_EXT0_EXT1_EXT2_EXT3_EXT4_EE = comdat any

$_ZN8ssdm_intILi49ELb0EEC2EDq49_j = comdat any

$_ZN13ap_fixed_baseILi49ELin14ELb0EL9ap_q_mode5EL9ap_o_mode3ELi0EEaSILi98ELin14ELb0ELS0_5ELS1_3ELi0EEERS2_RKS_IXT_EXT0_EXT1_EXT2_EXT3_EXT4_EE = comdat any

$_ZN13ap_fixed_baseILi49ELin14ELb0EL9ap_q_mode5EL9ap_o_mode3ELi0EE6reportEv = comdat any

$_ZNK13ap_fixed_baseILi98ELin14ELb0EL9ap_q_mode5EL9ap_o_mode3ELi0EEntEv = comdat any

$_ZN13ap_fixed_baseILi98ELin14ELb0EL9ap_q_mode5EL9ap_o_mode3ELi0EEC2Ei = comdat any

$_ZN9ap_ufixedILi98ELin14EL9ap_q_mode5EL9ap_o_mode3ELi0EEC2ILi98ELin14ELb0ELS0_5ELS1_3ELi0EEERK13ap_fixed_baseIXT_EXT0_EXT1_EXT2_EXT3_EXT4_EE = comdat any

$_ZN13ap_fixed_baseILi98ELin14ELb0EL9ap_q_mode5EL9ap_o_mode3ELi0EEaSILi32ELi32ELb1ELS0_5ELS1_3ELi0EEERS2_RKS_IXT_EXT0_EXT1_EXT2_EXT3_EXT4_EE = comdat any

$_ZN13ap_fixed_baseILi49ELin7ELb0EL9ap_q_mode5EL9ap_o_mode3ELi0EEC2ILi56ELin7ELb0ELS0_5ELS1_3ELi0EEERKS_IXT_EXT0_EXT1_EXT2_EXT3_EXT4_EE = comdat any

$_ZN13ap_fixed_baseILi49ELin7ELb0EL9ap_q_mode5EL9ap_o_mode3ELi0EEaSILi56ELin7ELb0ELS0_5ELS1_3ELi0EEERS2_RKS_IXT_EXT0_EXT1_EXT2_EXT3_EXT4_EE = comdat any

$_ZN13ap_fixed_baseILi49ELin7ELb0EL9ap_q_mode5EL9ap_o_mode3ELi0EE6reportEv = comdat any

$_ZNK13ap_fixed_baseILi56ELin7ELb0EL9ap_q_mode5EL9ap_o_mode3ELi0EEntEv = comdat any

$_ZN13ap_fixed_baseILi56ELin7ELb0EL9ap_q_mode5EL9ap_o_mode3ELi0EEC2ILi63ELi0ELb0ELS0_5ELS1_3ELi0EEERKS_IXT_EXT0_EXT1_EXT2_EXT3_EXT4_EE = comdat any

$_ZN8ssdm_intILi56ELb0EEC2EDq56_j = comdat any

$_ZN13ap_fixed_baseILi56ELin7ELb0EL9ap_q_mode5EL9ap_o_mode3ELi0EEaSILi63ELi0ELb0ELS0_5ELS1_3ELi0EEERS2_RKS_IXT_EXT0_EXT1_EXT2_EXT3_EXT4_EE = comdat any

$_ZN13ap_fixed_baseILi56ELin7ELb0EL9ap_q_mode5EL9ap_o_mode3ELi0EE6reportEv = comdat any

$_ZNK13ap_fixed_baseILi63ELi0ELb0EL9ap_q_mode5EL9ap_o_mode3ELi0EEntEv = comdat any

$_ZN11ap_int_baseILi8ELb0EEC2ILi63ELi0ELb0EL9ap_q_mode5EL9ap_o_mode3ELi0EEERK12af_range_refIXT_EXT0_EXT1_EXT2_EXT3_EXT4_EE = comdat any

$_ZNK12af_range_refILi63ELi0ELb0EL9ap_q_mode5EL9ap_o_mode3ELi0EE3getEv = comdat any

$_ZN13ap_fixed_baseILi63ELi0ELb0EL9ap_q_mode5EL9ap_o_mode3ELi0EE5rangeEii = comdat any

$_ZN12af_range_refILi63ELi0ELb0EL9ap_q_mode5EL9ap_o_mode3ELi0EEC2EP13ap_fixed_baseILi63ELi0ELb0ELS0_5ELS1_3ELi0EEii = comdat any

$_ZN11ap_int_baseILi11ELb1EEC2Ei = comdat any

$_ZN11ap_int_baseILi11ELb1EE18checkOverflowBaseCIiEEvT_ = comdat any

$_ZN8ssdm_intILi11ELb1EEC2EDq11_i = comdat any

$_ZN13ap_fixed_baseILi63ELi0ELb0EL9ap_q_mode5EL9ap_o_mode3ELi0EEC2ILi63ELi0ELb0ELS0_0ELS1_0ELi0EEERKS_IXT_EXT0_EXT1_EXT2_EXT3_EXT4_EE = comdat any

$_ZN13ap_fixed_baseILi63ELi0ELb0EL9ap_q_mode5EL9ap_o_mode3ELi0EEaSILi63ELi0ELb0ELS0_0ELS1_0ELi0EEERS2_RKS_IXT_EXT0_EXT1_EXT2_EXT3_EXT4_EE = comdat any

$_ZN13ap_fixed_baseILi63ELi0ELb0EL9ap_q_mode5EL9ap_o_mode3ELi0EE6reportEv = comdat any

$_ZNK13ap_fixed_baseILi63ELi0ELb0EL9ap_q_mode0EL9ap_o_mode0ELi0EEntEv = comdat any

$_ZN13ap_fixed_baseILi63ELi0ELb0EL9ap_q_mode0EL9ap_o_mode0ELi0EEC2Ei = comdat any

$_ZN13ap_fixed_baseILi63ELi0ELb0EL9ap_q_mode0EL9ap_o_mode0ELi0EEaSILi32ELi32ELb1ELS0_5ELS1_3ELi0EEERS2_RKS_IXT_EXT0_EXT1_EXT2_EXT3_EXT4_EE = comdat any

$_ZrsILi32ELb0EEN11ap_int_baseIXT_EXT0_EE5RTypeIXT_EXT0_EE4arg1ERKS1_i = comdat any

$_ZNK11ap_int_baseILi32ELb0EEeqILi32ELb0EEEbRKS_IXT_EXT0_EE = comdat any

$_ZN13ap_fixed_baseILi63ELi0ELb0EL9ap_q_mode0EL9ap_o_mode0ELi0EE15overflow_adjustEbbbb = comdat any

$_ZN11ap_int_baseILi63ELb0EEC2Ei = comdat any

$_ZN7ap_uintILi32EEC2ILi32ELb0EEERK11ap_int_baseIXT_EXT0_EE = comdat any

$_ZNK9fp_structIdE4expvEv = comdat any

$_ZltILi11ELb0EEbRK11ap_int_baseIXT_EXT0_EEi = comdat any

$_ZN11ap_int_baseILi52ELb0EEclEii = comdat any

$_ZN11ap_int_baseILi53ELb0EEclEii = comdat any

$_ZN12ap_range_refILi53ELb0EEaSILi52ELb0EEERS0_RKS_IXT_EXT0_EE = comdat any

$_ZN11ap_int_baseILi53ELb0EEixEi = comdat any

$_ZN10ap_bit_refILi53ELb0EEaSEi = comdat any

$_Z23table_lookup_4oPi_hotbmILi52ELi61EE7ap_uintIXplplmlLi2EplT_Li1ET0_Li3EEEid = comdat any

$_ZmlILi170ELb0ELi53ELb0EEN11ap_int_baseIXT_EXT0_EE5RTypeIXT1_EXT2_EE4multERKS1_RKS0_IXT1_EXT2_EE = comdat any

$_ZNK13ap_fixed_baseILi223ELi56ELb0EL9ap_q_mode5EL9ap_o_mode3ELi0EE2wlEv = comdat any

$_ZN11ap_int_baseILi223ELb0EEclEii = comdat any

$_ZN13ap_fixed_baseILi223ELi56ELb0EL9ap_q_mode5EL9ap_o_mode3ELi0EEclEii = comdat any

$_ZN12af_range_refILi223ELi56ELb0EL9ap_q_mode5EL9ap_o_mode3ELi0EEaSILi223ELb0EEERS2_RK12ap_range_refIXT_EXT0_EE = comdat any

$_ZN9ap_ufixedILi124ELi0EL9ap_q_mode5EL9ap_o_mode3ELi0EEC2ILi223ELi56ELb0ELS0_5ELS1_3ELi0EEERK13ap_fixed_baseIXT_EXT0_EXT1_EXT2_EXT3_EXT4_EE = comdat any

$_ZN7ap_uintILi3EEC2Ei = comdat any

$_ZN7ap_uintILi3EEC2ILi223ELi56EL9ap_q_mode5EL9ap_o_mode3ELi0EEERK9ap_ufixedIXT_EXT0_EXT1_EXT2_EXT3_EE = comdat any

$_ZN11ap_int_baseILi3ELb0EEixEi = comdat any

$_ZeqILi3ELb0EEbRK10ap_bit_refIXT_EXT0_EEi = comdat any

$"_ZmiILi124ELi0ELb0EL9ap_q_mode5EL9ap_o_mode3ELi0EEN13ap_fixed_baseIXT_EXT0_EXT1_ELS0_5ELS1_3ELi0EE5RTypeIXL3$_032EEXLS5_32EEXLb1EEE5minusEiRKS2_IXT_EXT0_EXT1_EXT2_EXT3_EXT4_EE" = comdat any

$_ZN9ap_ufixedILi124ELi0EL9ap_q_mode5EL9ap_o_mode3ELi0EEC2ILi157ELi33ELb1ELS0_5ELS1_3ELi0EEERK13ap_fixed_baseIXT_EXT0_EXT1_EXT2_EXT3_EXT4_EE = comdat any

$_Z3clzILi61ELi124ELi0EEj9ap_ufixedIXT0_EXT1_EL9ap_q_mode5EL9ap_o_mode3ELi0EE = comdat any

$_ZN7ap_uintILi7EEC2Ej = comdat any

$_ZNK13ap_fixed_baseILi124ELi0ELb0EL9ap_q_mode5EL9ap_o_mode3ELi0EElsILi7EEES2_RK11ap_int_baseIXT_ELb0EE = comdat any

$_ZN9ap_ufixedILi63ELi0EL9ap_q_mode5EL9ap_o_mode3ELi0EEC2ILi124ELi0ELb0ELS0_5ELS1_3ELi0EEERK13ap_fixed_baseIXT_EXT0_EXT1_EXT2_EXT3_EXT4_EE = comdat any

$_ZN11ap_int_baseILi11ELb1EEmIILi7ELb0EEERS0_RKS_IXT_EXT0_EE = comdat any

$_ZNK13ap_fixed_baseILi63ELi0ELb0EL9ap_q_mode5EL9ap_o_mode3ELi0EElsILi11EEES2_RK11ap_int_baseIXT_ELb1EE = comdat any

$_ZN9ap_ufixedILi63ELi0EL9ap_q_mode5EL9ap_o_mode3ELi0EEC2ILi63ELi0ELb0ELS0_5ELS1_3ELi0EEERK13ap_fixed_baseIXT_EXT0_EXT1_EXT2_EXT3_EXT4_EE = comdat any

$_ZNK11ap_int_baseILi11ELb1EE6to_intEv = comdat any

$_ZNK13ap_fixed_baseILi63ELi0ELb0EL9ap_q_mode5EL9ap_o_mode3ELi0EElsEi = comdat any

$_ZN13ap_fixed_baseILi63ELi0ELb0EL9ap_q_mode5EL9ap_o_mode3ELi0EEC2Ei = comdat any

$_ZNK13ap_fixed_baseILi63ELi0ELb0EL9ap_q_mode5EL9ap_o_mode3ELi0EErsEj = comdat any

$_ZNK13ap_fixed_baseILi63ELi0ELb0EL9ap_q_mode5EL9ap_o_mode3ELi0EElsEj = comdat any

$_ZN13ap_fixed_baseILi63ELi0ELb0EL9ap_q_mode5EL9ap_o_mode3ELi0EEaSILi32ELi32ELb1ELS0_5ELS1_3ELi0EEERS2_RKS_IXT_EXT0_EXT1_EXT2_EXT3_EXT4_EE = comdat any

$_ZN13ap_fixed_baseILi63ELi0ELb0EL9ap_q_mode5EL9ap_o_mode3ELi0EEC2ILi124ELi0ELb0ELS0_5ELS1_3ELi0EEERKS_IXT_EXT0_EXT1_EXT2_EXT3_EXT4_EE = comdat any

$_ZN13ap_fixed_baseILi63ELi0ELb0EL9ap_q_mode5EL9ap_o_mode3ELi0EEaSILi124ELi0ELb0ELS0_5ELS1_3ELi0EEERS2_RKS_IXT_EXT0_EXT1_EXT2_EXT3_EXT4_EE = comdat any

$_ZNK13ap_fixed_baseILi124ELi0ELb0EL9ap_q_mode5EL9ap_o_mode3ELi0EEntEv = comdat any

$_ZNK11ap_int_baseILi7ELb0EE7to_uintEv = comdat any

$_ZNK13ap_fixed_baseILi124ELi0ELb0EL9ap_q_mode5EL9ap_o_mode3ELi0EElsEj = comdat any

$_ZN13ap_fixed_baseILi124ELi0ELb0EL9ap_q_mode5EL9ap_o_mode3ELi0EEC2Ei = comdat any

$_ZN13ap_fixed_baseILi124ELi0ELb0EL9ap_q_mode5EL9ap_o_mode3ELi0EEaSILi32ELi32ELb1ELS0_5ELS1_3ELi0EEERS2_RKS_IXT_EXT0_EXT1_EXT2_EXT3_EXT4_EE = comdat any

$_ZN11ap_int_baseILi7ELb0EEC2Ej = comdat any

$_ZN11ap_int_baseILi7ELb0EE18checkOverflowBaseCIjEEvT_ = comdat any

$_ZN8ssdm_intILi7ELb0EEC2EDq7_j = comdat any

$_ZNK13ap_fixed_baseILi124ELi0ELb0EL9ap_q_mode5EL9ap_o_mode3ELi0EE2wlEv = comdat any

$_ZN13ap_fixed_baseILi124ELi0ELb0EL9ap_q_mode5EL9ap_o_mode3ELi0EEclEii = comdat any

$_ZN11ap_int_baseILi62ELb0EEclEii = comdat any

$_ZN12ap_range_refILi62ELb0EEaSILi124ELi0ELb0EL9ap_q_mode5EL9ap_o_mode3ELi0EEERS0_RK12af_range_refIXT_EXT0_EXT1_EXT2_EXT3_EXT4_EE = comdat any

$_ZN11ap_int_baseILi62ELb0EEixEi = comdat any

$_ZN10ap_bit_refILi62ELb0EEaSEi = comdat any

$_ZNK11ap_int_baseILi62ELb0EE17countLeadingZerosEv = comdat any

$_ZN11ap_int_baseILi64ELb0EEC2Ey = comdat any

$_ZN10ap_bit_refILi62ELb0EEC2EP11ap_int_baseILi62ELb0EEi = comdat any

$_ZN11ap_int_baseILi124ELb0EEC2ILi124ELi0ELb0EL9ap_q_mode5EL9ap_o_mode3ELi0EEERK12af_range_refIXT_EXT0_EXT1_EXT2_EXT3_EXT4_EE = comdat any

$_ZN12ap_range_refILi62ELb0EEaSILi124ELb0EEERS0_RK11ap_int_baseIXT_EXT0_EE = comdat any

$_ZN11ap_int_baseILi62ELb0EEC2ILi124ELb0EEERKS_IXT_EXT0_EE = comdat any

$_ZN8ssdm_intILi62ELb0EEC2EDq62_j = comdat any

$_ZNK12af_range_refILi124ELi0ELb0EL9ap_q_mode5EL9ap_o_mode3ELi0EE3getEv = comdat any

$_ZN11ap_int_baseILi62ELb0EE5rangeEii = comdat any

$_ZN12ap_range_refILi62ELb0EEC2EP11ap_int_baseILi62ELb0EEii = comdat any

$_ZN13ap_fixed_baseILi124ELi0ELb0EL9ap_q_mode5EL9ap_o_mode3ELi0EE5rangeEii = comdat any

$_ZN12af_range_refILi124ELi0ELb0EL9ap_q_mode5EL9ap_o_mode3ELi0EEC2EP13ap_fixed_baseILi124ELi0ELb0ELS0_5ELS1_3ELi0EEii = comdat any

$_ZN13ap_fixed_baseILi124ELi0ELb0EL9ap_q_mode5EL9ap_o_mode3ELi0EEC2ILi157ELi33ELb1ELS0_5ELS1_3ELi0EEERKS_IXT_EXT0_EXT1_EXT2_EXT3_EXT4_EE = comdat any

$_ZN8ssdm_intILi124ELb0EEC2EDq124_j = comdat any

$_ZN13ap_fixed_baseILi124ELi0ELb0EL9ap_q_mode5EL9ap_o_mode3ELi0EEaSILi157ELi33ELb1ELS0_5ELS1_3ELi0EEERS2_RKS_IXT_EXT0_EXT1_EXT2_EXT3_EXT4_EE = comdat any

$_ZN13ap_fixed_baseILi124ELi0ELb0EL9ap_q_mode5EL9ap_o_mode3ELi0EE6reportEv = comdat any

$_ZNK13ap_fixed_baseILi157ELi33ELb1EL9ap_q_mode5EL9ap_o_mode3ELi0EEntEv = comdat any

$_ZNK13ap_fixed_baseILi32ELi32ELb1EL9ap_q_mode5EL9ap_o_mode3ELi0EEmiILi124ELi0ELb0ELS0_5ELS1_3ELi0EEENS2_5RTypeIXT_EXT0_EXT1_EE5minusERKS_IXT_EXT0_EXT1_EXT2_EXT3_EXT4_EE = comdat any

$_ZN13ap_fixed_baseILi157ELi33ELb1EL9ap_q_mode5EL9ap_o_mode3ELi0EEC2Ei = comdat any

$_ZN13ap_fixed_baseILi157ELi33ELb1EL9ap_q_mode5EL9ap_o_mode3ELi0EEC2ILi32ELi32ELb1ELS0_5ELS1_3ELi0EEERKS_IXT_EXT0_EXT1_EXT2_EXT3_EXT4_EE = comdat any

$_ZN13ap_fixed_baseILi157ELi33ELb1EL9ap_q_mode5EL9ap_o_mode3ELi0EEC2ILi124ELi0ELb0ELS0_5ELS1_3ELi0EEERKS_IXT_EXT0_EXT1_EXT2_EXT3_EXT4_EE = comdat any

$_ZN8ap_fixedILi157ELi33EL9ap_q_mode5EL9ap_o_mode3ELi0EEC2ILi157ELi33ELb1ELS0_5ELS1_3ELi0EEERK13ap_fixed_baseIXT_EXT0_EXT1_EXT2_EXT3_EXT4_EE = comdat any

$_ZN8ssdm_intILi157ELb1EEC2EDq157_i = comdat any

$_ZN13ap_fixed_baseILi157ELi33ELb1EL9ap_q_mode5EL9ap_o_mode3ELi0EEaSILi124ELi0ELb0ELS0_5ELS1_3ELi0EEERS2_RKS_IXT_EXT0_EXT1_EXT2_EXT3_EXT4_EE = comdat any

$_ZN13ap_fixed_baseILi157ELi33ELb1EL9ap_q_mode5EL9ap_o_mode3ELi0EE6reportEv = comdat any

$_ZN13ap_fixed_baseILi157ELi33ELb1EL9ap_q_mode5EL9ap_o_mode3ELi0EEaSILi32ELi32ELb1ELS0_5ELS1_3ELi0EEERS2_RKS_IXT_EXT0_EXT1_EXT2_EXT3_EXT4_EE = comdat any

$_ZNK10ap_bit_refILi3ELb0EEcvbEv = comdat any

$_ZN10ap_bit_refILi3ELb0EEC2EP11ap_int_baseILi3ELb0EEi = comdat any

$_ZN11ap_int_baseILi3ELb0EEC2ILi223ELi56ELb0EL9ap_q_mode5EL9ap_o_mode3ELi0EEERK13ap_fixed_baseIXT_EXT0_EXT1_EXT2_EXT3_EXT4_EE = comdat any

$_ZNK13ap_fixed_baseILi223ELi56ELb0EL9ap_q_mode5EL9ap_o_mode3ELi0EE20checkOverflowCsimFixEib = comdat any

$_ZNK13ap_fixed_baseILi223ELi56ELb0EL9ap_q_mode5EL9ap_o_mode3ELi0EE14to_ap_int_baseEb = comdat any

$_ZN11ap_int_baseILi56ELb0EEC2Ei = comdat any

$_ZN11ap_int_baseILi3ELb0EEC2Ei = comdat any

$_ZN11ap_int_baseILi3ELb0EE18checkOverflowBaseCIiEEvT_ = comdat any

$_ZN8ssdm_intILi3ELb0EEC2EDq3_j = comdat any

$_ZN13ap_fixed_baseILi124ELi0ELb0EL9ap_q_mode5EL9ap_o_mode3ELi0EEC2ILi223ELi56ELb0ELS0_5ELS1_3ELi0EEERKS_IXT_EXT0_EXT1_EXT2_EXT3_EXT4_EE = comdat any

$_ZN13ap_fixed_baseILi124ELi0ELb0EL9ap_q_mode5EL9ap_o_mode3ELi0EEaSILi223ELi56ELb0ELS0_5ELS1_3ELi0EEERS2_RKS_IXT_EXT0_EXT1_EXT2_EXT3_EXT4_EE = comdat any

$_ZNK13ap_fixed_baseILi223ELi56ELb0EL9ap_q_mode5EL9ap_o_mode3ELi0EEntEv = comdat any

$_ZN11ap_int_baseILi223ELb0EEC2ILi223ELb0EEERK12ap_range_refIXT_EXT0_EE = comdat any

$_ZN12af_range_refILi223ELi56ELb0EL9ap_q_mode5EL9ap_o_mode3ELi0EEaSILi223ELb0EEERS2_RK11ap_int_baseIXT_EXT0_EE = comdat any

$_ZNK12ap_range_refILi223ELb0EE3getEv = comdat any

$_ZN13ap_fixed_baseILi223ELi56ELb0EL9ap_q_mode5EL9ap_o_mode3ELi0EE5rangeEii = comdat any

$_ZN12af_range_refILi223ELi56ELb0EL9ap_q_mode5EL9ap_o_mode3ELi0EEC2EP13ap_fixed_baseILi223ELi56ELb0ELS0_5ELS1_3ELi0EEii = comdat any

$_ZN11ap_int_baseILi223ELb0EE5rangeEii = comdat any

$_ZN12ap_range_refILi223ELb0EEC2EP11ap_int_baseILi223ELb0EEii = comdat any

$_ZN11ap_int_baseILi223ELb0EEC2ILi170ELb0EEERKS_IXT_EXT0_EE = comdat any

$_ZN11ap_int_baseILi223ELb0EEC2ILi53ELb0EEERKS_IXT_EXT0_EE = comdat any

$_ZN11ap_int_baseILi223ELb0EEC2Ei = comdat any

$_ZN7ap_uintILi223EEC2ILi223ELb0EEERK11ap_int_baseIXT_EXT0_EE = comdat any

$_ZN8ssdm_intILi223ELb0EEC2EDq223_j = comdat any

$_ZN6ap_intILi12EEC2Ei = comdat any

$_ZN11ap_int_baseILi12ELb1EEclEii = comdat any

$_ZNK12ap_range_refILi12ELb1EEcvyEv = comdat any

$_ZN7ap_uintILi7EEC2ILi12ELb1EEERK12ap_range_refIXT_EXT0_EE = comdat any

$_ZNK11ap_int_baseILi256ELb0EElsILi7EEE7ap_uintILi256EERKS_IXT_ELb0EE = comdat any

$_ZN11ap_int_baseILi256ELb0EEclEii = comdat any

$_ZN7ap_uintILi170EEC2ILi256ELb0EEERK12ap_range_refIXT_EXT0_EE = comdat any

$_ZltILi12ELb1EEbRK11ap_int_baseIXT_EXT0_EEi = comdat any

$_ZN7ap_uintILi170EEC2Ei = comdat any

$_ZN11ap_int_baseILi170ELb0EEC2Ei = comdat any

$_ZN11ap_int_baseILi170ELb0EE18checkOverflowBaseCIiEEvT_ = comdat any

$_ZN8ssdm_intILi170ELb0EEC2EDq170_j = comdat any

$_ZNK11ap_int_baseILi12ELb1EEltILi32ELb1EEEbRKS_IXT_EXT0_EE = comdat any

$_ZN11ap_int_baseILi170ELb0EEC2ILi256ELb0EEERK12ap_range_refIXT_EXT0_EE = comdat any

$_ZNK12ap_range_refILi256ELb0EE3getEv = comdat any

$_ZN11ap_int_baseILi256ELb0EE5rangeEii = comdat any

$_ZN12ap_range_refILi256ELb0EEC2EP11ap_int_baseILi256ELb0EEii = comdat any

$_ZN11ap_int_baseILi256ELb0EEC2Ei = comdat any

$_ZN7ap_uintILi256EEC2ILi256ELb0EEERK11ap_int_baseIXT_EXT0_EE = comdat any

$_ZN8ssdm_intILi256ELb0EEC2EDq256_j = comdat any

$_ZN11ap_int_baseILi7ELb0EEC2ILi12ELb1EEERK12ap_range_refIXT_EXT0_EE = comdat any

$_ZNK12ap_range_refILi12ELb1EE3getEv = comdat any

$_ZNK12ap_range_refILi12ELb1EE9to_uint64Ev = comdat any

$_ZN11ap_int_baseILi12ELb1EE5rangeEii = comdat any

$_ZN12ap_range_refILi12ELb1EEC2EP11ap_int_baseILi12ELb1EEii = comdat any

$_ZN11ap_int_baseILi12ELb1EE18checkOverflowBaseCIiEEvT_ = comdat any

$_ZN10ap_bit_refILi53ELb0EEC2EP11ap_int_baseILi53ELb0EEi = comdat any

$_ZN12ap_range_refILi53ELb0EEaSILi52ELb0EEERS0_RK11ap_int_baseIXT_EXT0_EE = comdat any

$_ZN11ap_int_baseILi53ELb0EEC2ILi52ELb0EEERKS_IXT_EXT0_EE = comdat any

$_ZN11ap_int_baseILi53ELb0EE5rangeEii = comdat any

$_ZN12ap_range_refILi53ELb0EEC2EP11ap_int_baseILi53ELb0EEii = comdat any

$_ZN11ap_int_baseILi52ELb0EE5rangeEii = comdat any

$_ZNK11ap_int_baseILi11ELb0EEltILi32ELb1EEEbRKS_IXT_EXT0_EE = comdat any

$"_ZmiILi11ELb0EEN11ap_int_baseIXT_EXT0_EE5RTypeIXL3$_032EEXLb1EEE5minusERKS1_i" = comdat any

$_ZNK11ap_int_baseILi33ELb1EEcvxEv = comdat any

$_ZmiILi11ELb0ELi32ELb1EEN11ap_int_baseIXT_EXT0_EE5RTypeIXT1_EXT2_EE5minusERKS1_RKS0_IXT1_EXT2_EE = comdat any

$_ZN11ap_int_baseILi33ELb1EEC2ILi11ELb0EEERKS_IXT_EXT0_EE = comdat any

$_ZN11ap_int_baseILi33ELb1EEC2ILi32ELb1EEERKS_IXT_EXT0_EE = comdat any

$_ZN11ap_int_baseILi33ELb1EEC2Ei = comdat any

$_ZN6ap_intILi33EEC2ILi33ELb1EEERK11ap_int_baseIXT_EXT0_EE = comdat any

$_ZN8ssdm_intILi33ELb1EEC2EDq33_i = comdat any

$_ZN7ap_uintILi223EEC2ILi53EEERKS_IXT_EE = comdat any

$_ZlSILi223ELb0EER11ap_int_baseIXT_EXT0_EES2_i = comdat any

$_ZN9ap_ufixedILi124ELi1EL9ap_q_mode5EL9ap_o_mode3ELi0EEC2ILi223ELi56ELb0ELS0_5ELS1_3ELi0EEERK13ap_fixed_baseIXT_EXT0_EXT1_EXT2_EXT3_EXT4_EE = comdat any

$_ZeqILi124ELi1ELb0EL9ap_q_mode5EL9ap_o_mode3ELi0EEbRK13ap_fixed_baseIXT_EXT0_EXT1_EXT2_EXT3_EXT4_EEi = comdat any

$_ZNK13ap_fixed_baseILi124ELi1ELb0EL9ap_q_mode5EL9ap_o_mode3ELi0EEeqILi32ELi32ELb1ELS0_5ELS1_3ELi0EEEbRKS_IXT_EXT0_EXT1_EXT2_EXT3_EXT4_EE = comdat any

$_ZN13ap_fixed_baseILi155ELi32ELb1EL9ap_q_mode5EL9ap_o_mode3ELi0EEC2ILi32ELi32ELb1ELS0_5ELS1_3ELi0EEERKS_IXT_EXT0_EXT1_EXT2_EXT3_EXT4_EE = comdat any

$_ZN8ssdm_intILi155ELb1EEC2EDq155_i = comdat any

$_ZN13ap_fixed_baseILi155ELi32ELb1EL9ap_q_mode5EL9ap_o_mode3ELi0EEaSILi32ELi32ELb1ELS0_5ELS1_3ELi0EEERS2_RKS_IXT_EXT0_EXT1_EXT2_EXT3_EXT4_EE = comdat any

$_ZN13ap_fixed_baseILi155ELi32ELb1EL9ap_q_mode5EL9ap_o_mode3ELi0EE6reportEv = comdat any

$_ZN13ap_fixed_baseILi124ELi1ELb0EL9ap_q_mode5EL9ap_o_mode3ELi0EEC2ILi223ELi56ELb0ELS0_5ELS1_3ELi0EEERKS_IXT_EXT0_EXT1_EXT2_EXT3_EXT4_EE = comdat any

$_ZN13ap_fixed_baseILi124ELi1ELb0EL9ap_q_mode5EL9ap_o_mode3ELi0EEaSILi223ELi56ELb0ELS0_5ELS1_3ELi0EEERS2_RKS_IXT_EXT0_EXT1_EXT2_EXT3_EXT4_EE = comdat any

$_ZN13ap_fixed_baseILi124ELi1ELb0EL9ap_q_mode5EL9ap_o_mode3ELi0EE6reportEv = comdat any

$_ZN11ap_int_baseILi223ELb0EElSILi32EEERS0_RKS_IXT_ELb1EE = comdat any

$_ZN11ap_int_baseILi32ELb0EEC2ILi32ELb1EEERKS_IXT_EXT0_EE = comdat any

$_ZNK11ap_int_baseILi32ELb1EEngEv = comdat any

$_ZN11ap_int_baseILi32ELb0EEaSILi33ELb1EEERS0_RKS_IXT_EXT0_EE = comdat any

$_ZN11ap_int_baseILi223ELb0EErSILi32EEERS0_RKS_IXT_ELb0EE = comdat any

$_ZN11ap_int_baseILi223ELb0EElSILi32EEERS0_RKS_IXT_ELb0EE = comdat any

$_ZmiILi1ELb0ELi32ELb1EEN11ap_int_baseIXT_EXT0_EE5RTypeIXT1_EXT2_EE5minusERKS1_RKS0_IXT1_EXT2_EE = comdat any

$_ZN11ap_int_baseILi33ELb1EEC2ILi1ELb0EEERKS_IXT_EXT0_EE = comdat any

$_ZNK11ap_int_baseILi53ELb0EE17checkOverflowCsimEibb = comdat any

$_ZN7ap_uintILi64EEC2Em = comdat any

$_ZN10ap_bit_refILi1ELb0EEaSILi64ELb0EEERS0_RKS_IXT_EXT0_EE = comdat any

$_ZN11ap_int_baseILi11ELb0EEclEii = comdat any

$_ZN12ap_range_refILi11ELb0EEaSILi64ELb0EEERS0_RKS_IXT_EXT0_EE = comdat any

$_ZN12ap_range_refILi52ELb0EEaSILi64ELb0EEERS0_RKS_IXT_EXT0_EE = comdat any

$_ZN11ap_int_baseILi64ELb0EEC2ILi64ELb0EEERK12ap_range_refIXT_EXT0_EE = comdat any

$_ZN12ap_range_refILi52ELb0EEaSILi64ELb0EEERS0_RK11ap_int_baseIXT_EXT0_EE = comdat any

$_ZN11ap_int_baseILi52ELb0EEC2ILi64ELb0EEERKS_IXT_EXT0_EE = comdat any

$_ZNK12ap_range_refILi64ELb0EE3getEv = comdat any

$_ZN12ap_range_refILi11ELb0EEaSILi64ELb0EEERS0_RK11ap_int_baseIXT_EXT0_EE = comdat any

$_ZN11ap_int_baseILi11ELb0EEC2ILi64ELb0EEERKS_IXT_EXT0_EE = comdat any

$_ZN11ap_int_baseILi11ELb0EE5rangeEii = comdat any

$_ZNK10ap_bit_refILi64ELb0EEcvbEv = comdat any

$_ZN10ap_bit_refILi1ELb0EEaSEy = comdat any

$_ZN11ap_int_baseILi64ELb0EEC2Em = comdat any

$_ZN11ap_int_baseILi64ELb0EE18checkOverflowBaseCImEEvT_ = comdat any

@llvm.global_ctors = appending global [2 x { i32, void ()*, i8* }] [{ i32, void ()*, i8* } { i32 65535, void ()* @_GLOBAL__sub_I_sincoshotbmdouble.pp.cpp, i8* null }, { i32, void ()*, i8* } { i32 65535, void ()* @_GLOBAL__sub_I_hls_hotbm_double.pp.cpp, i8* null }]
@_ZN19fourth_order_doubleL10sin_cos_K4E = internal global [256 x %"struct.ap_fixed<26, 9, AP_TRN, AP_WRAP, 0>"] zeroinitializer, align 4
@.str.2218 = private unnamed_addr constant [14 x i8] c"0x4.0f0674p-8\00", align 1
@.str.2219 = private unnamed_addr constant [14 x i8] c"0x4.0efc1cp-8\00", align 1
@.str.2220.48156 = private unnamed_addr constant [14 x i8] c"0x4.0ee824p-8\00", align 1
@.str.2221 = private unnamed_addr constant [14 x i8] c"0x4.0eca54p-8\00", align 1
@.str.2222 = private unnamed_addr constant [14 x i8] c"0x4.0ea214p-8\00", align 1
@.str.2223 = private unnamed_addr constant [14 x i8] c"0x4.0e705cp-8\00", align 1
@.str.2224.48157 = private unnamed_addr constant [13 x i8] c"0x4.0e342p-8\00", align 1
@.str.2225 = private unnamed_addr constant [14 x i8] c"0x4.0dedc8p-8\00", align 1
@.str.2226 = private unnamed_addr constant [14 x i8] c"0x4.0d9de4p-8\00", align 1
@.str.2227 = private unnamed_addr constant [14 x i8] c"0x4.0d4398p-8\00", align 1
@.str.2228 = private unnamed_addr constant [14 x i8] c"0x4.0cdf98p-8\00", align 1
@.str.2229 = private unnamed_addr constant [14 x i8] c"0x4.0c7214p-8\00", align 1
@.str.2230 = private unnamed_addr constant [14 x i8] c"0x4.0bf9e8p-8\00", align 1
@.str.2231 = private unnamed_addr constant [13 x i8] c"0x4.0b77ap-8\00", align 1
@.str.2232 = private unnamed_addr constant [13 x i8] c"0x4.0aebbp-8\00", align 1
@.str.2233 = private unnamed_addr constant [13 x i8] c"0x4.0a558p-8\00", align 1
@.str.2234 = private unnamed_addr constant [14 x i8] c"0x4.09b5d8p-8\00", align 1
@.str.2235 = private unnamed_addr constant [14 x i8] c"0x4.090b8cp-8\00", align 1
@.str.2236 = private unnamed_addr constant [14 x i8] c"0x4.0857b4p-8\00", align 1
@.str.2237 = private unnamed_addr constant [14 x i8] c"0x4.079a0cp-8\00", align 1
@.str.2238 = private unnamed_addr constant [14 x i8] c"0x4.06d1fcp-8\00", align 1
@.str.2239 = private unnamed_addr constant [13 x i8] c"0x4.06007p-8\00", align 1
@.str.2240 = private unnamed_addr constant [14 x i8] c"0x4.0524e4p-8\00", align 1
@.str.2241 = private unnamed_addr constant [13 x i8] c"0x4.043f1p-8\00", align 1
@.str.2242 = private unnamed_addr constant [14 x i8] c"0x4.034facp-8\00", align 1
@.str.2243 = private unnamed_addr constant [12 x i8] c"0x4.0256p-8\00", align 1
@.str.2244 = private unnamed_addr constant [14 x i8] c"0x4.0152c4p-8\00", align 1
@.str.2245 = private unnamed_addr constant [14 x i8] c"0x4.004614p-8\00", align 1
@.str.2246 = private unnamed_addr constant [14 x i8] c"0x3.ff2f04p-8\00", align 1
@.str.2247 = private unnamed_addr constant [13 x i8] c"0x3.fe0d9p-8\00", align 1
@.str.2248 = private unnamed_addr constant [14 x i8] c"0x3.fce384p-8\00", align 1
@.str.2249 = private unnamed_addr constant [14 x i8] c"0x3.fbae74p-8\00", align 1
@.str.2250 = private unnamed_addr constant [14 x i8] c"0x3.fa7048p-8\00", align 1
@.str.2251 = private unnamed_addr constant [14 x i8] c"0x3.f927e8p-8\00", align 1
@.str.2252 = private unnamed_addr constant [14 x i8] c"0x3.f7d5d8p-8\00", align 1
@.str.2253 = private unnamed_addr constant [14 x i8] c"0x3.f67a18p-8\00", align 1
@.str.2254 = private unnamed_addr constant [14 x i8] c"0x3.f514d8p-8\00", align 1
@.str.2255 = private unnamed_addr constant [13 x i8] c"0x3.f3a4fp-8\00", align 1
@.str.2256 = private unnamed_addr constant [14 x i8] c"0x3.f22bc8p-8\00", align 1
@.str.2257 = private unnamed_addr constant [14 x i8] c"0x3.f0a938p-8\00", align 1
@.str.2258 = private unnamed_addr constant [13 x i8] c"0x3.ef1c7p-8\00", align 1
@.str.2259 = private unnamed_addr constant [14 x i8] c"0x3.ed8644p-8\00", align 1
@.str.2260 = private unnamed_addr constant [14 x i8] c"0x3.ebe6b4p-8\00", align 1
@.str.2261 = private unnamed_addr constant [13 x i8] c"0x3.ea3c7p-8\00", align 1
@.str.2262 = private unnamed_addr constant [14 x i8] c"0x3.e8897cp-8\00", align 1
@.str.2263 = private unnamed_addr constant [13 x i8] c"0x3.e6cc5p-8\00", align 1
@.str.2264 = private unnamed_addr constant [14 x i8] c"0x3.e5062cp-8\00", align 1
@.str.2265 = private unnamed_addr constant [13 x i8] c"0x3.e335cp-8\00", align 1
@.str.2266 = private unnamed_addr constant [14 x i8] c"0x3.e15becp-8\00", align 1
@.str.2267 = private unnamed_addr constant [14 x i8] c"0x3.df7898p-8\00", align 1
@.str.2268 = private unnamed_addr constant [14 x i8] c"0x3.dd8b6cp-8\00", align 1
@.str.2269 = private unnamed_addr constant [14 x i8] c"0x3.db94f8p-8\00", align 1
@.str.2270 = private unnamed_addr constant [14 x i8] c"0x3.d99538p-8\00", align 1
@.str.2271 = private unnamed_addr constant [14 x i8] c"0x3.d78b98p-8\00", align 1
@.str.2272 = private unnamed_addr constant [13 x i8] c"0x3.d578dp-8\00", align 1
@.str.2273 = private unnamed_addr constant [14 x i8] c"0x3.d35c8cp-8\00", align 1
@.str.2274 = private unnamed_addr constant [13 x i8] c"0x3.d136cp-8\00", align 1
@.str.2275 = private unnamed_addr constant [14 x i8] c"0x3.cf07a8p-8\00", align 1
@.str.2276 = private unnamed_addr constant [14 x i8] c"0x3.cccec4p-8\00", align 1
@.str.2277 = private unnamed_addr constant [14 x i8] c"0x3.ca8ce8p-8\00", align 1
@.str.2278 = private unnamed_addr constant [14 x i8] c"0x3.c84108p-8\00", align 1
@.str.2279 = private unnamed_addr constant [13 x i8] c"0x3.c5ecbp-8\00", align 1
@.str.2280 = private unnamed_addr constant [14 x i8] c"0x3.c38e6cp-8\00", align 1
@.str.2281 = private unnamed_addr constant [13 x i8] c"0x3.c1279p-8\00", align 1
@.str.2282 = private unnamed_addr constant [14 x i8] c"0x3.beb6b8p-8\00", align 1
@.str.2283 = private unnamed_addr constant [14 x i8] c"0x3.bc3cccp-8\00", align 1
@.str.2284 = private unnamed_addr constant [14 x i8] c"0x3.b9b9c4p-8\00", align 1
@.str.2285 = private unnamed_addr constant [14 x i8] c"0x3.b72dd4p-8\00", align 1
@.str.2286.48158 = private unnamed_addr constant [14 x i8] c"0x3.b4985cp-8\00", align 1
@.str.2287.35 = private unnamed_addr constant [14 x i8] c"0x3.b1f9acp-8\00", align 1
@.str.2288 = private unnamed_addr constant [14 x i8] c"0x3.af5228p-8\00", align 1
@.str.2289.48159 = private unnamed_addr constant [13 x i8] c"0x3.aca0fp-8\00", align 1
@.str.2290 = private unnamed_addr constant [13 x i8] c"0x3.a9e7dp-8\00", align 1
@.str.2291 = private unnamed_addr constant [14 x i8] c"0x3.a7245cp-8\00", align 1
@.str.2292 = private unnamed_addr constant [14 x i8] c"0x3.a458e8p-8\00", align 1
@.str.2293 = private unnamed_addr constant [14 x i8] c"0x3.a183fcp-8\00", align 1
@.str.2294 = private unnamed_addr constant [12 x i8] c"0x3.9ea6p-8\00", align 1
@.str.2295 = private unnamed_addr constant [14 x i8] c"0x3.9bbf58p-8\00", align 1
@.str.2296 = private unnamed_addr constant [14 x i8] c"0x3.98cfc4p-8\00", align 1
@.str.2297 = private unnamed_addr constant [14 x i8] c"0x3.95d6f4p-8\00", align 1
@.str.2298 = private unnamed_addr constant [14 x i8] c"0x3.92d5f4p-8\00", align 1
@.str.2299 = private unnamed_addr constant [14 x i8] c"0x3.8fcbacp-8\00", align 1
@.str.2300 = private unnamed_addr constant [14 x i8] c"0x3.8cb8acp-8\00", align 1
@.str.2301 = private unnamed_addr constant [13 x i8] c"0x3.899cep-8\00", align 1
@.str.2302 = private unnamed_addr constant [14 x i8] c"0x3.867894p-8\00", align 1
@.str.2303 = private unnamed_addr constant [14 x i8] c"0x3.834b04p-8\00", align 1
@.str.2304 = private unnamed_addr constant [14 x i8] c"0x3.801568p-8\00", align 1
@.str.2305 = private unnamed_addr constant [13 x i8] c"0x3.7cd6ep-8\00", align 1
@.str.2306 = private unnamed_addr constant [14 x i8] c"0x3.798fccp-8\00", align 1
@.str.2307 = private unnamed_addr constant [14 x i8] c"0x3.76405cp-8\00", align 1
@.str.2308 = private unnamed_addr constant [13 x i8] c"0x3.72e82p-8\00", align 1
@.str.2309 = private unnamed_addr constant [14 x i8] c"0x3.6f878cp-8\00", align 1
@.str.2310 = private unnamed_addr constant [14 x i8] c"0x3.6c1e04p-8\00", align 1
@.str.2311 = private unnamed_addr constant [14 x i8] c"0x3.68acb4p-8\00", align 1
@.str.2312 = private unnamed_addr constant [14 x i8] c"0x3.65329cp-8\00", align 1
@.str.2313 = private unnamed_addr constant [14 x i8] c"0x3.61b058p-8\00", align 1
@.str.2314 = private unnamed_addr constant [13 x i8] c"0x3.5e25ap-8\00", align 1
@.str.2315 = private unnamed_addr constant [14 x i8] c"0x3.5a922cp-8\00", align 1
@.str.2316 = private unnamed_addr constant [14 x i8] c"0x3.56f704p-8\00", align 1
@.str.2317 = private unnamed_addr constant [13 x i8] c"0x3.53535p-8\00", align 1
@.str.2318 = private unnamed_addr constant [14 x i8] c"0x3.4fa7d8p-8\00", align 1
@.str.2319 = private unnamed_addr constant [14 x i8] c"0x3.4bf3e4p-8\00", align 1
@.str.2320 = private unnamed_addr constant [13 x i8] c"0x3.4837bp-8\00", align 1
@.str.2321 = private unnamed_addr constant [14 x i8] c"0x3.4473acp-8\00", align 1
@.str.2322 = private unnamed_addr constant [14 x i8] c"0x3.40a728p-8\00", align 1
@.str.2323 = private unnamed_addr constant [14 x i8] c"0x3.3cd2ecp-8\00", align 1
@.str.2324 = private unnamed_addr constant [13 x i8] c"0x3.38f68p-8\00", align 1
@.str.2325 = private unnamed_addr constant [14 x i8] c"0x3.351274p-8\00", align 1
@.str.2326 = private unnamed_addr constant [14 x i8] c"0x3.3126acp-8\00", align 1
@.str.2327 = private unnamed_addr constant [13 x i8] c"0x3.2d323p-8\00", align 1
@.str.2328 = private unnamed_addr constant [14 x i8] c"0x3.293678p-8\00", align 1
@.str.2329 = private unnamed_addr constant [14 x i8] c"0x3.2532a4p-8\00", align 1
@.str.2330 = private unnamed_addr constant [13 x i8] c"0x3.2127cp-8\00", align 1
@.str.2331 = private unnamed_addr constant [14 x i8] c"0x3.1d14acp-8\00", align 1
@.str.2332 = private unnamed_addr constant [14 x i8] c"0x3.18f958p-8\00", align 1
@.str.2333 = private unnamed_addr constant [13 x i8] c"0x3.14d77p-8\00", align 1
@.str.2334 = private unnamed_addr constant [14 x i8] c"0x3.10ad0cp-8\00", align 1
@.str.2335 = private unnamed_addr constant [14 x i8] c"0x3.0c7b7cp-8\00", align 1
@.str.2336 = private unnamed_addr constant [14 x i8] c"0x3.08423cp-8\00", align 1
@.str.2337 = private unnamed_addr constant [14 x i8] c"0x3.0401ccp-8\00", align 1
@.str.2338 = private unnamed_addr constant [14 x i8] c"0x2.ffb99cp-8\00", align 1
@.str.2339 = private unnamed_addr constant [14 x i8] c"0x2.fb6a48p-8\00", align 1
@.str.2340 = private unnamed_addr constant [14 x i8] c"0x2.f713acp-8\00", align 1
@.str.2341 = private unnamed_addr constant [14 x i8] c"0x2.f2b534p-8\00", align 1
@.str.2342 = private unnamed_addr constant [14 x i8] c"0x2.ee4ffcp-8\00", align 1
@.str.2343 = private unnamed_addr constant [12 x i8] c"0x2.e9e3p-8\00", align 1
@.str.2344 = private unnamed_addr constant [14 x i8] c"0x2.e56f5cp-8\00", align 1
@.str.2345 = private unnamed_addr constant [14 x i8] c"0x2.e0f464p-8\00", align 1
@.str.2346 = private unnamed_addr constant [13 x i8] c"0xa.335bp-12\00", align 1
@.str.2347 = private unnamed_addr constant [14 x i8] c"0xa.33498p-12\00", align 1
@.str.2348 = private unnamed_addr constant [14 x i8] c"0xa.33288p-12\00", align 1
@.str.2349 = private unnamed_addr constant [12 x i8] c"0xa.32fp-12\00", align 1
@.str.2350 = private unnamed_addr constant [13 x i8] c"0xa.32a7p-12\00", align 1
@.str.2351 = private unnamed_addr constant [14 x i8] c"0xa.324ccp-12\00", align 1
@.str.2352 = private unnamed_addr constant [14 x i8] c"0xa.31e5cp-12\00", align 1
@.str.2353 = private unnamed_addr constant [14 x i8] c"0xa.31638p-12\00", align 1
@.str.2354 = private unnamed_addr constant [14 x i8] c"0xa.30d94p-12\00", align 1
@.str.2355 = private unnamed_addr constant [14 x i8] c"0xa.30344p-12\00", align 1
@.str.2356 = private unnamed_addr constant [14 x i8] c"0xa.2f808p-12\00", align 1
@.str.2357 = private unnamed_addr constant [14 x i8] c"0xa.2eb5cp-12\00", align 1
@.str.1173.48160 = private unnamed_addr constant [14 x i8] c"0xa.2de48p-12\00", align 1
@.str.2358 = private unnamed_addr constant [13 x i8] c"0xa.2cf8p-12\00", align 1
@.str.2359 = private unnamed_addr constant [14 x i8] c"0xa.2bfc4p-12\00", align 1
@.str.2360 = private unnamed_addr constant [14 x i8] c"0xa.2af14p-12\00", align 1
@.str.2361 = private unnamed_addr constant [13 x i8] c"0xa.29d2p-12\00", align 1
@.str.2362 = private unnamed_addr constant [12 x i8] c"0xa.28ap-12\00", align 1
@.str.2363 = private unnamed_addr constant [14 x i8] c"0xa.275bcp-12\00", align 1
@.str.1180.48161 = private unnamed_addr constant [14 x i8] c"0xa.2604cp-12\00", align 1
@.str.2364 = private unnamed_addr constant [14 x i8] c"0xa.24a18p-12\00", align 1
@.str.2365 = private unnamed_addr constant [14 x i8] c"0xa.2326cp-12\00", align 1
@.str.2366 = private unnamed_addr constant [13 x i8] c"0xa.219cp-12\00", align 1
@.str.2367 = private unnamed_addr constant [14 x i8] c"0xa.2005cp-12\00", align 1
@.str.2368 = private unnamed_addr constant [14 x i8] c"0xa.1e514p-12\00", align 1
@.str.2369 = private unnamed_addr constant [14 x i8] c"0xa.1c914p-12\00", align 1
@.str.2370 = private unnamed_addr constant [14 x i8] c"0xa.1abacp-12\00", align 1
@.str.2371 = private unnamed_addr constant [14 x i8] c"0xa.18df8p-12\00", align 1
@.str.2372 = private unnamed_addr constant [14 x i8] c"0xa.16e88p-12\00", align 1
@.str.2373 = private unnamed_addr constant [13 x i8] c"0xa.14dfp-12\00", align 1
@.str.2374 = private unnamed_addr constant [14 x i8] c"0xa.12c5cp-12\00", align 1
@.str.2375 = private unnamed_addr constant [14 x i8] c"0xa.109e4p-12\00", align 1
@.str.2376 = private unnamed_addr constant [14 x i8] c"0xa.0e5dcp-12\00", align 1
@.str.2377 = private unnamed_addr constant [14 x i8] c"0xa.0c10cp-12\00", align 1
@.str.2378 = private unnamed_addr constant [13 x i8] c"0xa.09b6p-12\00", align 1
@.str.2379 = private unnamed_addr constant [14 x i8] c"0xa.07434p-12\00", align 1
@.str.2380 = private unnamed_addr constant [14 x i8] c"0xa.04c14p-12\00", align 1
@.str.2381 = private unnamed_addr constant [13 x i8] c"0xa.0225p-12\00", align 1
@.str.2382 = private unnamed_addr constant [14 x i8] c"0x9.ff7ecp-12\00", align 1
@.str.2383 = private unnamed_addr constant [13 x i8] c"0x9.fccap-12\00", align 1
@.str.2384 = private unnamed_addr constant [14 x i8] c"0x9.fa014p-12\00", align 1
@.str.2385 = private unnamed_addr constant [14 x i8] c"0x9.f7264p-12\00", align 1
@.str.2386 = private unnamed_addr constant [14 x i8] c"0x9.f4348p-12\00", align 1
@.str.2387 = private unnamed_addr constant [13 x i8] c"0x9.f13ep-12\00", align 1
@.str.2388 = private unnamed_addr constant [14 x i8] c"0x9.ee2b4p-12\00", align 1
@.str.2389 = private unnamed_addr constant [14 x i8] c"0x9.eb054p-12\00", align 1
@.str.2390 = private unnamed_addr constant [14 x i8] c"0x9.e7d5cp-12\00", align 1
@.str.2391 = private unnamed_addr constant [14 x i8] c"0x9.e4954p-12\00", align 1
@.str.2392 = private unnamed_addr constant [14 x i8] c"0x9.e13bcp-12\00", align 1
@.str.2393 = private unnamed_addr constant [13 x i8] c"0x9.ddd6p-12\00", align 1
@.str.2394 = private unnamed_addr constant [13 x i8] c"0x9.da5fp-12\00", align 1
@.str.2395 = private unnamed_addr constant [13 x i8] c"0x9.d6d7p-12\00", align 1
@.str.2396 = private unnamed_addr constant [13 x i8] c"0x9.d33dp-12\00", align 1
@.str.2397 = private unnamed_addr constant [13 x i8] c"0x9.cf8ep-12\00", align 1
@.str.2398 = private unnamed_addr constant [14 x i8] c"0x9.cbd18p-12\00", align 1
@.str.2399 = private unnamed_addr constant [14 x i8] c"0x9.c8048p-12\00", align 1
@.str.2400 = private unnamed_addr constant [14 x i8] c"0x9.c4268p-12\00", align 1
@.str.2401 = private unnamed_addr constant [13 x i8] c"0x9.c035p-12\00", align 1
@.str.2402 = private unnamed_addr constant [13 x i8] c"0x9.bc33p-12\00", align 1
@.str.2403 = private unnamed_addr constant [13 x i8] c"0x9.b823p-12\00", align 1
@.str.2404 = private unnamed_addr constant [14 x i8] c"0x9.b4024p-12\00", align 1
@.str.2405 = private unnamed_addr constant [13 x i8] c"0x9.afc5p-12\00", align 1
@.str.2406 = private unnamed_addr constant [14 x i8] c"0x9.ab848p-12\00", align 1
@.str.2407 = private unnamed_addr constant [14 x i8] c"0x9.a728cp-12\00", align 1
@.str.2408 = private unnamed_addr constant [14 x i8] c"0x9.a2be8p-12\00", align 1
@.str.2409 = private unnamed_addr constant [13 x i8] c"0x9.9e4ap-12\00", align 1
@.str.2410 = private unnamed_addr constant [14 x i8] c"0x9.99c28p-12\00", align 1
@.str.2411 = private unnamed_addr constant [14 x i8] c"0x9.95234p-12\00", align 1
@.str.2412 = private unnamed_addr constant [14 x i8] c"0x9.907d4p-12\00", align 1
@.str.2413 = private unnamed_addr constant [14 x i8] c"0x9.8bb9cp-12\00", align 1
@.str.2414 = private unnamed_addr constant [13 x i8] c"0x9.86f6p-12\00", align 1
@.str.2415 = private unnamed_addr constant [14 x i8] c"0x9.8212cp-12\00", align 1
@.str.2416 = private unnamed_addr constant [14 x i8] c"0x9.7d2c4p-12\00", align 1
@.str.2417 = private unnamed_addr constant [13 x i8] c"0x9.7829p-12\00", align 1
@.str.2418 = private unnamed_addr constant [14 x i8] c"0x9.73184p-12\00", align 1
@.str.2419 = private unnamed_addr constant [14 x i8] c"0x9.6dfc8p-12\00", align 1
@.str.2420 = private unnamed_addr constant [13 x i8] c"0x9.68cbp-12\00", align 1
@.str.2421 = private unnamed_addr constant [13 x i8] c"0x9.638bp-12\00", align 1
@.str.2422 = private unnamed_addr constant [13 x i8] c"0x9.5e35p-12\00", align 1
@.str.2423 = private unnamed_addr constant [13 x i8] c"0x9.58d8p-12\00", align 1
@.str.2424 = private unnamed_addr constant [14 x i8] c"0x9.5368cp-12\00", align 1
@.str.2425 = private unnamed_addr constant [13 x i8] c"0x9.4de2p-12\00", align 1
@.str.2426 = private unnamed_addr constant [14 x i8] c"0x9.484b8p-12\00", align 1
@.str.2427 = private unnamed_addr constant [13 x i8] c"0x9.42adp-12\00", align 1
@.str.2428 = private unnamed_addr constant [14 x i8] c"0x9.3d008p-12\00", align 1
@.str.2429 = private unnamed_addr constant [14 x i8] c"0x9.37398p-12\00", align 1
@.str.2430 = private unnamed_addr constant [14 x i8] c"0x9.31648p-12\00", align 1
@.str.2431 = private unnamed_addr constant [14 x i8] c"0x9.2b828p-12\00", align 1
@.str.2432 = private unnamed_addr constant [14 x i8] c"0x9.25924p-12\00", align 1
@.str.2433 = private unnamed_addr constant [14 x i8] c"0x9.1f8f8p-12\00", align 1
@.str.2434 = private unnamed_addr constant [14 x i8] c"0x9.19798p-12\00", align 1
@.str.2435 = private unnamed_addr constant [14 x i8] c"0x9.13578p-12\00", align 1
@.str.2436 = private unnamed_addr constant [14 x i8] c"0x9.0d25cp-12\00", align 1
@.str.2437 = private unnamed_addr constant [14 x i8] c"0x9.06e3cp-12\00", align 1
@.str.2438 = private unnamed_addr constant [13 x i8] c"0x9.0093p-12\00", align 1
@.str.2439 = private unnamed_addr constant [14 x i8] c"0x8.fa30cp-12\00", align 1
@.str.2440 = private unnamed_addr constant [14 x i8] c"0x8.f3bfcp-12\00", align 1
@.str.2441 = private unnamed_addr constant [14 x i8] c"0x8.ed3acp-12\00", align 1
@.str.2442 = private unnamed_addr constant [13 x i8] c"0x8.e6aap-12\00", align 1
@.str.2443 = private unnamed_addr constant [14 x i8] c"0x8.e00ecp-12\00", align 1
@.str.2444 = private unnamed_addr constant [14 x i8] c"0x8.d95e8p-12\00", align 1
@.str.2445 = private unnamed_addr constant [14 x i8] c"0x8.d29d4p-12\00", align 1
@.str.2446 = private unnamed_addr constant [13 x i8] c"0x8.cbd1p-12\00", align 1
@.str.2447 = private unnamed_addr constant [14 x i8] c"0x8.c4f3cp-12\00", align 1
@.str.2448 = private unnamed_addr constant [14 x i8] c"0x8.be07cp-12\00", align 1
@.str.2449 = private unnamed_addr constant [14 x i8] c"0x8.b70f4p-12\00", align 1
@.str.2450 = private unnamed_addr constant [14 x i8] c"0x8.b0008p-12\00", align 1
@.str.2451 = private unnamed_addr constant [14 x i8] c"0x8.a8e74p-12\00", align 1
@.str.2452 = private unnamed_addr constant [14 x i8] c"0x8.a1bd8p-12\00", align 1
@.str.2453 = private unnamed_addr constant [14 x i8] c"0x8.9a844p-12\00", align 1
@.str.2454 = private unnamed_addr constant [14 x i8] c"0x8.933fcp-12\00", align 1
@.str.2455 = private unnamed_addr constant [13 x i8] c"0x8.8be9p-12\00", align 1
@.str.2456 = private unnamed_addr constant [14 x i8] c"0x8.8480cp-12\00", align 1
@.str.2457 = private unnamed_addr constant [13 x i8] c"0x8.7d0dp-12\00", align 1
@.str.2458 = private unnamed_addr constant [13 x i8] c"0x8.758fp-12\00", align 1
@.str.2459 = private unnamed_addr constant [14 x i8] c"0x8.6dfe4p-12\00", align 1
@.str.2460 = private unnamed_addr constant [14 x i8] c"0x8.665e4p-12\00", align 1
@.str.2461 = private unnamed_addr constant [14 x i8] c"0x8.5eb38p-12\00", align 1
@.str.2462 = private unnamed_addr constant [14 x i8] c"0x8.56ef4p-12\00", align 1
@.str.2463 = private unnamed_addr constant [14 x i8] c"0x8.4f2c8p-12\00", align 1
@.str.2464 = private unnamed_addr constant [14 x i8] c"0x8.474d4p-12\00", align 1
@.str.2465 = private unnamed_addr constant [14 x i8] c"0x8.3f6a4p-12\00", align 1
@.str.2466 = private unnamed_addr constant [14 x i8] c"0x8.37798p-12\00", align 1
@.str.2467 = private unnamed_addr constant [14 x i8] c"0x8.2f71cp-12\00", align 1
@.str.2468 = private unnamed_addr constant [14 x i8] c"0x8.275ecp-12\00", align 1
@.str.2469 = private unnamed_addr constant [14 x i8] c"0x8.1f3c8p-12\00", align 1
@.str.2470 = private unnamed_addr constant [14 x i8] c"0x8.170ecp-12\00", align 1
@.str.2471 = private unnamed_addr constant [14 x i8] c"0x8.0ed04p-12\00", align 1
@_ZN19fourth_order_doubleL10sin_cos_K3E = internal global [256 x %"struct.ap_fixed<34, 34, AP_TRN, AP_WRAP, 0>"] zeroinitializer, align 8
@.str.1963.48162 = private unnamed_addr constant [10 x i8] c"0x2.fp-32\00", align 1
@.str.1964.48163 = private unnamed_addr constant [16 x i8] c"0x2.0783db8p-12\00", align 1
@.str.1965.48164 = private unnamed_addr constant [16 x i8] c"0x4.0f026e8p-12\00", align 1
@.str.1966.48165 = private unnamed_addr constant [15 x i8] c"0x6.1676eep-12\00", align 1
@.str.1967.48166 = private unnamed_addr constant [15 x i8] c"0x8.1ddc8bp-12\00", align 1
@.str.1968.48167 = private unnamed_addr constant [15 x i8] c"0xa.252df8p-12\00", align 1
@.str.1969.48168 = private unnamed_addr constant [16 x i8] c"0xc.2c66828p-12\00", align 1
@.str.1970.48169 = private unnamed_addr constant [16 x i8] c"0xe.3381068p-12\00", align 1
@.str.1971.48170 = private unnamed_addr constant [16 x i8] c"0x1.03a78668p-8\00", align 1
@.str.1972.48171 = private unnamed_addr constant [16 x i8] c"0x1.24147d08p-8\00", align 1
@.str.1973.48172 = private unnamed_addr constant [15 x i8] c"0x1.447ea22p-8\00", align 1
@.str.1974.48173 = private unnamed_addr constant [16 x i8] c"0x1.64e5a468p-8\00", align 1
@.str.1975.48174 = private unnamed_addr constant [15 x i8] c"0x1.854938dp-8\00", align 1
@.str.1976.48175 = private unnamed_addr constant [16 x i8] c"0x1.a5a90d68p-8\00", align 1
@.str.1977.48176 = private unnamed_addr constant [16 x i8] c"0x1.c604cfe8p-8\00", align 1
@.str.1978.48177 = private unnamed_addr constant [16 x i8] c"0x1.e65c33c8p-8\00", align 1
@.str.1979.48178 = private unnamed_addr constant [16 x i8] c"0x2.06aee518p-8\00", align 1
@.str.1980.48179 = private unnamed_addr constant [15 x i8] c"0x2.26fc99ap-8\00", align 1
@.str.1981.48180 = private unnamed_addr constant [15 x i8] c"0x2.4744fcdp-8\00", align 1
@.str.1982.48181 = private unnamed_addr constant [15 x i8] c"0x2.6787c07p-8\00", align 1
@.str.1983.48182 = private unnamed_addr constant [16 x i8] c"0x2.87c49708p-8\00", align 1
@.str.1984.48183 = private unnamed_addr constant [15 x i8] c"0x2.a7fb2ddp-8\00", align 1
@.str.1985.48184 = private unnamed_addr constant [15 x i8] c"0x2.c82b36fp-8\00", align 1
@.str.1986.48185 = private unnamed_addr constant [16 x i8] c"0x2.e8546448p-8\00", align 1
@.str.1987.48186 = private unnamed_addr constant [16 x i8] c"0x3.087663b8p-8\00", align 1
@.str.1988.48187 = private unnamed_addr constant [16 x i8] c"0x3.2890e8c8p-8\00", align 1
@.str.1989.48188 = private unnamed_addr constant [16 x i8] c"0x3.48a3a178p-8\00", align 1
@.str.1990.48189 = private unnamed_addr constant [16 x i8] c"0x3.68ae3e68p-8\00", align 1
@.str.1991.48190 = private unnamed_addr constant [15 x i8] c"0x3.88b073dp-8\00", align 1
@.str.1992.48191 = private unnamed_addr constant [16 x i8] c"0x3.a8a9f358p-8\00", align 1
@.str.1993.48192 = private unnamed_addr constant [16 x i8] c"0x3.c89a66a8p-8\00", align 1
@.str.1994.48193 = private unnamed_addr constant [15 x i8] c"0x3.e88188dp-8\00", align 1
@.str.1995.48194 = private unnamed_addr constant [15 x i8] c"0x4.085f039p-8\00", align 1
@.str.1996.48195 = private unnamed_addr constant [16 x i8] c"0x4.28328c48p-8\00", align 1
@.str.1997.48196 = private unnamed_addr constant [16 x i8] c"0x4.47fbd2e8p-8\00", align 1
@.str.1998.48197 = private unnamed_addr constant [15 x i8] c"0x4.67ba88bp-8\00", align 1
@.str.1999.48198 = private unnamed_addr constant [16 x i8] c"0x4.876e5f28p-8\00", align 1
@.str.2000.48199 = private unnamed_addr constant [15 x i8] c"0x4.a7170c5p-8\00", align 1
@.str.2001.48200 = private unnamed_addr constant [15 x i8] c"0x4.c6b43c9p-8\00", align 1
@.str.2002.48201 = private unnamed_addr constant [15 x i8] c"0x4.e645a28p-8\00", align 1
@.str.2003.48202 = private unnamed_addr constant [15 x i8] c"0x5.05caf3cp-8\00", align 1
@.str.2004.48203 = private unnamed_addr constant [15 x i8] c"0x5.2543df1p-8\00", align 1
@.str.2005.48204 = private unnamed_addr constant [15 x i8] c"0x5.44b0172p-8\00", align 1
@.str.2006.48205 = private unnamed_addr constant [15 x i8] c"0x5.640f538p-8\00", align 1
@.str.2007.48206 = private unnamed_addr constant [16 x i8] c"0x5.83613e98p-8\00", align 1
@.str.2008.48207 = private unnamed_addr constant [15 x i8] c"0x5.a2a591fp-8\00", align 1
@.str.2009.48208 = private unnamed_addr constant [15 x i8] c"0x5.c1dbfaep-8\00", align 1
@.str.2010.48209 = private unnamed_addr constant [16 x i8] c"0x5.e10431d8p-8\00", align 1
@.str.2011.48210 = private unnamed_addr constant [16 x i8] c"0x6.001de6b8p-8\00", align 1
@.str.2012.48211 = private unnamed_addr constant [15 x i8] c"0x6.1f28cd5p-8\00", align 1
@.str.2013.48212 = private unnamed_addr constant [16 x i8] c"0x6.3e2499e8p-8\00", align 1
@.str.2014.48213 = private unnamed_addr constant [16 x i8] c"0x6.5d10fe58p-8\00", align 1
@.str.2015.48214 = private unnamed_addr constant [15 x i8] c"0x6.7bedae4p-8\00", align 1
@.str.2016.48215 = private unnamed_addr constant [16 x i8] c"0x6.9aba6028p-8\00", align 1
@.str.2017.48216 = private unnamed_addr constant [15 x i8] c"0x6.b976c4ep-8\00", align 1
@.str.2018.48217 = private unnamed_addr constant [16 x i8] c"0x6.d8229298p-8\00", align 1
@.str.2019.48218 = private unnamed_addr constant [14 x i8] c"0x6.f6bd7dp-8\00", align 1
@.str.2020.48219 = private unnamed_addr constant [15 x i8] c"0x7.1547386p-8\00", align 1
@.str.2021.48220 = private unnamed_addr constant [16 x i8] c"0x7.33bf7b38p-8\00", align 1
@.str.2022.48221 = private unnamed_addr constant [15 x i8] c"0x7.5225f74p-8\00", align 1
@.str.2023.48222 = private unnamed_addr constant [15 x i8] c"0x7.707a658p-8\00", align 1
@.str.2024.48223 = private unnamed_addr constant [15 x i8] c"0x7.8ebc753p-8\00", align 1
@.str.2025.48224 = private unnamed_addr constant [15 x i8] c"0x7.acebe1cp-8\00", align 1
@.str.2026.48225 = private unnamed_addr constant [15 x i8] c"0x7.cb085b7p-8\00", align 1
@.str.2027.48226 = private unnamed_addr constant [16 x i8] c"0x7.e9119d68p-8\00", align 1
@.str.2028.48227 = private unnamed_addr constant [15 x i8] c"0x8.070759cp-8\00", align 1
@.str.2029.48228 = private unnamed_addr constant [16 x i8] c"0x8.24e94768p-8\00", align 1
@.str.2030.48229 = private unnamed_addr constant [15 x i8] c"0x8.42b71b7p-8\00", align 1
@.str.2031.48230 = private unnamed_addr constant [15 x i8] c"0x8.60708f5p-8\00", align 1
@.str.2032.48231 = private unnamed_addr constant [15 x i8] c"0x8.7e15585p-8\00", align 1
@.str.2033.48232 = private unnamed_addr constant [16 x i8] c"0x8.9ba52b98p-8\00", align 1
@.str.2034.48233 = private unnamed_addr constant [15 x i8] c"0x8.b91fc43p-8\00", align 1
@.str.2035.48234 = private unnamed_addr constant [15 x i8] c"0x8.d684d22p-8\00", align 1
@.str.2036.48235 = private unnamed_addr constant [16 x i8] c"0x8.f3d416b8p-8\00", align 1
@.str.2037.48236 = private unnamed_addr constant [16 x i8] c"0x9.110d4048p-8\00", align 1
@.str.2038.48237 = private unnamed_addr constant [15 x i8] c"0x9.2e300d1p-8\00", align 1
@.str.2039.48238 = private unnamed_addr constant [15 x i8] c"0x9.4b3c338p-8\00", align 1
@.str.2040.48239 = private unnamed_addr constant [16 x i8] c"0x9.683169e8p-8\00", align 1
@.str.2041.48240 = private unnamed_addr constant [15 x i8] c"0x9.850f6adp-8\00", align 1
@.str.2042.48241 = private unnamed_addr constant [16 x i8] c"0x9.a1d5efe8p-8\00", align 1
@.str.2043.48242 = private unnamed_addr constant [16 x i8] c"0x9.be84ae48p-8\00", align 1
@.str.2044.48243 = private unnamed_addr constant [15 x i8] c"0x9.db1b634p-8\00", align 1
@.str.2045.48244 = private unnamed_addr constant [16 x i8] c"0x9.f799c6b8p-8\00", align 1
@.str.2046.48245 = private unnamed_addr constant [15 x i8] c"0xa.13ff929p-8\00", align 1
@.str.2047.48246 = private unnamed_addr constant [15 x i8] c"0xa.304c7f5p-8\00", align 1
@.str.2048.48247 = private unnamed_addr constant [15 x i8] c"0xa.4c804afp-8\00", align 1
@.str.2049.48248 = private unnamed_addr constant [15 x i8] c"0xa.689aaacp-8\00", align 1
@.str.2050.48249 = private unnamed_addr constant [16 x i8] c"0xa.849b5d08p-8\00", align 1
@.str.2051.48250 = private unnamed_addr constant [16 x i8] c"0xa.a0821b28p-8\00", align 1
@.str.2052.48251 = private unnamed_addr constant [16 x i8] c"0xa.bc4ea018p-8\00", align 1
@.str.2053.48252 = private unnamed_addr constant [16 x i8] c"0xa.d800a8e8p-8\00", align 1
@.str.2054.48253 = private unnamed_addr constant [15 x i8] c"0xa.f397ef5p-8\00", align 1
@.str.2055.48254 = private unnamed_addr constant [16 x i8] c"0xb.0f143278p-8\00", align 1
@.str.2056.48255 = private unnamed_addr constant [16 x i8] c"0xb.2a752948p-8\00", align 1
@.str.2057.48256 = private unnamed_addr constant [15 x i8] c"0xb.45ba94ep-8\00", align 1
@.str.2058.48257 = private unnamed_addr constant [14 x i8] c"0xb.60e42fp-8\00", align 1
@.str.2059.48258 = private unnamed_addr constant [16 x i8] c"0xb.7bf1b688p-8\00", align 1
@.str.2060.48259 = private unnamed_addr constant [16 x i8] c"0xb.96e2e9e8p-8\00", align 1
@.str.2061.48260 = private unnamed_addr constant [15 x i8] c"0xb.b1b7827p-8\00", align 1
@.str.2062.48261 = private unnamed_addr constant [15 x i8] c"0xb.cc6f419p-8\00", align 1
@.str.2063.48262 = private unnamed_addr constant [15 x i8] c"0xb.e709e25p-8\00", align 1
@.str.2064.48263 = private unnamed_addr constant [16 x i8] c"0xc.01872608p-8\00", align 1
@.str.2065.48264 = private unnamed_addr constant [16 x i8] c"0xc.1be6ca58p-8\00", align 1
@.str.2066.48265 = private unnamed_addr constant [16 x i8] c"0xc.36288d48p-8\00", align 1
@.str.2067.48266 = private unnamed_addr constant [15 x i8] c"0xc.504c303p-8\00", align 1
@.str.2068.48267 = private unnamed_addr constant [15 x i8] c"0xc.6a51703p-8\00", align 1
@.str.2069.48268 = private unnamed_addr constant [15 x i8] c"0xc.84380ebp-8\00", align 1
@.str.2070.48269 = private unnamed_addr constant [15 x i8] c"0xc.9dffc9dp-8\00", align 1
@.str.2071.48270 = private unnamed_addr constant [15 x i8] c"0xc.b7a8627p-8\00", align 1
@.str.2072.48271 = private unnamed_addr constant [15 x i8] c"0xc.d1319d6p-8\00", align 1
@.str.2073.48272 = private unnamed_addr constant [16 x i8] c"0xc.ea9b3648p-8\00", align 1
@.str.2074.48273 = private unnamed_addr constant [15 x i8] c"0xd.03e4f15p-8\00", align 1
@.str.2075.48274 = private unnamed_addr constant [16 x i8] c"0xd.1d0e8c88p-8\00", align 1
@.str.2076.48275 = private unnamed_addr constant [16 x i8] c"0xd.3617ce88p-8\00", align 1
@.str.2077.48276 = private unnamed_addr constant [15 x i8] c"0xd.4f0079cp-8\00", align 1
@.str.2078.48277 = private unnamed_addr constant [16 x i8] c"0xd.67c84a68p-8\00", align 1
@.str.2079.48278 = private unnamed_addr constant [16 x i8] c"0xd.806f0b38p-8\00", align 1
@.str.2080.48279 = private unnamed_addr constant [15 x i8] c"0xd.98f479bp-8\00", align 1
@.str.2081.48280 = private unnamed_addr constant [16 x i8] c"0xd.b1585bf8p-8\00", align 1
@.str.2082.48281 = private unnamed_addr constant [15 x i8] c"0xd.c99a744p-8\00", align 1
@.str.2083.48282 = private unnamed_addr constant [16 x i8] c"0xd.e1ba88c8p-8\00", align 1
@.str.2084.48283 = private unnamed_addr constant [16 x i8] c"0xd.f9b85bb8p-8\00", align 1
@.str.2085.48284 = private unnamed_addr constant [15 x i8] c"0xe.1193b2cp-8\00", align 1
@.str.2086.48285 = private unnamed_addr constant [16 x i8] c"0xe.294c5568p-8\00", align 1
@.str.2087.48286 = private unnamed_addr constant [16 x i8] c"0xe.40e20538p-8\00", align 1
@.str.2088.48287 = private unnamed_addr constant [16 x i8] c"0xe.58548b88p-8\00", align 1
@.str.2089.48288 = private unnamed_addr constant [15 x i8] c"0xe.6fa3ab1p-8\00", align 1
@.str.2090.48289 = private unnamed_addr constant [15 x i8] c"0xe.86cf2c8p-8\00", align 1
@.str.2091.48290 = private unnamed_addr constant [10 x i8] c"0x6.8p-36\00", align 1
@.str.2092.48291 = private unnamed_addr constant [14 x i8] c"0x5.19af2p-16\00", align 1
@.str.2093.48292 = private unnamed_addr constant [14 x i8] c"0xa.3353dp-16\00", align 1
@.str.2094.48293 = private unnamed_addr constant [13 x i8] c"0xf.4ce8p-16\00", align 1
@.str.2095.48294 = private unnamed_addr constant [14 x i8] c"0x1.46661p-12\00", align 1
@.str.2096.48295 = private unnamed_addr constant [16 x i8] c"0x1.97fb5c8p-12\00", align 1
@.str.2097.48296 = private unnamed_addr constant [15 x i8] c"0x1.e98dc8p-12\00", align 1
@.str.2098.48297 = private unnamed_addr constant [15 x i8] c"0x2.3b1cf6p-12\00", align 1
@.str.2099.48298 = private unnamed_addr constant [15 x i8] c"0x2.8ca80ep-12\00", align 1
@.str.2100.48299 = private unnamed_addr constant [16 x i8] c"0x2.de2ece8p-12\00", align 1
@.str.2101.48300 = private unnamed_addr constant [14 x i8] c"0x3.2fb07p-12\00", align 1
@.str.2102.48301 = private unnamed_addr constant [16 x i8] c"0x3.812c878p-12\00", align 1
@.str.1044.48302 = private unnamed_addr constant [15 x i8] c"0x3.d2a247p-12\00", align 1
@.str.2103.48303 = private unnamed_addr constant [16 x i8] c"0x4.24116f8p-12\00", align 1
@.str.2104.48304 = private unnamed_addr constant [16 x i8] c"0x4.75793f8p-12\00", align 1
@.str.2105.48305 = private unnamed_addr constant [15 x i8] c"0x4.c6d92bp-12\00", align 1
@.str.2106.48306 = private unnamed_addr constant [15 x i8] c"0x5.1830b1p-12\00", align 1
@.str.2107.48307 = private unnamed_addr constant [15 x i8] c"0x5.697f44p-12\00", align 1
@.str.2108.48308 = private unnamed_addr constant [15 x i8] c"0x5.bac44bp-12\00", align 1
@.str.1051.48309 = private unnamed_addr constant [15 x i8] c"0x6.0bff41p-12\00", align 1
@.str.2109.48310 = private unnamed_addr constant [15 x i8] c"0x6.5d2f78p-12\00", align 1
@.str.2110.48311 = private unnamed_addr constant [16 x i8] c"0x6.ae548f8p-12\00", align 1
@.str.2111.48312 = private unnamed_addr constant [16 x i8] c"0x6.ff6dd68p-12\00", align 1
@.str.2112.48313 = private unnamed_addr constant [15 x i8] c"0x7.507aaep-12\00", align 1
@.str.2113.48314 = private unnamed_addr constant [16 x i8] c"0x7.a17ad98p-12\00", align 1
@.str.2114.48315 = private unnamed_addr constant [15 x i8] c"0x7.f26d76p-12\00", align 1
@.str.2115.48316 = private unnamed_addr constant [16 x i8] c"0x8.4352238p-12\00", align 1
@.str.2116.48317 = private unnamed_addr constant [14 x i8] c"0x8.94281p-12\00", align 1
@.str.2117.48318 = private unnamed_addr constant [15 x i8] c"0x8.e4ef08p-12\00", align 1
@.str.2118.48319 = private unnamed_addr constant [15 x i8] c"0x9.35a653p-12\00", align 1
@.str.2119.48320 = private unnamed_addr constant [15 x i8] c"0x9.864d62p-12\00", align 1
@.str.2120.48321 = private unnamed_addr constant [15 x i8] c"0x9.d6e397p-12\00", align 1
@.str.2121.48322 = private unnamed_addr constant [16 x i8] c"0xa.2768918p-12\00", align 1
@.str.2122.48323 = private unnamed_addr constant [15 x i8] c"0xa.77db9cp-12\00", align 1
@.str.2123.48324 = private unnamed_addr constant [15 x i8] c"0xa.c83c1ep-12\00", align 1
@.str.2124.48325 = private unnamed_addr constant [15 x i8] c"0xb.1889bcp-12\00", align 1
@.str.2125.48326 = private unnamed_addr constant [16 x i8] c"0xb.68c3c98p-12\00", align 1
@.str.2126.48327 = private unnamed_addr constant [16 x i8] c"0xb.b8e9dc8p-12\00", align 1
@.str.2127.48328 = private unnamed_addr constant [16 x i8] c"0xc.08fb298p-12\00", align 1
@.str.2128.48329 = private unnamed_addr constant [16 x i8] c"0xc.58f73c8p-12\00", align 1
@.str.2129.48330 = private unnamed_addr constant [15 x i8] c"0xc.a8dd92p-12\00", align 1
@.str.2130.48331 = private unnamed_addr constant [15 x i8] c"0xc.f8ada7p-12\00", align 1
@.str.2131.48332 = private unnamed_addr constant [16 x i8] c"0xd.4866f48p-12\00", align 1
@.str.2132.48333 = private unnamed_addr constant [16 x i8] c"0xd.9808a98p-12\00", align 1
@.str.2133.48334 = private unnamed_addr constant [16 x i8] c"0xd.e7929a8p-12\00", align 1
@.str.2134.48335 = private unnamed_addr constant [16 x i8] c"0xe.3704128p-12\00", align 1
@.str.2135.48336 = private unnamed_addr constant [15 x i8] c"0xe.865c64p-12\00", align 1
@.str.2136.48337 = private unnamed_addr constant [16 x i8] c"0xe.d59b218p-12\00", align 1
@.str.2137.48338 = private unnamed_addr constant [16 x i8] c"0xf.24bfe08p-12\00", align 1
@.str.2138.48339 = private unnamed_addr constant [15 x i8] c"0xf.73c9dep-12\00", align 1
@.str.2139.48340 = private unnamed_addr constant [16 x i8] c"0xf.c2b8a58p-12\00", align 1
@.str.2140.48341 = private unnamed_addr constant [15 x i8] c"0x1.0118baep-8\00", align 1
@.str.2141.48342 = private unnamed_addr constant [16 x i8] c"0x1.060426b8p-8\00", align 1
@.str.2142.48343 = private unnamed_addr constant [15 x i8] c"0x1.0aedc65p-8\00", align 1
@.str.2143.48344 = private unnamed_addr constant [16 x i8] c"0x1.0fd58f48p-8\00", align 1
@.str.2144.48345 = private unnamed_addr constant [16 x i8] c"0x1.14bb7938p-8\00", align 1
@.str.2145.48346 = private unnamed_addr constant [15 x i8] c"0x1.199f7c4p-8\00", align 1
@.str.2146.48347 = private unnamed_addr constant [15 x i8] c"0x1.1e818fep-8\00", align 1
@.str.2147.48348 = private unnamed_addr constant [16 x i8] c"0x1.2361ab58p-8\00", align 1
@.str.2148.48349 = private unnamed_addr constant [16 x i8] c"0x1.283fc518p-8\00", align 1
@.str.2149.48350 = private unnamed_addr constant [16 x i8] c"0x1.2d1bd558p-8\00", align 1
@.str.2150.48351 = private unnamed_addr constant [15 x i8] c"0x1.31f5d6ap-8\00", align 1
@.str.2151.48352 = private unnamed_addr constant [15 x i8] c"0x1.36cdb9fp-8\00", align 1
@.str.2152.48353 = private unnamed_addr constant [16 x i8] c"0x1.3ba37d18p-8\00", align 1
@.str.2153.48354 = private unnamed_addr constant [16 x i8] c"0x1.40771408p-8\00", align 1
@.str.2154.48355 = private unnamed_addr constant [16 x i8] c"0x1.45487548p-8\00", align 1
@.str.2155.48356 = private unnamed_addr constant [15 x i8] c"0x1.4a179b2p-8\00", align 1
@.str.2156.48357 = private unnamed_addr constant [15 x i8] c"0x1.4ee47dep-8\00", align 1
@.str.2157 = private unnamed_addr constant [16 x i8] c"0x1.53af10b8p-8\00", align 1
@.str.2158 = private unnamed_addr constant [16 x i8] c"0x1.58775188p-8\00", align 1
@.str.2159 = private unnamed_addr constant [15 x i8] c"0x1.5d3d301p-8\00", align 1
@.str.2160 = private unnamed_addr constant [16 x i8] c"0x1.6200ac08p-8\00", align 1
@.str.2161 = private unnamed_addr constant [15 x i8] c"0x1.66c1b61p-8\00", align 1
@.str.2162 = private unnamed_addr constant [15 x i8] c"0x1.6b804c3p-8\00", align 1
@.str.2163 = private unnamed_addr constant [16 x i8] c"0x1.703c6248p-8\00", align 1
@.str.2164 = private unnamed_addr constant [15 x i8] c"0x1.74f5ef9p-8\00", align 1
@.str.2165 = private unnamed_addr constant [16 x i8] c"0x1.79acedd8p-8\00", align 1
@.str.2166 = private unnamed_addr constant [16 x i8] c"0x1.7e615438p-8\00", align 1
@.str.2167 = private unnamed_addr constant [15 x i8] c"0x1.83131b4p-8\00", align 1
@.str.2168 = private unnamed_addr constant [15 x i8] c"0x1.87c2378p-8\00", align 1
@.str.2169 = private unnamed_addr constant [16 x i8] c"0x1.8c6ea378p-8\00", align 1
@.str.2170 = private unnamed_addr constant [16 x i8] c"0x1.911858a8p-8\00", align 1
@.str.2171 = private unnamed_addr constant [15 x i8] c"0x1.95bf4c5p-8\00", align 1
@.str.2172 = private unnamed_addr constant [15 x i8] c"0x1.9a6374dp-8\00", align 1
@.str.2173 = private unnamed_addr constant [15 x i8] c"0x1.9f04cbcp-8\00", align 1
@.str.2174 = private unnamed_addr constant [15 x i8] c"0x1.a3a34bcp-8\00", align 1
@.str.2175 = private unnamed_addr constant [16 x i8] c"0x1.a83ee9e8p-8\00", align 1
@.str.2176 = private unnamed_addr constant [15 x i8] c"0x1.acd79ddp-8\00", align 1
@.str.2177 = private unnamed_addr constant [16 x i8] c"0x1.b16d5fc8p-8\00", align 1
@.str.2178 = private unnamed_addr constant [15 x i8] c"0x1.b60028bp-8\00", align 1
@.str.2179 = private unnamed_addr constant [15 x i8] c"0x1.ba8ff12p-8\00", align 1
@.str.2180 = private unnamed_addr constant [15 x i8] c"0x1.bf1caf6p-8\00", align 1
@.str.2181 = private unnamed_addr constant [16 x i8] c"0x1.c3a65bd8p-8\00", align 1
@.str.2182 = private unnamed_addr constant [15 x i8] c"0x1.c82cefap-8\00", align 1
@.str.2183 = private unnamed_addr constant [16 x i8] c"0x1.ccb06178p-8\00", align 1
@.str.2184 = private unnamed_addr constant [16 x i8] c"0x1.d130ab58p-8\00", align 1
@.str.2185 = private unnamed_addr constant [16 x i8] c"0x1.d5adc388p-8\00", align 1
@.str.2186 = private unnamed_addr constant [15 x i8] c"0x1.da27a49p-8\00", align 1
@.str.2187 = private unnamed_addr constant [16 x i8] c"0x1.de9e4418p-8\00", align 1
@.str.2188 = private unnamed_addr constant [15 x i8] c"0x1.e3119a5p-8\00", align 1
@.str.2189 = private unnamed_addr constant [16 x i8] c"0x1.e781a1d8p-8\00", align 1
@.str.2190 = private unnamed_addr constant [15 x i8] c"0x1.ebee51dp-8\00", align 1
@.str.2191 = private unnamed_addr constant [15 x i8] c"0x1.f057a16p-8\00", align 1
@.str.2192 = private unnamed_addr constant [16 x i8] c"0x1.f4bd8a68p-8\00", align 1
@.str.2193 = private unnamed_addr constant [16 x i8] c"0x1.f92004a8p-8\00", align 1
@.str.2194 = private unnamed_addr constant [14 x i8] c"0x1.fd7f08p-8\00", align 1
@.str.2195 = private unnamed_addr constant [15 x i8] c"0x2.01da8f2p-8\00", align 1
@.str.2196 = private unnamed_addr constant [16 x i8] c"0x2.06328fc8p-8\00", align 1
@.str.2197 = private unnamed_addr constant [16 x i8] c"0x2.0a870358p-8\00", align 1
@.str.2198 = private unnamed_addr constant [14 x i8] c"0x2.0ed7e3p-8\00", align 1
@.str.2199 = private unnamed_addr constant [16 x i8] c"0x2.13252578p-8\00", align 1
@.str.2200 = private unnamed_addr constant [16 x i8] c"0x2.176ec528p-8\00", align 1
@.str.2201 = private unnamed_addr constant [15 x i8] c"0x2.1bb4baep-8\00", align 1
@.str.2202 = private unnamed_addr constant [16 x i8] c"0x2.1ff6fd78p-8\00", align 1
@.str.2203 = private unnamed_addr constant [15 x i8] c"0x2.2435853p-8\00", align 1
@.str.2204 = private unnamed_addr constant [16 x i8] c"0x2.28704cc8p-8\00", align 1
@.str.2205 = private unnamed_addr constant [16 x i8] c"0x2.2ca74c58p-8\00", align 1
@.str.2206 = private unnamed_addr constant [16 x i8] c"0x2.30da7b68p-8\00", align 1
@.str.2207 = private unnamed_addr constant [15 x i8] c"0x2.3509d62p-8\00", align 1
@.str.2208 = private unnamed_addr constant [15 x i8] c"0x2.39354eep-8\00", align 1
@.str.2209 = private unnamed_addr constant [16 x i8] c"0x2.3d5ce598p-8\00", align 1
@.str.2210 = private unnamed_addr constant [16 x i8] c"0x2.41808d38p-8\00", align 1
@.str.2211 = private unnamed_addr constant [15 x i8] c"0x2.45a0412p-8\00", align 1
@.str.2212 = private unnamed_addr constant [15 x i8] c"0x2.49bbfc8p-8\00", align 1
@.str.2213 = private unnamed_addr constant [16 x i8] c"0x2.4dd3b528p-8\00", align 1
@.str.2214 = private unnamed_addr constant [16 x i8] c"0x2.51e76528p-8\00", align 1
@.str.2215 = private unnamed_addr constant [15 x i8] c"0x2.55f704ap-8\00", align 1
@.str.2216.48358 = private unnamed_addr constant [15 x i8] c"0x2.5a028dap-8\00", align 1
@_ZN19fourth_order_doubleL10sin_cos_K2E = internal global [256 x %"struct.ap_ufixed<44, -11, AP_TRN, AP_WRAP, 0>"] zeroinitializer, align 8
@.str.1708.48359 = private unnamed_addr constant [19 x i8] c"-0x4.ef4f326fb5p-4\00", align 1
@.str.1709.48360 = private unnamed_addr constant [19 x i8] c"-0x4.ef491be5d2p-4\00", align 1
@.str.1710.48361 = private unnamed_addr constant [19 x i8] c"-0x4.ef36d85612p-4\00", align 1
@.str.1711.48362 = private unnamed_addr constant [19 x i8] c"-0x4.ef1867ed86p-4\00", align 1
@.str.1712.48363 = private unnamed_addr constant [18 x i8] c"-0x4.eeedcaf7ap-4\00", align 1
@.str.1713.48364 = private unnamed_addr constant [19 x i8] c"-0x4.eeb701dd0ap-4\00", align 1
@.str.1714.48365 = private unnamed_addr constant [19 x i8] c"-0x4.ee740d256cp-4\00", align 1
@.str.1715.48366 = private unnamed_addr constant [19 x i8] c"-0x4.ee24ed75bfp-4\00", align 1
@.str.1716.48367 = private unnamed_addr constant [19 x i8] c"-0x4.edc9a39123p-4\00", align 1
@.str.1717.48368 = private unnamed_addr constant [19 x i8] c"-0x4.ed62305906p-4\00", align 1
@.str.1718.48369 = private unnamed_addr constant [19 x i8] c"-0x4.ecee94cc8cp-4\00", align 1
@.str.1719.48370 = private unnamed_addr constant [19 x i8] c"-0x4.ec6ed208cbp-4\00", align 1
@.str.1720.48371 = private unnamed_addr constant [19 x i8] c"-0x4.ebe2e9496ep-4\00", align 1
@.str.1721.48372 = private unnamed_addr constant [19 x i8] c"-0x4.eb4adbe785p-4\00", align 1
@.str.1722.48373 = private unnamed_addr constant [19 x i8] c"-0x4.eaa6ab59f9p-4\00", align 1
@.str.1723.48374 = private unnamed_addr constant [19 x i8] c"-0x4.e9f6593647p-4\00", align 1
@.str.1724.48375 = private unnamed_addr constant [19 x i8] c"-0x4.e939e72f0ap-4\00", align 1
@.str.1725.48376 = private unnamed_addr constant [19 x i8] c"-0x4.e8715715c4p-4\00", align 1
@.str.1726.48377 = private unnamed_addr constant [18 x i8] c"-0x4.e79caad8ep-4\00", align 1
@.str.1727.48378 = private unnamed_addr constant [19 x i8] c"-0x4.e6bbe48544p-4\00", align 1
@.str.1728.48379 = private unnamed_addr constant [19 x i8] c"-0x4.e5cf0645b2p-4\00", align 1
@.str.1729.48380 = private unnamed_addr constant [19 x i8] c"-0x4.e4d6126263p-4\00", align 1
@.str.1730.48381 = private unnamed_addr constant [19 x i8] c"-0x4.e3d10b41b1p-4\00", align 1
@.str.1731.48382 = private unnamed_addr constant [19 x i8] c"-0x4.e2bff367cap-4\00", align 1
@.str.1732.48383 = private unnamed_addr constant [19 x i8] c"-0x4.e1a2cd7649p-4\00", align 1
@.str.1733.48384 = private unnamed_addr constant [19 x i8] c"-0x4.e0799c2cfap-4\00", align 1
@.str.1734.48385 = private unnamed_addr constant [19 x i8] c"-0x4.df446268eep-4\00", align 1
@.str.1735.48386 = private unnamed_addr constant [19 x i8] c"-0x4.de0323251fp-4\00", align 1
@.str.1736.48387 = private unnamed_addr constant [19 x i8] c"-0x4.dcb5e17a6bp-4\00", align 1
@.str.1737.48388 = private unnamed_addr constant [19 x i8] c"-0x4.db5ca09f34p-4\00", align 1
@.str.1738.48389 = private unnamed_addr constant [19 x i8] c"-0x4.d9f763e6b5p-4\00", align 1
@.str.1739.48390 = private unnamed_addr constant [19 x i8] c"-0x4.d8862ec333p-4\00", align 1
@.str.1740.48391 = private unnamed_addr constant [19 x i8] c"-0x4.d70904c30cp-4\00", align 1
@.str.1741.48392 = private unnamed_addr constant [19 x i8] c"-0x4.d57fe99304p-4\00", align 1
@.str.1742.48393 = private unnamed_addr constant [19 x i8] c"-0x4.d3eae0fcfap-4\00", align 1
@.str.1743.48394 = private unnamed_addr constant [19 x i8] c"-0x4.d249eee83ep-4\00", align 1
@.str.1744.48395 = private unnamed_addr constant [19 x i8] c"-0x4.d09d1759a1p-4\00", align 1
@.str.1745.48396 = private unnamed_addr constant [19 x i8] c"-0x4.cee45e738ep-4\00", align 1
@.str.1746.48397 = private unnamed_addr constant [19 x i8] c"-0x4.cd1fc87504p-4\00", align 1
@.str.1747.48398 = private unnamed_addr constant [19 x i8] c"-0x4.cb4f59bac3p-4\00", align 1
@.str.1748.48399 = private unnamed_addr constant [19 x i8] c"-0x4.c97316bf0ap-4\00", align 1
@.str.1749.48400 = private unnamed_addr constant [19 x i8] c"-0x4.c78b0418aap-4\00", align 1
@.str.1750.48401 = private unnamed_addr constant [19 x i8] c"-0x4.c597267bf6p-4\00", align 1
@.str.1751.48402 = private unnamed_addr constant [19 x i8] c"-0x4.c39782bab1p-4\00", align 1
@.str.1752.48403 = private unnamed_addr constant [19 x i8] c"-0x4.c18c1dc295p-4\00", align 1
@.str.1753.48404 = private unnamed_addr constant [19 x i8] c"-0x4.bf74fc9facp-4\00", align 1
@.str.1754.48405 = private unnamed_addr constant [19 x i8] c"-0x4.bd522479d4p-4\00", align 1
@.str.1755.48406 = private unnamed_addr constant [19 x i8] c"-0x4.bb239a96cap-4\00", align 1
@.str.1756.48407 = private unnamed_addr constant [19 x i8] c"-0x4.b8e9645871p-4\00", align 1
@.str.1757.48408 = private unnamed_addr constant [19 x i8] c"-0x4.b6a3873dc8p-4\00", align 1
@.str.1758.48409 = private unnamed_addr constant [19 x i8] c"-0x4.b45208e281p-4\00", align 1
@.str.1759.48410 = private unnamed_addr constant [19 x i8] c"-0x4.b1f4eefee7p-4\00", align 1
@.str.1760.48411 = private unnamed_addr constant [19 x i8] c"-0x4.af8c3f67f8p-4\00", align 1
@.str.1761.48412 = private unnamed_addr constant [18 x i8] c"-0x4.ad18000f9p-4\00", align 1
@.str.1762.48413 = private unnamed_addr constant [19 x i8] c"-0x4.aa98370383p-4\00", align 1
@.str.1763.48414 = private unnamed_addr constant [19 x i8] c"-0x4.a80cea6ea7p-4\00", align 1
@.str.1764.48415 = private unnamed_addr constant [19 x i8] c"-0x4.a5762097d9p-4\00", align 1
@.str.1765.48416 = private unnamed_addr constant [19 x i8] c"-0x4.a2d3dfe282p-4\00", align 1
@.str.1766.48417 = private unnamed_addr constant [19 x i8] c"-0x4.a0262ece69p-4\00", align 1
@.str.1767.48418 = private unnamed_addr constant [19 x i8] c"-0x4.9d6d13f72fp-4\00", align 1
@.str.1768.48419 = private unnamed_addr constant [19 x i8] c"-0x4.9aa896152ap-4\00", align 1
@.str.1769.48420 = private unnamed_addr constant [19 x i8] c"-0x4.97d8bbfc03p-4\00", align 1
@.str.1770.48421 = private unnamed_addr constant [19 x i8] c"-0x4.94fd8c9c67p-4\00", align 1
@.str.1771.48422 = private unnamed_addr constant [19 x i8] c"-0x4.92170f0205p-4\00", align 1
@.str.1772.48423 = private unnamed_addr constant [19 x i8] c"-0x4.8f254a554fp-4\00", align 1
@.str.1773.48424 = private unnamed_addr constant [19 x i8] c"-0x4.8c2845d9c5p-4\00", align 1
@.str.1774.48425 = private unnamed_addr constant [19 x i8] c"-0x4.892008ef24p-4\00", align 1
@.str.1775.48426 = private unnamed_addr constant [19 x i8] c"-0x4.860c9b108ep-4\00", align 1
@.str.1776.48427 = private unnamed_addr constant [19 x i8] c"-0x4.82ee03d534p-4\00", align 1
@.str.1777.48428 = private unnamed_addr constant [19 x i8] c"-0x4.7fc44aef62p-4\00", align 1
@.str.1778.48429 = private unnamed_addr constant [19 x i8] c"-0x4.7c8f782cd5p-4\00", align 1
@.str.1779.48430 = private unnamed_addr constant [19 x i8] c"-0x4.794f937736p-4\00", align 1
@.str.1780.48431 = private unnamed_addr constant [19 x i8] c"-0x4.7604a4d285p-4\00", align 1
@.str.1781.48432 = private unnamed_addr constant [19 x i8] c"-0x4.72aeb45f6ap-4\00", align 1
@.str.1782.48433 = private unnamed_addr constant [19 x i8] c"-0x4.6f4dca581dp-4\00", align 1
@.str.1783.48434 = private unnamed_addr constant [19 x i8] c"-0x4.6be1ef1343p-4\00", align 1
@.str.1784.48435 = private unnamed_addr constant [19 x i8] c"-0x4.686b2b01c9p-4\00", align 1
@.str.1785.48436 = private unnamed_addr constant [19 x i8] c"-0x4.64e986af77p-4\00", align 1
@.str.1786.48437 = private unnamed_addr constant [19 x i8] c"-0x4.615d0ac363p-4\00", align 1
@.str.1787.48438 = private unnamed_addr constant [19 x i8] c"-0x4.5dc5bfff2ap-4\00", align 1
@.str.1788.48439 = private unnamed_addr constant [19 x i8] c"-0x4.5a23af3ec1p-4\00", align 1
@.str.1789.48440 = private unnamed_addr constant [19 x i8] c"-0x4.5676e17949p-4\00", align 1
@.str.1790.48441 = private unnamed_addr constant [19 x i8] c"-0x4.52bf5fc005p-4\00", align 1
@.str.1791.48442 = private unnamed_addr constant [19 x i8] c"-0x4.4efd333eb1p-4\00", align 1
@.str.1792.48443 = private unnamed_addr constant [19 x i8] c"-0x4.4b30653b36p-4\00", align 1
@.str.1793.48444 = private unnamed_addr constant [19 x i8] c"-0x4.4758ff163fp-4\00", align 1
@.str.1794.48445 = private unnamed_addr constant [19 x i8] c"-0x4.43770a49c6p-4\00", align 1
@.str.1795.48446 = private unnamed_addr constant [19 x i8] c"-0x4.3f8a906a92p-4\00", align 1
@.str.1796.48447 = private unnamed_addr constant [19 x i8] c"-0x4.3b939b26efp-4\00", align 1
@.str.1797.48448 = private unnamed_addr constant [19 x i8] c"-0x4.3792344732p-4\00", align 1
@.str.1798.48449 = private unnamed_addr constant [19 x i8] c"-0x4.338665ad89p-4\00", align 1
@.str.1799.48450 = private unnamed_addr constant [19 x i8] c"-0x4.2f70395583p-4\00", align 1
@.str.1800.48451 = private unnamed_addr constant [19 x i8] c"-0x4.2b4fb954c7p-4\00", align 1
@.str.1801.48452 = private unnamed_addr constant [19 x i8] c"-0x4.2724efd9a1p-4\00", align 1
@.str.1802.48453 = private unnamed_addr constant [18 x i8] c"-0x4.22efe72cbp-4\00", align 1
@.str.1803.48454 = private unnamed_addr constant [19 x i8] c"-0x4.1eb0a9af1cp-4\00", align 1
@.str.1804.48455 = private unnamed_addr constant [19 x i8] c"-0x4.1a6741dbc4p-4\00", align 1
@.str.1805.48456 = private unnamed_addr constant [19 x i8] c"-0x4.1613ba467ap-4\00", align 1
@.str.1806.48457 = private unnamed_addr constant [19 x i8] c"-0x4.11b61d9b96p-4\00", align 1
@.str.1807.48458 = private unnamed_addr constant [19 x i8] c"-0x4.0d4e76a0fep-4\00", align 1
@.str.1808.48459 = private unnamed_addr constant [19 x i8] c"-0x4.08dcd034cdp-4\00", align 1
@.str.1809.48460 = private unnamed_addr constant [19 x i8] c"-0x4.0461354e49p-4\00", align 1
@.str.1810.48461 = private unnamed_addr constant [19 x i8] c"-0x3.ffdbb0fceep-4\00", align 1
@.str.1811.48462 = private unnamed_addr constant [19 x i8] c"-0x3.fb4c4e68cap-4\00", align 1
@.str.1812.48463 = private unnamed_addr constant [19 x i8] c"-0x3.f6b318d25ap-4\00", align 1
@.str.1813.48464 = private unnamed_addr constant [18 x i8] c"-0x3.f2101b922p-4\00", align 1
@.str.1814.48465 = private unnamed_addr constant [19 x i8] c"-0x3.ed636218f8p-4\00", align 1
@.str.1815.48466 = private unnamed_addr constant [19 x i8] c"-0x3.e8acf7ef86p-4\00", align 1
@.str.1816.48467 = private unnamed_addr constant [19 x i8] c"-0x3.e3ece8b685p-4\00", align 1
@.str.1817.48468 = private unnamed_addr constant [19 x i8] c"-0x3.df234026cdp-4\00", align 1
@.str.1818.48469 = private unnamed_addr constant [19 x i8] c"-0x3.da500a1027p-4\00", align 1
@.str.1819.48470 = private unnamed_addr constant [19 x i8] c"-0x3.d573525a7ap-4\00", align 1
@.str.1820.48471 = private unnamed_addr constant [19 x i8] c"-0x3.d08d2504bep-4\00", align 1
@.str.1821.48472 = private unnamed_addr constant [19 x i8] c"-0x3.cb9d8e25e3p-4\00", align 1
@.str.1822.48473 = private unnamed_addr constant [19 x i8] c"-0x3.c6a499ebadp-4\00", align 1
@.str.1823.48474 = private unnamed_addr constant [19 x i8] c"-0x3.c1a2549a7ep-4\00", align 1
@.str.1824.48475 = private unnamed_addr constant [19 x i8] c"-0x3.bc96ca8edbp-4\00", align 1
@.str.1825.48476 = private unnamed_addr constant [19 x i8] c"-0x3.b782083af9p-4\00", align 1
@.str.1826.48477 = private unnamed_addr constant [19 x i8] c"-0x3.b2641a2898p-4\00", align 1
@.str.1827.48478 = private unnamed_addr constant [19 x i8] c"-0x3.ad3d0cf7b8p-4\00", align 1
@.str.1828.48479 = private unnamed_addr constant [19 x i8] c"-0x3.a80ced5f1bp-4\00", align 1
@.str.1829.48480 = private unnamed_addr constant [18 x i8] c"-0x3.a2d3c82b9p-4\00", align 1
@.str.1830.48481 = private unnamed_addr constant [19 x i8] c"-0x3.9d91aa4071p-4\00", align 1
@.str.1831.48482 = private unnamed_addr constant [19 x i8] c"-0x3.9846a09755p-4\00", align 1
@.str.1832.48483 = private unnamed_addr constant [19 x i8] c"-0x3.92f2b83f5bp-4\00", align 1
@.str.1833.48484 = private unnamed_addr constant [19 x i8] c"-0x3.8d95fe5e06p-4\00", align 1
@.str.1834.48485 = private unnamed_addr constant [19 x i8] c"-0x3.8830802e34p-4\00", align 1
@.str.1835.48486 = private unnamed_addr constant [18 x i8] c"-0x3.82c24b00bp-4\00", align 1
@.str.1836.48487 = private unnamed_addr constant [19 x i8] c"-0x1.4abbce625ep-4\00", align 1
@.str.1837.48488 = private unnamed_addr constant [19 x i8] c"-0x1.4abad991c2p-4\00", align 1
@.str.1838.48489 = private unnamed_addr constant [19 x i8] c"-0x1.4ab7fb2152p-4\00", align 1
@.str.1839.48490 = private unnamed_addr constant [18 x i8] c"-0x1.4ab333166p-4\00", align 1
@.str.1840.48491 = private unnamed_addr constant [19 x i8] c"-0x1.4aac817937p-4\00", align 1
@.str.1841.48492 = private unnamed_addr constant [19 x i8] c"-0x1.4aa3e6559bp-4\00", align 1
@.str.1842.48493 = private unnamed_addr constant [19 x i8] c"-0x1.4a9961baadp-4\00", align 1
@.str.1843.48494 = private unnamed_addr constant [19 x i8] c"-0x1.4a8cf3bb2ep-4\00", align 1
@.str.1844.48495 = private unnamed_addr constant [19 x i8] c"-0x1.4a7e9c6cadp-4\00", align 1
@.str.1845.48496 = private unnamed_addr constant [19 x i8] c"-0x1.4a6e5be8ddp-4\00", align 1
@.str.1846.48497 = private unnamed_addr constant [19 x i8] c"-0x1.4a5c324c0cp-4\00", align 1
@.str.1847.48498 = private unnamed_addr constant [19 x i8] c"-0x1.4a481fb672p-4\00", align 1
@.str.915.48499 = private unnamed_addr constant [19 x i8] c"-0x1.4a32244b23p-4\00", align 1
@.str.1848.48500 = private unnamed_addr constant [19 x i8] c"-0x1.4a1a403142p-4\00", align 1
@.str.1849.48501 = private unnamed_addr constant [19 x i8] c"-0x1.4a007392a5p-4\00", align 1
@.str.1850.48502 = private unnamed_addr constant [19 x i8] c"-0x1.49e4be9ccdp-4\00", align 1
@.str.1851.48503 = private unnamed_addr constant [19 x i8] c"-0x1.49c7218097p-4\00", align 1
@.str.1852.48504 = private unnamed_addr constant [19 x i8] c"-0x1.49a79c7243p-4\00", align 1
@.str.1853.48505 = private unnamed_addr constant [19 x i8] c"-0x1.49862fa942p-4\00", align 1
@.str.922.48506 = private unnamed_addr constant [19 x i8] c"-0x1.4962db6096p-4\00", align 1
@.str.1854.48507 = private unnamed_addr constant [18 x i8] c"-0x1.493d9fd65p-4\00", align 1
@.str.1855.48508 = private unnamed_addr constant [19 x i8] c"-0x1.49167d4c4cp-4\00", align 1
@.str.1856.48509 = private unnamed_addr constant [19 x i8] c"-0x1.48ed74074cp-4\00", align 1
@.str.1857.48510 = private unnamed_addr constant [19 x i8] c"-0x1.48c2844f8dp-4\00", align 1
@.str.1858.48511 = private unnamed_addr constant [19 x i8] c"-0x1.4895ae712fp-4\00", align 1
@.str.1859.48512 = private unnamed_addr constant [19 x i8] c"-0x1.4866f2bab5p-4\00", align 1
@.str.1860.48513 = private unnamed_addr constant [19 x i8] c"-0x1.4836517eb7p-4\00", align 1
@.str.1861.48514 = private unnamed_addr constant [19 x i8] c"-0x1.4803cb1293p-4\00", align 1
@.str.1862.48515 = private unnamed_addr constant [19 x i8] c"-0x1.47cf5fcfc2p-4\00", align 1
@.str.1863.48516 = private unnamed_addr constant [18 x i8] c"-0x1.479910126p-4\00", align 1
@.str.1864.48517 = private unnamed_addr constant [19 x i8] c"-0x1.4760dc3a2dp-4\00", align 1
@.str.1865.48518 = private unnamed_addr constant [19 x i8] c"-0x1.4726c4aa07p-4\00", align 1
@.str.1866.48519 = private unnamed_addr constant [19 x i8] c"-0x1.46eac9c886p-4\00", align 1
@.str.1867.48520 = private unnamed_addr constant [19 x i8] c"-0x1.46acebff33p-4\00", align 1
@.str.1868.48521 = private unnamed_addr constant [19 x i8] c"-0x1.466d2bbae1p-4\00", align 1
@.str.1869.48522 = private unnamed_addr constant [19 x i8] c"-0x1.462b896c2fp-4\00", align 1
@.str.1870.48523 = private unnamed_addr constant [19 x i8] c"-0x1.45e8058699p-4\00", align 1
@.str.1871.48524 = private unnamed_addr constant [19 x i8] c"-0x1.45a2a0812dp-4\00", align 1
@.str.1872.48525 = private unnamed_addr constant [19 x i8] c"-0x1.455b5ad5d9p-4\00", align 1
@.str.1873.48526 = private unnamed_addr constant [19 x i8] c"-0x1.4512350255p-4\00", align 1
@.str.1874.48527 = private unnamed_addr constant [19 x i8] c"-0x1.44c72f876ep-4\00", align 1
@.str.1875.48528 = private unnamed_addr constant [19 x i8] c"-0x1.447a4ae96fp-4\00", align 1
@.str.1876.48529 = private unnamed_addr constant [19 x i8] c"-0x1.442b87afb8p-4\00", align 1
@.str.1877.48530 = private unnamed_addr constant [19 x i8] c"-0x1.43dae664acp-4\00", align 1
@.str.1878.48531 = private unnamed_addr constant [19 x i8] c"-0x1.43886796cep-4\00", align 1
@.str.1879.48532 = private unnamed_addr constant [19 x i8] c"-0x1.43340bd727p-4\00", align 1
@.str.1880.48533 = private unnamed_addr constant [19 x i8] c"-0x1.42ddd3ba22p-4\00", align 1
@.str.1881.48534 = private unnamed_addr constant [19 x i8] c"-0x1.4285bfd7bbp-4\00", align 1
@.str.1882.48535 = private unnamed_addr constant [19 x i8] c"-0x1.422bd0cb36p-4\00", align 1
@.str.1883.48536 = private unnamed_addr constant [19 x i8] c"-0x1.41d007329dp-4\00", align 1
@.str.1884.48537 = private unnamed_addr constant [18 x i8] c"-0x1.417263afbp-4\00", align 1
@.str.1885.48538 = private unnamed_addr constant [19 x i8] c"-0x1.4112e6e753p-4\00", align 1
@.str.1886.48539 = private unnamed_addr constant [19 x i8] c"-0x1.40b1918199p-4\00", align 1
@.str.1887.48540 = private unnamed_addr constant [19 x i8] c"-0x1.404e6429fep-4\00", align 1
@.str.1888.48541 = private unnamed_addr constant [19 x i8] c"-0x1.3fe95f8efap-4\00", align 1
@.str.1889.48542 = private unnamed_addr constant [19 x i8] c"-0x1.3f82846257p-4\00", align 1
@.str.1890.48543 = private unnamed_addr constant [19 x i8] c"-0x1.3f19d35945p-4\00", align 1
@.str.1891.48544 = private unnamed_addr constant [19 x i8] c"-0x1.3eaf4d2bfep-4\00", align 1
@.str.1892.48545 = private unnamed_addr constant [19 x i8] c"-0x1.3e42f2960fp-4\00", align 1
@.str.1893.48546 = private unnamed_addr constant [19 x i8] c"-0x1.3dd4c4560ep-4\00", align 1
@.str.1894.48547 = private unnamed_addr constant [19 x i8] c"-0x1.3d64c32df8p-4\00", align 1
@.str.1895.48548 = private unnamed_addr constant [19 x i8] c"-0x1.3cf2efe32fp-4\00", align 1
@.str.1896.48549 = private unnamed_addr constant [19 x i8] c"-0x1.3c7f4b3d76p-4\00", align 1
@.str.1897.48550 = private unnamed_addr constant [19 x i8] c"-0x1.3c09d608dap-4\00", align 1
@.str.1898.48551 = private unnamed_addr constant [19 x i8] c"-0x1.3b929113b5p-4\00", align 1
@.str.1899.48552 = private unnamed_addr constant [18 x i8] c"-0x1.3b197d2fdp-4\00", align 1
@.str.1900.48553 = private unnamed_addr constant [19 x i8] c"-0x1.3a9e9b327bp-4\00", align 1
@.str.1901.48554 = private unnamed_addr constant [19 x i8] c"-0x1.3a21ebf3ecp-4\00", align 1
@.str.1902.48555 = private unnamed_addr constant [19 x i8] c"-0x1.39a3704f1ep-4\00", align 1
@.str.1903.48556 = private unnamed_addr constant [19 x i8] c"-0x1.3923292326p-4\00", align 1
@.str.1904.48557 = private unnamed_addr constant [19 x i8] c"-0x1.38a11750f7p-4\00", align 1
@.str.1905.48558 = private unnamed_addr constant [19 x i8] c"-0x1.381d3bbe0cp-4\00", align 1
@.str.1906.48559 = private unnamed_addr constant [19 x i8] c"-0x1.37979751bfp-4\00", align 1
@.str.1907.48560 = private unnamed_addr constant [19 x i8] c"-0x1.37102af7a1p-4\00", align 1
@.str.1908.48561 = private unnamed_addr constant [19 x i8] c"-0x1.3686f79d8dp-4\00", align 1
@.str.1909.48562 = private unnamed_addr constant [19 x i8] c"-0x1.35fbfe34c3p-4\00", align 1
@.str.1910.48563 = private unnamed_addr constant [18 x i8] c"-0x1.356f3fb1cp-4\00", align 1
@.str.1911.48564 = private unnamed_addr constant [19 x i8] c"-0x1.34e0bd0c11p-4\00", align 1
@.str.1912.48565 = private unnamed_addr constant [19 x i8] c"-0x1.3450773e3bp-4\00", align 1
@.str.1913.48566 = private unnamed_addr constant [19 x i8] c"-0x1.33be6f45afp-4\00", align 1
@.str.1914.48567 = private unnamed_addr constant [19 x i8] c"-0x1.332aa6235dp-4\00", align 1
@.str.1915.48568 = private unnamed_addr constant [19 x i8] c"-0x1.32951cdb3ep-4\00", align 1
@.str.1916.48569 = private unnamed_addr constant [19 x i8] c"-0x1.31fdd473e3p-4\00", align 1
@.str.1917.48570 = private unnamed_addr constant [19 x i8] c"-0x1.3164cdf722p-4\00", align 1
@.str.1918.48571 = private unnamed_addr constant [19 x i8] c"-0x1.30ca0a7218p-4\00", align 1
@.str.1919.48572 = private unnamed_addr constant [18 x i8] c"-0x1.302d8af4fp-4\00", align 1
@.str.1920.48573 = private unnamed_addr constant [19 x i8] c"-0x1.2f8f50927bp-4\00", align 1
@.str.1921.48574 = private unnamed_addr constant [19 x i8] c"-0x1.2eef5c60b8p-4\00", align 1
@.str.1922.48575 = private unnamed_addr constant [19 x i8] c"-0x1.2e4daf78bcp-4\00", align 1
@.str.1923.48576 = private unnamed_addr constant [19 x i8] c"-0x1.2daa4af6a3p-4\00", align 1
@.str.1924.48577 = private unnamed_addr constant [19 x i8] c"-0x1.2d052ff991p-4\00", align 1
@.str.1925.48578 = private unnamed_addr constant [19 x i8] c"-0x1.2c5e5fa36cp-4\00", align 1
@.str.1926.48579 = private unnamed_addr constant [19 x i8] c"-0x1.2bb5db1931p-4\00", align 1
@.str.1927.48580 = private unnamed_addr constant [19 x i8] c"-0x1.2b0ba38309p-4\00", align 1
@.str.1928.48581 = private unnamed_addr constant [19 x i8] c"-0x1.2a5fba0bb2p-4\00", align 1
@.str.1929.48582 = private unnamed_addr constant [19 x i8] c"-0x1.29b21fe158p-4\00", align 1
@.str.1930.48583 = private unnamed_addr constant [19 x i8] c"-0x1.2902d6348ep-4\00", align 1
@.str.1931.48584 = private unnamed_addr constant [19 x i8] c"-0x1.2851de396ap-4\00", align 1
@.str.1932.48585 = private unnamed_addr constant [18 x i8] c"-0x1.279f39266p-4\00", align 1
@.str.1933.48586 = private unnamed_addr constant [19 x i8] c"-0x1.26eae83517p-4\00", align 1
@.str.1934.48587 = private unnamed_addr constant [19 x i8] c"-0x1.2634eca244p-4\00", align 1
@.str.1935.48588 = private unnamed_addr constant [19 x i8] c"-0x1.257d47ad3bp-4\00", align 1
@.str.1936.48589 = private unnamed_addr constant [18 x i8] c"-0x1.24c3fa984p-4\00", align 1
@.str.1937.48590 = private unnamed_addr constant [19 x i8] c"-0x1.240906a8abp-4\00", align 1
@.str.1938.48591 = private unnamed_addr constant [19 x i8] c"-0x1.234c6d2682p-4\00", align 1
@.str.1939.48592 = private unnamed_addr constant [19 x i8] c"-0x1.228e2f5cacp-4\00", align 1
@.str.1940.48593 = private unnamed_addr constant [18 x i8] c"-0x1.21ce4e992p-4\00", align 1
@.str.1941.48594 = private unnamed_addr constant [19 x i8] c"-0x1.210ccc2c4ep-4\00", align 1
@.str.1942.48595 = private unnamed_addr constant [19 x i8] c"-0x1.2049a969b1p-4\00", align 1
@.str.1943.48596 = private unnamed_addr constant [19 x i8] c"-0x1.1f84e7a7bbp-4\00", align 1
@.str.1944.48597 = private unnamed_addr constant [19 x i8] c"-0x1.1ebe883f4cp-4\00", align 1
@.str.1945.48598 = private unnamed_addr constant [19 x i8] c"-0x1.1df68c8c76p-4\00", align 1
@.str.1946.48599 = private unnamed_addr constant [19 x i8] c"-0x1.1d2cf5edfbp-4\00", align 1
@.str.1947.48600 = private unnamed_addr constant [19 x i8] c"-0x1.1c61c5c529p-4\00", align 1
@.str.1948.48601 = private unnamed_addr constant [19 x i8] c"-0x1.1b94fd7637p-4\00", align 1
@.str.1949.48602 = private unnamed_addr constant [19 x i8] c"-0x1.1ac69e6851p-4\00", align 1
@.str.1950.48603 = private unnamed_addr constant [19 x i8] c"-0x1.19f6aa0536p-4\00", align 1
@.str.1951.48604 = private unnamed_addr constant [19 x i8] c"-0x1.192521b94bp-4\00", align 1
@.str.1952.48605 = private unnamed_addr constant [19 x i8] c"-0x1.185206f40bp-4\00", align 1
@.str.1953.48606 = private unnamed_addr constant [19 x i8] c"-0x1.177d5b26edp-4\00", align 1
@.str.1954.48607 = private unnamed_addr constant [19 x i8] c"-0x1.16a71fc724p-4\00", align 1
@.str.1955.48608 = private unnamed_addr constant [19 x i8] c"-0x1.15cf564b97p-4\00", align 1
@.str.1956.48609 = private unnamed_addr constant [19 x i8] c"-0x1.14f6002e85p-4\00", align 1
@.str.1957.48610 = private unnamed_addr constant [19 x i8] c"-0x1.141b1eecd5p-4\00", align 1
@.str.1958.48611 = private unnamed_addr constant [19 x i8] c"-0x1.133eb405a2p-4\00", align 1
@.str.1959.48612 = private unnamed_addr constant [19 x i8] c"-0x1.1260c0fb0ep-4\00", align 1
@.str.1960.48613 = private unnamed_addr constant [19 x i8] c"-0x1.11814751b6p-4\00", align 1
@.str.1961.48614 = private unnamed_addr constant [19 x i8] c"-0x1.10a04890f6p-4\00", align 1
@_ZN19fourth_order_doubleL10sin_cos_K1E = internal global [256 x %"struct.ap_uint<52>.91"] zeroinitializer, align 8
@.str.1471.48615 = private unnamed_addr constant [9 x i8] c"0x8.p-52\00", align 1
@.str.1472.48616 = private unnamed_addr constant [20 x i8] c"-0x1.3bd34abaf94p-8\00", align 1
@.str.1473.48617 = private unnamed_addr constant [19 x i8] c"-0x2.77a38a3203p-8\00", align 1
@.str.1474.48618 = private unnamed_addr constant [19 x i8] c"-0x3.b36db328afp-8\00", align 1
@.str.1475.48619 = private unnamed_addr constant [20 x i8] c"-0x4.ef2eba71914p-8\00", align 1
@.str.1476.48620 = private unnamed_addr constant [20 x i8] c"-0x6.2ae394f5cdap-8\00", align 1
@.str.1477.48621 = private unnamed_addr constant [20 x i8] c"-0x7.668937bc896p-8\00", align 1
@.str.1478.48622 = private unnamed_addr constant [20 x i8] c"-0x8.a21c97f27ccp-8\00", align 1
@.str.1479.48623 = private unnamed_addr constant [20 x i8] c"-0x9.dd9aaaf16c2p-8\00", align 1
@.str.1480.48624 = private unnamed_addr constant [20 x i8] c"-0xb.19006647a9cp-8\00", align 1
@.str.1481.48625 = private unnamed_addr constant [19 x i8] c"-0xc.544abfbf99p-8\00", align 1
@.str.1482.48626 = private unnamed_addr constant [20 x i8] c"-0xd.8f76ad672eep-8\00", align 1
@.str.1483.48627 = private unnamed_addr constant [20 x i8] c"-0xe.ca8125976aap-8\00", align 1
@.str.1484.48628 = private unnamed_addr constant [21 x i8] c"-0x1.005671efbde6p-4\00", align 1
@.str.1485.48629 = private unnamed_addr constant [21 x i8] c"-0x1.14025909a2a6p-4\00", align 1
@.str.1486.48630 = private unnamed_addr constant [21 x i8] c"-0x1.27ab971d971ep-4\00", align 1
@.str.1487.48631 = private unnamed_addr constant [20 x i8] c"-0x1.3b51fba89e6p-4\00", align 1
@.str.1488.48632 = private unnamed_addr constant [21 x i8] c"-0x1.4ef5562ec2f4p-4\00", align 1
@.str.1489.48633 = private unnamed_addr constant [21 x i8] c"-0x1.6295763b8f9ep-4\00", align 1
@.str.1490.48634 = private unnamed_addr constant [21 x i8] c"-0x1.76322b628608p-4\00", align 1
@.str.1491.48635 = private unnamed_addr constant [21 x i8] c"-0x1.89cb453f969cp-4\00", align 1
@.str.1492.48636 = private unnamed_addr constant [21 x i8] c"-0x1.9d6093779806p-4\00", align 1
@.str.1493.48637 = private unnamed_addr constant [21 x i8] c"-0x1.b0f1e5b8be48p-4\00", align 1
@.str.1494.48638 = private unnamed_addr constant [21 x i8] c"-0x1.c47f0bbb11fcp-4\00", align 1
@.str.1495.48639 = private unnamed_addr constant [21 x i8] c"-0x1.d807d540e7b2p-4\00", align 1
@.str.1496.48640 = private unnamed_addr constant [21 x i8] c"-0x1.eb8c12175692p-4\00", align 1
@.str.1497.48641 = private unnamed_addr constant [21 x i8] c"-0x1.ff0b9216afb8p-4\00", align 1
@.str.1498.48642 = private unnamed_addr constant [20 x i8] c"-0x2.12862522f4bp-4\00", align 1
@.str.1499.48643 = private unnamed_addr constant [21 x i8] c"-0x2.25fb9b2c4e36p-4\00", align 1
@.str.1500.48644 = private unnamed_addr constant [21 x i8] c"-0x2.396bc42f82dcp-4\00", align 1
@.str.1501.48645 = private unnamed_addr constant [20 x i8] c"-0x2.4cd670366dfp-4\00", align 1
@.str.1502.48646 = private unnamed_addr constant [21 x i8] c"-0x2.603b6f5874aap-4\00", align 1
@.str.1503.48647 = private unnamed_addr constant [20 x i8] c"-0x2.739a91bafddp-4\00", align 1
@.str.1504.48648 = private unnamed_addr constant [21 x i8] c"-0x2.86f3a791e6b2p-4\00", align 1
@.str.1505.48649 = private unnamed_addr constant [21 x i8] c"-0x2.9a46811ff99cp-4\00", align 1
@.str.1506.48650 = private unnamed_addr constant [20 x i8] c"-0x2.ad92eeb7639p-4\00", align 1
@.str.1507.48651 = private unnamed_addr constant [20 x i8] c"-0x2.c0d8c0ba29cp-4\00", align 1
@.str.1508.48652 = private unnamed_addr constant [21 x i8] c"-0x2.d417c79a9f1ep-4\00", align 1
@.str.1509.48653 = private unnamed_addr constant [21 x i8] c"-0x2.e74fd3dbda0cp-4\00", align 1
@.str.1510.48654 = private unnamed_addr constant [19 x i8] c"-0x2.fa80b61229p-4\00", align 1
@.str.1511.48655 = private unnamed_addr constant [21 x i8] c"-0x3.0daa3ee3879ap-4\00", align 1
@.str.1512.48656 = private unnamed_addr constant [20 x i8] c"-0x3.20cc3f0813fp-4\00", align 1
@.str.1513.48657 = private unnamed_addr constant [20 x i8] c"-0x3.33e6874a82bp-4\00", align 1
@.str.1514.48658 = private unnamed_addr constant [21 x i8] c"-0x3.46f8e88893aep-4\00", align 1
@.str.1515.48659 = private unnamed_addr constant [21 x i8] c"-0x3.5a0333b386d6p-4\00", align 1
@.str.1516.48660 = private unnamed_addr constant [21 x i8] c"-0x3.6d0539d08f1ap-4\00", align 1
@.str.1517.48661 = private unnamed_addr constant [20 x i8] c"-0x3.7ffecbf947ap-4\00", align 1
@.str.1518.48662 = private unnamed_addr constant [21 x i8] c"-0x3.92efbb5c2664p-4\00", align 1
@.str.1519.48663 = private unnamed_addr constant [21 x i8] c"-0x3.a5d7d93cf08ep-4\00", align 1
@.str.1520.48664 = private unnamed_addr constant [21 x i8] c"-0x3.b8b6f6f52d4ap-4\00", align 1
@.str.1521.48665 = private unnamed_addr constant [21 x i8] c"-0x3.cb8ce5f4991cp-4\00", align 1
@.str.1522.48666 = private unnamed_addr constant [21 x i8] c"-0x3.de5977c198a8p-4\00", align 1
@.str.1523.48667 = private unnamed_addr constant [21 x i8] c"-0x3.f11c7df9ab6cp-4\00", align 1
@.str.1524.48668 = private unnamed_addr constant [19 x i8] c"-0x4.03d5ca51dep-4\00", align 1
@.str.1525.48669 = private unnamed_addr constant [21 x i8] c"-0x4.16852e973ccep-4\00", align 1
@.str.1526.48670 = private unnamed_addr constant [21 x i8] c"-0x4.292a7caf4568p-4\00", align 1
@.str.1527.48671 = private unnamed_addr constant [21 x i8] c"-0x4.3bc5869858eap-4\00", align 1
@.str.1528.48672 = private unnamed_addr constant [19 x i8] c"-0x4.4e561e6a2dp-4\00", align 1
@.str.1529.48673 = private unnamed_addr constant [21 x i8] c"-0x4.60dc16563d62p-4\00", align 1
@.str.1530.48674 = private unnamed_addr constant [19 x i8] c"-0x4.735740a83dp-4\00", align 1
@.str.1531.48675 = private unnamed_addr constant [21 x i8] c"-0x4.85c76fc68662p-4\00", align 1
@.str.1532.48676 = private unnamed_addr constant [21 x i8] c"-0x4.982c76328cbcp-4\00", align 1
@.str.1533.48677 = private unnamed_addr constant [21 x i8] c"-0x4.aa8626894b64p-4\00", align 1
@.str.1534.48678 = private unnamed_addr constant [21 x i8] c"-0x4.bcd45383b6bcp-4\00", align 1
@.str.1535.48679 = private unnamed_addr constant [21 x i8] c"-0x4.cf16cff72b0ap-4\00", align 1
@.str.1536.48680 = private unnamed_addr constant [21 x i8] c"-0x4.e14d6ed5dcb4p-4\00", align 1
@.str.1537.48681 = private unnamed_addr constant [21 x i8] c"-0x4.f378032f46bcp-4\00", align 1
@.str.1538.48682 = private unnamed_addr constant [21 x i8] c"-0x5.059660309a26p-4\00", align 1
@.str.1539.48683 = private unnamed_addr constant [21 x i8] c"-0x5.17a859252c12p-4\00", align 1
@.str.1540.48684 = private unnamed_addr constant [21 x i8] c"-0x5.29adc176e494p-4\00", align 1
@.str.1541.48685 = private unnamed_addr constant [21 x i8] c"-0x5.3ba66caeac78p-4\00", align 1
@.str.1542.48686 = private unnamed_addr constant [21 x i8] c"-0x5.4d922e74daa8p-4\00", align 1
@.str.1543.48687 = private unnamed_addr constant [21 x i8] c"-0x5.5f70da91a264p-4\00", align 1
@.str.1544.48688 = private unnamed_addr constant [21 x i8] c"-0x5.714244ed7f2ap-4\00", align 1
@.str.1545.48689 = private unnamed_addr constant [21 x i8] c"-0x5.83064191a2f8p-4\00", align 1
@.str.1546.48690 = private unnamed_addr constant [21 x i8] c"-0x5.94bca4a86152p-4\00", align 1
@.str.1547.48691 = private unnamed_addr constant [21 x i8] c"-0x5.a665427d9c7ap-4\00", align 1
@.str.1548.48692 = private unnamed_addr constant [21 x i8] c"-0x5.b7ffef7f30eep-4\00", align 1
@.str.1549.48693 = private unnamed_addr constant [21 x i8] c"-0x5.c98c803d6092p-4\00", align 1
@.str.1550.48694 = private unnamed_addr constant [21 x i8] c"-0x5.db0ac96b3e5ap-4\00", align 1
@.str.1551.48695 = private unnamed_addr constant [21 x i8] c"-0x5.ec7a9fdf190cp-4\00", align 1
@.str.1552.48696 = private unnamed_addr constant [21 x i8] c"-0x5.fddbd892e568p-4\00", align 1
@.str.1553.48697 = private unnamed_addr constant [21 x i8] c"-0x6.0f2e48a4a8aap-4\00", align 1
@.str.1554.48698 = private unnamed_addr constant [21 x i8] c"-0x6.2071c556e23ep-4\00", align 1
@.str.1555.48699 = private unnamed_addr constant [21 x i8] c"-0x6.31a62410f548p-4\00", align 1
@.str.1556.48700 = private unnamed_addr constant [21 x i8] c"-0x6.42cb3a5f9158p-4\00", align 1
@.str.1557.48701 = private unnamed_addr constant [21 x i8] c"-0x6.53e0ddf51beep-4\00", align 1
@.str.1558.48702 = private unnamed_addr constant [21 x i8] c"-0x6.64e6e4aa1804p-4\00", align 1
@.str.1559.48703 = private unnamed_addr constant [21 x i8] c"-0x6.75dd247d8eaap-4\00", align 1
@.str.1560.48704 = private unnamed_addr constant [21 x i8] c"-0x6.86c373957652p-4\00", align 1
@.str.1561.48705 = private unnamed_addr constant [21 x i8] c"-0x6.9799a83f1a38p-4\00", align 1
@.str.1562.48706 = private unnamed_addr constant [21 x i8] c"-0x6.a85f98ef8162p-4\00", align 1
@.str.1563.48707 = private unnamed_addr constant [21 x i8] c"-0x6.b9151c43d4b4p-4\00", align 1
@.str.1564.48708 = private unnamed_addr constant [21 x i8] c"-0x6.c9ba0901c5d2p-4\00", align 1
@.str.1565.48709 = private unnamed_addr constant [21 x i8] c"-0x6.da4e3617f3dcp-4\00", align 1
@.str.1566.48710 = private unnamed_addr constant [21 x i8] c"-0x6.ead17a9e51b4p-4\00", align 1
@.str.1567.48711 = private unnamed_addr constant [21 x i8] c"-0x6.fb43add68a2ap-4\00", align 1
@.str.1568.48712 = private unnamed_addr constant [21 x i8] c"-0x7.0ba4a72c64f6p-4\00", align 1
@.str.1569.48713 = private unnamed_addr constant [21 x i8] c"-0x7.1bf43e362af4p-4\00", align 1
@.str.1570.48714 = private unnamed_addr constant [21 x i8] c"-0x7.2c324ab5094cp-4\00", align 1
@.str.1571.48715 = private unnamed_addr constant [21 x i8] c"-0x7.3c5ea495755cp-4\00", align 1
@.str.1572.48716 = private unnamed_addr constant [21 x i8] c"-0x7.4c7923ef8f16p-4\00", align 1
@.str.1573.48717 = private unnamed_addr constant [21 x i8] c"-0x7.5c81a10783e4p-4\00", align 1
@.str.1574.48718 = private unnamed_addr constant [21 x i8] c"-0x7.6c77f44df062p-4\00", align 1
@.str.1575.48719 = private unnamed_addr constant [21 x i8] c"-0x7.7c5bf660422cp-4\00", align 1
@.str.1576.48720 = private unnamed_addr constant [21 x i8] c"-0x7.8c2d800918fcp-4\00", align 1
@.str.1577.48721 = private unnamed_addr constant [21 x i8] c"-0x7.9bec6a40a75cp-4\00", align 1
@.str.1578.48722 = private unnamed_addr constant [21 x i8] c"-0x7.ab988e2d1314p-4\00", align 1
@.str.1579.48723 = private unnamed_addr constant [21 x i8] c"-0x7.bb31c522d4dcp-4\00", align 1
@.str.1580.48724 = private unnamed_addr constant [21 x i8] c"-0x7.cab7e8a517b2p-4\00", align 1
@.str.1581.48725 = private unnamed_addr constant [21 x i8] c"-0x7.da2ad266184ep-4\00", align 1
@.str.1582.48726 = private unnamed_addr constant [21 x i8] c"-0x7.e98a5c478322p-4\00", align 1
@.str.1583.48727 = private unnamed_addr constant [21 x i8] c"-0x7.f8d6605ad2aep-4\00", align 1
@.str.1584.48728 = private unnamed_addr constant [21 x i8] c"-0x8.080eb8e1acbap-4\00", align 1
@.str.1585.48729 = private unnamed_addr constant [21 x i8] c"-0x8.1733404e3ff2p-4\00", align 1
@.str.1586.48730 = private unnamed_addr constant [21 x i8] c"-0x8.2643d143a08cp-4\00", align 1
@.str.1587.48731 = private unnamed_addr constant [21 x i8] c"-0x8.3540469623bcp-4\00", align 1
@.str.1588.48732 = private unnamed_addr constant [20 x i8] c"-0x8.44287b4bbc9p-4\00", align 1
@.str.1589.48733 = private unnamed_addr constant [21 x i8] c"-0x8.52fc4a9c561ep-4\00", align 1
@.str.1590.48734 = private unnamed_addr constant [21 x i8] c"-0x8.61bb8ff22eeap-4\00", align 1
@.str.1591.48735 = private unnamed_addr constant [21 x i8] c"-0x8.706626ea32e4p-4\00", align 1
@.str.1592.48736 = private unnamed_addr constant [21 x i8] c"-0x8.7efbeb545568p-4\00", align 1
@.str.1593.48737 = private unnamed_addr constant [20 x i8] c"-0x8.8d7cb933ea4p-4\00", align 1
@.str.1594.48738 = private unnamed_addr constant [21 x i8] c"-0x8.9be86cbffe8ap-4\00", align 1
@.str.1595.48739 = private unnamed_addr constant [21 x i8] c"-0x8.aa3ee263b144p-4\00", align 1
@.str.1596.48740 = private unnamed_addr constant [21 x i8] c"-0x8.b87ff6be8ab4p-4\00", align 1
@.str.1597.48741 = private unnamed_addr constant [21 x i8] c"-0x8.c6ab86a4d3f4p-4\00", align 1
@.str.1598.48742 = private unnamed_addr constant [21 x i8] c"-0x8.d4c16f1fed9ep-4\00", align 1
@.str.1599.48743 = private unnamed_addr constant [10 x i8] c"-0x2.p-52\00", align 1
@.str.1600.48744 = private unnamed_addr constant [20 x i8] c"-0x5.2aedf31dbcp-12\00", align 1
@.str.1601.48745 = private unnamed_addr constant [20 x i8] c"-0xa.55d43fb846p-12\00", align 1
@.str.1602.48746 = private unnamed_addr constant [20 x i8] c"-0xf.80ab3f59aap-12\00", align 1
@.str.1603.48747 = private unnamed_addr constant [20 x i8] c"-0x1.4ab6b4ba722p-8\00", align 1
@.str.1604.48748 = private unnamed_addr constant [20 x i8] c"-0x1.9d60cbe6e56p-8\00", align 1
@.str.1605.48749 = private unnamed_addr constant [19 x i8] c"-0x1.f0087f1b2dp-8\00", align 1
@.str.781.48750 = private unnamed_addr constant [20 x i8] c"-0x2.42ad53fbb72p-8\00", align 1
@.str.1606.48751 = private unnamed_addr constant [20 x i8] c"-0x2.954ed03203ap-8\00", align 1
@.str.1607.48752 = private unnamed_addr constant [20 x i8] c"-0x2.e7ec796d724p-8\00", align 1
@.str.784.48753 = private unnamed_addr constant [20 x i8] c"-0x3.3a85d56426ap-8\00", align 1
@.str.1608.48754 = private unnamed_addr constant [20 x i8] c"-0x3.8d1a69d3d46p-8\00", align 1
@.str.786.48755 = private unnamed_addr constant [20 x i8] c"-0x3.dfa9bc829f4p-8\00", align 1
@.str.1609.48756 = private unnamed_addr constant [20 x i8] c"-0x4.3233533fe9cp-8\00", align 1
@.str.1610.48757 = private unnamed_addr constant [20 x i8] c"-0x4.84b6b3e5366p-8\00", align 1
@.str.1611.48758 = private unnamed_addr constant [20 x i8] c"-0x4.d7336456f74p-8\00", align 1
@.str.790.48759 = private unnamed_addr constant [20 x i8] c"-0x5.29a8ea85688p-8\00", align 1
@.str.791.48760 = private unnamed_addr constant [20 x i8] c"-0x5.7c16cc6d658p-8\00", align 1
@.str.1612.48761 = private unnamed_addr constant [20 x i8] c"-0x5.ce7c9019438p-8\00", align 1
@.str.793.48762 = private unnamed_addr constant [20 x i8] c"-0x6.20d9bba1a36p-8\00", align 1
@.str.1613.48763 = private unnamed_addr constant [20 x i8] c"-0x6.732dd52e4e2p-8\00", align 1
@.str.1614.48764 = private unnamed_addr constant [20 x i8] c"-0x6.c57862f704cp-8\00", align 1
@.str.1615.48765 = private unnamed_addr constant [20 x i8] c"-0x7.17b8eb445e6p-8\00", align 1
@.str.1616.48766 = private unnamed_addr constant [20 x i8] c"-0x7.69eef470996p-8\00", align 1
@.str.1617.48767 = private unnamed_addr constant [20 x i8] c"-0x7.bc1a04e86eap-8\00", align 1
@.str.1618.48768 = private unnamed_addr constant [20 x i8] c"-0x8.0e39a32bf46p-8\00", align 1
@.str.1619.48769 = private unnamed_addr constant [20 x i8] c"-0x8.604d55cf65cp-8\00", align 1
@.str.801.48770 = private unnamed_addr constant [20 x i8] c"-0x8.b254a37c02cp-8\00", align 1
@.str.1620.48771 = private unnamed_addr constant [20 x i8] c"-0x9.044f12f0dccp-8\00", align 1
@.str.1621.48772 = private unnamed_addr constant [20 x i8] c"-0x9.563c2b03b6ap-8\00", align 1
@.str.1622.48773 = private unnamed_addr constant [20 x i8] c"-0x9.a81b72a1d16p-8\00", align 1
@.str.1623.48774 = private unnamed_addr constant [20 x i8] c"-0x9.f9ec70d0c7cp-8\00", align 1
@.str.1624.48775 = private unnamed_addr constant [20 x i8] c"-0xa.4baeacaf5c2p-8\00", align 1
@.str.1625.48776 = private unnamed_addr constant [20 x i8] c"-0xa.9d61ad7653ap-8\00", align 1
@.str.1626.48777 = private unnamed_addr constant [20 x i8] c"-0xa.ef04fa794aap-8\00", align 1
@.str.1627.48778 = private unnamed_addr constant [20 x i8] c"-0xb.40981b27818p-8\00", align 1
@.str.1628.48779 = private unnamed_addr constant [20 x i8] c"-0xb.921a970cba2p-8\00", align 1
@.str.1629.48780 = private unnamed_addr constant [20 x i8] c"-0xb.e38bf5d206cp-8\00", align 1
@.str.1630.48781 = private unnamed_addr constant [20 x i8] c"-0xc.34ebbf3ea1cp-8\00", align 1
@.str.813.48782 = private unnamed_addr constant [20 x i8] c"-0xc.86397b38ba4p-8\00", align 1
@.str.1631.48783 = private unnamed_addr constant [20 x i8] c"-0xc.d774b1c64ecp-8\00", align 1
@.str.815.48784 = private unnamed_addr constant [20 x i8] c"-0xd.289ceb0df9ap-8\00", align 1
@.str.1632.48785 = private unnamed_addr constant [20 x i8] c"-0xd.79b1af57caep-8\00", align 1
@.str.1633.48786 = private unnamed_addr constant [20 x i8] c"-0xd.cab2870e184p-8\00", align 1
@.str.1634.48787 = private unnamed_addr constant [20 x i8] c"-0xe.1b9efabe484p-8\00", align 1
@.str.1635.48788 = private unnamed_addr constant [20 x i8] c"-0xe.6c769319b0cp-8\00", align 1
@.str.1636.48789 = private unnamed_addr constant [19 x i8] c"-0xe.bd38d8f661p-8\00", align 1
@.str.821.48790 = private unnamed_addr constant [20 x i8] c"-0xf.0de5554ff2ap-8\00", align 1
@.str.1637.48791 = private unnamed_addr constant [20 x i8] c"-0xf.5e7b91485cep-8\00", align 1
@.str.1638.48792 = private unnamed_addr constant [20 x i8] c"-0xf.aefb1628c9ap-8\00", align 1
@.str.1639.48793 = private unnamed_addr constant [20 x i8] c"-0xf.ff636d625dep-8\00", align 1
@.str.1640.48794 = private unnamed_addr constant [21 x i8] c"-0x1.04fb4208f0f4p-4\00", align 1
@.str.826.48795 = private unnamed_addr constant [21 x i8] c"-0x1.09fecb97273ep-4\00", align 1
@.str.1641.48796 = private unnamed_addr constant [21 x i8] c"-0x1.0f00cc1fa8f4p-4\00", align 1
@.str.1642.48797 = private unnamed_addr constant [21 x i8] c"-0x1.14013c440a5cp-4\00", align 1
@.str.829.48798 = private unnamed_addr constant [21 x i8] c"-0x1.190014a8a09cp-4\00", align 1
@.str.830.48799 = private unnamed_addr constant [21 x i8] c"-0x1.1dfd4df48e78p-4\00", align 1
@.str.1643.48800 = private unnamed_addr constant [21 x i8] c"-0x1.22f8e0d1d192p-4\00", align 1
@.str.832.48801 = private unnamed_addr constant [21 x i8] c"-0x1.27f2c5ed4efap-4\00", align 1
@.str.1644.48802 = private unnamed_addr constant [21 x i8] c"-0x1.2ceaf5f6e056p-4\00", align 1
@.str.1645.48803 = private unnamed_addr constant [21 x i8] c"-0x1.31e169a1606ep-4\00", align 1
@.str.1646.48804 = private unnamed_addr constant [21 x i8] c"-0x1.36d619a2b806p-4\00", align 1
@.str.836.48805 = private unnamed_addr constant [21 x i8] c"-0x1.3bc8feb3eb28p-4\00", align 1
@.str.1647.48806 = private unnamed_addr constant [21 x i8] c"-0x1.40ba119124f4p-4\00", align 1
@.str.1648.48807 = private unnamed_addr constant [20 x i8] c"-0x1.45a94af9c56p-4\00", align 1
@.str.1649.48808 = private unnamed_addr constant [21 x i8] c"-0x1.4a96a3b06d56p-4\00", align 1
@.str.1650.48809 = private unnamed_addr constant [21 x i8] c"-0x1.4f82147b0b58p-4\00", align 1
@.str.1651.48810 = private unnamed_addr constant [20 x i8] c"-0x1.546b9622e89p-4\00", align 1
@.str.1652.48811 = private unnamed_addr constant [21 x i8] c"-0x1.59532174b56ep-4\00", align 1
@.str.1653.48812 = private unnamed_addr constant [21 x i8] c"-0x1.5e38af40959ep-4\00", align 1
@.str.1654.48813 = private unnamed_addr constant [21 x i8] c"-0x1.631c385a2dcep-4\00", align 1
@.str.1655.48814 = private unnamed_addr constant [21 x i8] c"-0x1.67fdb598aedap-4\00", align 1
@.str.1656.48815 = private unnamed_addr constant [21 x i8] c"-0x1.6cdd1fd6e3aap-4\00", align 1
@.str.847.48816 = private unnamed_addr constant [21 x i8] c"-0x1.71ba6ff33c96p-4\00", align 1
@.str.848.48817 = private unnamed_addr constant [21 x i8] c"-0x1.76959ecfdccap-4\00", align 1
@.str.1657.48818 = private unnamed_addr constant [21 x i8] c"-0x1.7b6ea552a634p-4\00", align 1
@.str.1658.48819 = private unnamed_addr constant [21 x i8] c"-0x1.80457c654612p-4\00", align 1
@.str.1659.48820 = private unnamed_addr constant [21 x i8] c"-0x1.851a1cf54142p-4\00", align 1
@.str.1660.48821 = private unnamed_addr constant [21 x i8] c"-0x1.89ec7ff400f4p-4\00", align 1
@.str.853.48822 = private unnamed_addr constant [21 x i8] c"-0x1.8ebc9e56dec4p-4\00", align 1
@.str.1661.48823 = private unnamed_addr constant [21 x i8] c"-0x1.938a711730e8p-4\00", align 1
@.str.1662.48824 = private unnamed_addr constant [20 x i8] c"-0x1.9855f13256ap-4\00", align 1
@.str.1663.48825 = private unnamed_addr constant [21 x i8] c"-0x1.9d1f17a9c4c8p-4\00", align 1
@.str.1664.48826 = private unnamed_addr constant [21 x i8] c"-0x1.a1e5dd831194p-4\00", align 1
@.str.1665.48827 = private unnamed_addr constant [21 x i8] c"-0x1.a6aa3bc800dcp-4\00", align 1
@.str.859.48828 = private unnamed_addr constant [21 x i8] c"-0x1.ab6c2b869064p-4\00", align 1
@.str.1666.48829 = private unnamed_addr constant [21 x i8] c"-0x1.b02ba5d10418p-4\00", align 1
@.str.1667.48830 = private unnamed_addr constant [21 x i8] c"-0x1.b4e8a3bdf1f8p-4\00", align 1
@.str.1668.48831 = private unnamed_addr constant [21 x i8] c"-0x1.b9a31e684e28p-4\00", align 1
@.str.863.48832 = private unnamed_addr constant [21 x i8] c"-0x1.be5b0eef7706p-4\00", align 1
@.str.1669.48833 = private unnamed_addr constant [21 x i8] c"-0x1.c3106e77411cp-4\00", align 1
@.str.1670.48834 = private unnamed_addr constant [21 x i8] c"-0x1.c7c336280348p-4\00", align 1
@.str.1671.48835 = private unnamed_addr constant [21 x i8] c"-0x1.cc735f2ea284p-4\00", align 1
@.str.1672.48836 = private unnamed_addr constant [21 x i8] c"-0x1.d120e2bc9da2p-4\00", align 1
@.str.1673.48837 = private unnamed_addr constant [21 x i8] c"-0x1.d5cbba0819a4p-4\00", align 1
@.str.1674.48838 = private unnamed_addr constant [21 x i8] c"-0x1.da73de4beceap-4\00", align 1
@.str.1675.48839 = private unnamed_addr constant [20 x i8] c"-0x1.df1948c7abcp-4\00", align 1
@.str.1676.48840 = private unnamed_addr constant [20 x i8] c"-0x1.e3bbf2bfb35p-4\00", align 1
@.str.1677.48841 = private unnamed_addr constant [21 x i8] c"-0x1.e85bd57d3622p-4\00", align 1
@.str.1678.48842 = private unnamed_addr constant [21 x i8] c"-0x1.ecf8ea4e4742p-4\00", align 1
@.str.1679.48843 = private unnamed_addr constant [21 x i8] c"-0x1.f1932a85e60ap-4\00", align 1
@.str.1680.48844 = private unnamed_addr constant [21 x i8] c"-0x1.f62a8f7c09eap-4\00", align 1
@.str.1681.48845 = private unnamed_addr constant [20 x i8] c"-0x1.fabf128daddp-4\00", align 1
@.str.1682.48846 = private unnamed_addr constant [21 x i8] c"-0x1.ff50ad1cdba8p-4\00", align 1
@.str.1683.48847 = private unnamed_addr constant [21 x i8] c"-0x2.03df5890b80ep-4\00", align 1
@.str.1684.48848 = private unnamed_addr constant [21 x i8] c"-0x2.086b0e558da6p-4\00", align 1
@.str.1685.48849 = private unnamed_addr constant [21 x i8] c"-0x2.0cf3c7dcd876p-4\00", align 1
@.str.1686.48850 = private unnamed_addr constant [21 x i8] c"-0x2.11797e9d5188p-4\00", align 1
@.str.1687.48851 = private unnamed_addr constant [21 x i8] c"-0x2.15fc2c12fa0ep-4\00", align 1
@.str.1688.48852 = private unnamed_addr constant [21 x i8] c"-0x2.1a7bc9bf2694p-4\00", align 1
@.str.1689.48853 = private unnamed_addr constant [21 x i8] c"-0x2.1ef851288abap-4\00", align 1
@.str.1690.48854 = private unnamed_addr constant [21 x i8] c"-0x2.2371bbdb43e4p-4\00", align 1
@.str.1691.48855 = private unnamed_addr constant [21 x i8] c"-0x2.27e80368e4b4p-4\00", align 1
@.str.1692.48856 = private unnamed_addr constant [21 x i8] c"-0x2.2c5b2168804cp-4\00", align 1
@.str.1693.48857 = private unnamed_addr constant [21 x i8] c"-0x2.30cb0f76b52ep-4\00", align 1
@.str.1694.48858 = private unnamed_addr constant [21 x i8] c"-0x2.3537c735b84cp-4\00", align 1
@.str.1695.48859 = private unnamed_addr constant [20 x i8] c"-0x2.39a1424d603p-4\00", align 1
@.str.1696.48860 = private unnamed_addr constant [21 x i8] c"-0x2.3e077a6b2ffep-4\00", align 1
@.str.1697.48861 = private unnamed_addr constant [21 x i8] c"-0x2.426a69426228p-4\00", align 1
@.str.1698.48862 = private unnamed_addr constant [21 x i8] c"-0x2.46ca088bf3cap-4\00", align 1
@.str.1699.48863 = private unnamed_addr constant [21 x i8] c"-0x2.4b265206aec8p-4\00", align 1
@.str.1700.48864 = private unnamed_addr constant [21 x i8] c"-0x2.4f7f3f773578p-4\00", align 1
@.str.1701.48865 = private unnamed_addr constant [20 x i8] c"-0x2.53d4caa80cbp-4\00", align 1
@.str.1702.48866 = private unnamed_addr constant [21 x i8] c"-0x2.5826ed69a6cap-4\00", align 1
@.str.1703.48867 = private unnamed_addr constant [21 x i8] c"-0x2.5c75a1926e8cp-4\00", align 1
@.str.1704.48868 = private unnamed_addr constant [21 x i8] c"-0x2.60c0e0fed15cp-4\00", align 1
@.str.1705.48869 = private unnamed_addr constant [21 x i8] c"-0x2.6508a5914a1cp-4\00", align 1
@.str.1706.48870 = private unnamed_addr constant [21 x i8] c"-0x2.694ce9326b9cp-4\00", align 1
@_ZN19fourth_order_doubleL10sin_cos_K0E = internal global [256 x %"struct.ap_ufixed<59, 0, AP_TRN, AP_WRAP, 0>"] zeroinitializer, align 8
@.str.1290.48871 = private unnamed_addr constant [7 x i8] c"0x1.p0\00", align 1
@.str.1291.48872 = private unnamed_addr constant [22 x i8] c"0xf.ffec42c7454924p-4\00", align 1
@.str.1292.48873 = private unnamed_addr constant [22 x i8] c"0xf.ffb10b4dc96da8p-4\00", align 1
@.str.1293.48874 = private unnamed_addr constant [22 x i8] c"0xf.ff4e5a25a8d094p-4\00", align 1
@.str.1294.48875 = private unnamed_addr constant [22 x i8] c"0xf.fec43042668658p-4\00", align 1
@.str.1295.48876 = private unnamed_addr constant [22 x i8] c"0xf.fe128ef8e9fc14p-4\00", align 1
@.str.1296.48877 = private unnamed_addr constant [22 x i8] c"0xf.fd3977ff7bae48p-4\00", align 1
@.str.1297.48878 = private unnamed_addr constant [21 x i8] c"0xf.fc38ed6dc0ef9p-4\00", align 1
@.str.1298.48879 = private unnamed_addr constant [22 x i8] c"0xf.fb10f1bcb6bee8p-4\00", align 1
@.str.1299.48880 = private unnamed_addr constant [22 x i8] c"0xf.f9c187c6abaddcp-4\00", align 1
@.str.1300.48881 = private unnamed_addr constant [22 x i8] c"0xf.f84ab2c738d694p-4\00", align 1
@.str.1301.48882 = private unnamed_addr constant [22 x i8] c"0xf.f6ac765b39e1d8p-4\00", align 1
@.str.1302.48883 = private unnamed_addr constant [20 x i8] c"0xf.f4e6d680c41dp-4\00", align 1
@.str.1303.48884 = private unnamed_addr constant [22 x i8] c"0xf.f2f9d7971ca028p-4\00", align 1
@.str.1304.48885 = private unnamed_addr constant [21 x i8] c"0xf.f0e57e5ead848p-4\00", align 1
@.str.1305.48886 = private unnamed_addr constant [22 x i8] c"0xf.eea9cff8fa2ad4p-4\00", align 1
@.str.1306.48887 = private unnamed_addr constant [21 x i8] c"0xf.ec46d1e89292cp-4\00", align 1
@.str.1307.48888 = private unnamed_addr constant [22 x i8] c"0xf.e9bc8a1105c218p-4\00", align 1
@.str.1308.48889 = private unnamed_addr constant [22 x i8] c"0xf.e70afeb6d33d58p-4\00", align 1
@.str.1309.48890 = private unnamed_addr constant [22 x i8] c"0xf.e432367f5b9094p-4\00", align 1
@.str.1310.48891 = private unnamed_addr constant [21 x i8] c"0xf.e1323870cfe99p-4\00", align 1
@.str.1311.48892 = private unnamed_addr constant [22 x i8] c"0xf.de0b0bf220c2e8p-4\00", align 1
@.str.1312.48893 = private unnamed_addr constant [22 x i8] c"0xf.dabcb8caeba07cp-4\00", align 1
@.str.1313.48894 = private unnamed_addr constant [22 x i8] c"0xf.d747472367dd54p-4\00", align 1
@.str.1314.48895 = private unnamed_addr constant [22 x i8] c"0xf.d3aabf84528b38p-4\00", align 1
@.str.1315.48896 = private unnamed_addr constant [22 x i8] c"0xf.cfe72ad6d96404p-4\00", align 1
@.str.1316.48897 = private unnamed_addr constant [22 x i8] c"0xf.cbfc926484cd28p-4\00", align 1
@.str.1317.48898 = private unnamed_addr constant [22 x i8] c"0xf.c7eaffd720ed4cp-4\00", align 1
@.str.1318.48899 = private unnamed_addr constant [21 x i8] c"0xf.c3b27d38a5d48p-4\00", align 1
@.str.1319.48900 = private unnamed_addr constant [22 x i8] c"0xf.bf5314f31eb718p-4\00", align 1
@.str.1320.48901 = private unnamed_addr constant [22 x i8] c"0xf.baccd1d0903b94p-4\00", align 1
@.str.1321.48902 = private unnamed_addr constant [22 x i8] c"0xf.b61fbefadddb78p-4\00", align 1
@.str.1322.48903 = private unnamed_addr constant [22 x i8] c"0xf.b14be7fbae57f4p-4\00", align 1
@.str.1323.48904 = private unnamed_addr constant [21 x i8] c"0xf.ac5158bc4f41fp-4\00", align 1
@.str.1324.48905 = private unnamed_addr constant [22 x i8] c"0xf.a7301d85979644p-4\00", align 1
@.str.1325.48906 = private unnamed_addr constant [22 x i8] c"0xf.a1e842ffc96e2cp-4\00", align 1
@.str.1326.48907 = private unnamed_addr constant [21 x i8] c"0xf.9c79d63272c44p-4\00", align 1
@.str.1327.48908 = private unnamed_addr constant [22 x i8] c"0xf.96e4e4844d4e5cp-4\00", align 1
@.str.1328.48909 = private unnamed_addr constant [22 x i8] c"0xf.91297bbb1d6cb4p-4\00", align 1
@.str.1329.48910 = private unnamed_addr constant [21 x i8] c"0xf.8b47a9fb902e5p-4\00", align 1
@.str.1330.48911 = private unnamed_addr constant [22 x i8] c"0xf.853f7dc9186b6cp-4\00", align 1
@.str.1331.48912 = private unnamed_addr constant [21 x i8] c"0xf.7f110605caf61p-4\00", align 1
@.str.1332.48913 = private unnamed_addr constant [22 x i8] c"0xf.78bc51f239e104p-4\00", align 1
@.str.1333.48914 = private unnamed_addr constant [22 x i8] c"0xf.7241712d4eddb8p-4\00", align 1
@.str.1334.48915 = private unnamed_addr constant [22 x i8] c"0xf.6ba073b424b174p-4\00", align 1
@.str.1335.48916 = private unnamed_addr constant [22 x i8] c"0xf.64d969e1dfc1e4p-4\00", align 1
@.str.1336.48917 = private unnamed_addr constant [21 x i8] c"0xf.5dec646f85b9fp-4\00", align 1
@.str.1337.48918 = private unnamed_addr constant [21 x i8] c"0xf.56d97473d446ap-4\00", align 1
@.str.1338.48919 = private unnamed_addr constant [20 x i8] c"0xf.4fa0ab6316edp-4\00", align 1
@.str.1339.48920 = private unnamed_addr constant [22 x i8] c"0xf.48421b0efbf908p-4\00", align 1
@.str.1340.48921 = private unnamed_addr constant [21 x i8] c"0xf.40bdd5a668863p-4\00", align 1
@.str.1341.48922 = private unnamed_addr constant [21 x i8] c"0xf.3913edb54ba1fp-4\00", align 1
@.str.1342.48923 = private unnamed_addr constant [22 x i8] c"0xf.314476247088c4p-4\00", align 1
@.str.1343.48924 = private unnamed_addr constant [22 x i8] c"0xf.294f82394ffdfcp-4\00", align 1
@.str.1344.48925 = private unnamed_addr constant [20 x i8] c"0xf.21352595e0bfp-4\00", align 1
@.str.1345.48926 = private unnamed_addr constant [22 x i8] c"0xf.18f5743867122cp-4\00", align 1
@.str.1346.48927 = private unnamed_addr constant [22 x i8] c"0xf.1090827b437228p-4\00", align 1
@.str.1347.48928 = private unnamed_addr constant [21 x i8] c"0xf.08066514c055cp-4\00", align 1
@.str.1348.48929 = private unnamed_addr constant [22 x i8] c"0xe.ff573116df151cp-4\00", align 1
@.str.1349.48930 = private unnamed_addr constant [21 x i8] c"0xe.f682fbef23ecap-4\00", align 1
@.str.1350.48931 = private unnamed_addr constant [22 x i8] c"0xe.ed89db66611df4p-4\00", align 1
@.str.1351.48932 = private unnamed_addr constant [22 x i8] c"0xe.e46be5a0812fdcp-4\00", align 1
@.str.1352.48933 = private unnamed_addr constant [22 x i8] c"0xe.db29311c504d28p-4\00", align 1
@.str.1353.48934 = private unnamed_addr constant [22 x i8] c"0xe.d1c1d4b344c398p-4\00", align 1
@.str.1354.48935 = private unnamed_addr constant [22 x i8] c"0xe.c835e79946a2d4p-4\00", align 1
@.str.1355.48936 = private unnamed_addr constant [21 x i8] c"0xe.be85815c767c7p-4\00", align 1
@.str.1356.48937 = private unnamed_addr constant [21 x i8] c"0xe.b4b0b9e4f3452p-4\00", align 1
@.str.1357.48938 = private unnamed_addr constant [21 x i8] c"0xe.aab7a9749f581p-4\00", align 1
@.str.1358.48939 = private unnamed_addr constant [22 x i8] c"0xe.a09a68a6e49c94p-4\00", align 1
@.str.1359.48940 = private unnamed_addr constant [22 x i8] c"0xe.9659107077cf1cp-4\00", align 1
@.str.1360.48941 = private unnamed_addr constant [22 x i8] c"0xe.8bf3ba1f1aedb8p-4\00", align 1
@.str.1361.48942 = private unnamed_addr constant [22 x i8] c"0xe.816a7f595ec8dcp-4\00", align 1
@.str.1362.48943 = private unnamed_addr constant [22 x i8] c"0xe.76bd7a1e63b934p-4\00", align 1
@.str.1363.48944 = private unnamed_addr constant [22 x i8] c"0xe.6becc4c5997aa8p-4\00", align 1
@.str.1364.48945 = private unnamed_addr constant [22 x i8] c"0xe.60f879fe7e2dd8p-4\00", align 1
@.str.1365.48946 = private unnamed_addr constant [21 x i8] c"0xe.55e0b4d05c7ffp-4\00", align 1
@.str.1366.48947 = private unnamed_addr constant [21 x i8] c"0xe.4aa5909a08fa3p-4\00", align 1
@.str.1367.48948 = private unnamed_addr constant [22 x i8] c"0xe.3f4729119e7944p-4\00", align 1
@.str.1368.48949 = private unnamed_addr constant [22 x i8] c"0xe.33c59a4439cd44p-4\00", align 1
@.str.1369.48950 = private unnamed_addr constant [22 x i8] c"0xe.28210095b48328p-4\00", align 1
@.str.1370.48951 = private unnamed_addr constant [22 x i8] c"0xe.1c5978c05ed81cp-4\00", align 1
@.str.1371.48952 = private unnamed_addr constant [22 x i8] c"0xe.106f1fd4b8d77cp-4\00", align 1
@.str.1372.48953 = private unnamed_addr constant [22 x i8] c"0xe.046213392aa438p-4\00", align 1
@.str.1373.48954 = private unnamed_addr constant [22 x i8] c"0xd.f83270a9bbee38p-4\00", align 1
@.str.1374.48955 = private unnamed_addr constant [21 x i8] c"0xd.ebe05637ca948p-4\00", align 1
@.str.1375.48956 = private unnamed_addr constant [21 x i8] c"0xd.df6be249c074bp-4\00", align 1
@.str.1376.48957 = private unnamed_addr constant [22 x i8] c"0xd.d2d5339ac868dcp-4\00", align 1
@.str.1377.48958 = private unnamed_addr constant [22 x i8] c"0xd.c61c693a827408p-4\00", align 1
@.str.1378.48959 = private unnamed_addr constant [22 x i8] c"0xd.b941a28cb71e74p-4\00", align 1
@.str.1379.48960 = private unnamed_addr constant [22 x i8] c"0xd.ac44ff490a021cp-4\00", align 1
@.str.1380.48961 = private unnamed_addr constant [22 x i8] c"0xd.9f269f7aab886cp-4\00", align 1
@.str.1381.48962 = private unnamed_addr constant [21 x i8] c"0xd.91e6a38009d9cp-4\00", align 1
@.str.1382.48963 = private unnamed_addr constant [22 x i8] c"0xd.84852c0a80ff74p-4\00", align 1
@.str.1383.48964 = private unnamed_addr constant [21 x i8] c"0xd.77025a1e0a398p-4\00", align 1
@.str.1384.48965 = private unnamed_addr constant [22 x i8] c"0xd.695e4f10ea87fcp-4\00", align 1
@.str.1385.48966 = private unnamed_addr constant [22 x i8] c"0xd.5b992c8b6069dcp-4\00", align 1
@.str.1386.48967 = private unnamed_addr constant [22 x i8] c"0xd.4db3148750d128p-4\00", align 1
@.str.1387.48968 = private unnamed_addr constant [21 x i8] c"0xd.3fac294ff34dfp-4\00", align 1
@.str.1388.48969 = private unnamed_addr constant [22 x i8] c"0xd.31848d817d7084p-4\00", align 1
@.str.1389.48970 = private unnamed_addr constant [22 x i8] c"0xd.233c6408cd63c4p-4\00", align 1
@.str.1390.48971 = private unnamed_addr constant [21 x i8] c"0xd.14d3d02313c09p-4\00", align 1
@.str.1391.48972 = private unnamed_addr constant [22 x i8] c"0xd.064af55d7c9ae4p-4\00", align 1
@.str.1392.48973 = private unnamed_addr constant [22 x i8] c"0xc.f7a1f794d7c9bcp-4\00", align 1
@.str.1393.48974 = private unnamed_addr constant [22 x i8] c"0xc.e8d8faf5406a58p-4\00", align 1
@.str.1394.48975 = private unnamed_addr constant [22 x i8] c"0xc.d9f023f9c39ff8p-4\00", align 1
@.str.1395.48976 = private unnamed_addr constant [22 x i8] c"0xc.cae7976c0690b4p-4\00", align 1
@.str.1396.48977 = private unnamed_addr constant [22 x i8] c"0xc.bbbf7a63eba078p-4\00", align 1
@.str.1397.48978 = private unnamed_addr constant [21 x i8] c"0xc.ac77f24736eafp-4\00", align 1
@.str.1398.48979 = private unnamed_addr constant [22 x i8] c"0xc.9d1124c931fd44p-4\00", align 1
@.str.1399.48980 = private unnamed_addr constant [21 x i8] c"0xc.8d8b37ea4ed09p-4\00", align 1
@.str.1400.48981 = private unnamed_addr constant [22 x i8] c"0xc.7de651f7ca060cp-4\00", align 1
@.str.1401.48982 = private unnamed_addr constant [21 x i8] c"0xc.6e22998b4c65ap-4\00", align 1
@.str.1402.48983 = private unnamed_addr constant [22 x i8] c"0xc.5e40358a8b9ff4p-4\00", align 1
@.str.1403.48984 = private unnamed_addr constant [22 x i8] c"0xc.4e3f4d26ea54d4p-4\00", align 1
@.str.1404.48985 = private unnamed_addr constant [21 x i8] c"0xc.3e2007dd175efp-4\00", align 1
@.str.1405.48986 = private unnamed_addr constant [21 x i8] c"0xc.2de28d74ac65cp-4\00", align 1
@.str.1406.48987 = private unnamed_addr constant [22 x i8] c"0xc.1d8705ffcbb67cp-4\00", align 1
@.str.1407.48988 = private unnamed_addr constant [22 x i8] c"0xc.0d0d99dabd6568p-4\00", align 1
@.str.1408.48989 = private unnamed_addr constant [21 x i8] c"0xb.fc7671ab8bb7ep-4\00", align 1
@.str.1409.48990 = private unnamed_addr constant [22 x i8] c"0xb.ebc1b6619ed8a4p-4\00", align 1
@.str.1410.48991 = private unnamed_addr constant [20 x i8] c"0xb.daef913557d7p-4\00", align 1
@.str.1411.48992 = private unnamed_addr constant [21 x i8] c"0xb.ca002ba7aaf1fp-4\00", align 1
@.str.1412.48993 = private unnamed_addr constant [22 x i8] c"0xb.b8f3af81b93028p-4\00", align 1
@.str.1413.48994 = private unnamed_addr constant [21 x i8] c"0xb.a7ca46d469461p-4\00", align 1
@.str.1414.48995 = private unnamed_addr constant [21 x i8] c"0xb.96841bf7ffcabp-4\00", align 1
@.str.1415.48996 = private unnamed_addr constant [21 x i8] c"0xb.8521598bb6bc7p-4\00", align 1
@.str.1416.48997 = private unnamed_addr constant [21 x i8] c"0xb.73a22a755456dp-4\00", align 1
@.str.1417.48998 = private unnamed_addr constant [22 x i8] c"0xb.6206b9e0c13a14p-4\00", align 1
@.str.645.48999 = private unnamed_addr constant [22 x i8] c"0xc.90fdaa22168c24p-4\00", align 1
@.str.1418.49000 = private unnamed_addr constant [22 x i8] c"0xc.90f87f3380388cp-4\00", align 1
@.str.1419.49001 = private unnamed_addr constant [22 x i8] c"0xc.90e8fe6f63c234p-4\00", align 1
@.str.1420.49002 = private unnamed_addr constant [21 x i8] c"0xc.90cf27ecb4a8dp-4\00", align 1
@.str.649.49003 = private unnamed_addr constant [22 x i8] c"0xc.90aafbd1b33efcp-4\00", align 1
@.str.650.49004 = private unnamed_addr constant [22 x i8] c"0xc.907c7a53ec66ccp-4\00", align 1
@.str.651.49005 = private unnamed_addr constant [22 x i8] c"0xc.9043a3b8393364p-4\00", align 1
@.str.652.49006 = private unnamed_addr constant [22 x i8] c"0xc.90007852be6fa8p-4\00", align 1
@.str.1421.49007 = private unnamed_addr constant [22 x i8] c"0xc.8fb2f886ec09f4p-4\00", align 1
@.str.654.49008 = private unnamed_addr constant [22 x i8] c"0xc.8f5b24c77c64ccp-4\00", align 1
@.str.655.49009 = private unnamed_addr constant [22 x i8] c"0xc.8ef8fd96738cc4p-4\00", align 1
@.str.656.49010 = private unnamed_addr constant [22 x i8] c"0xc.8e8c83851e5344p-4\00", align 1
@.str.657.49011 = private unnamed_addr constant [22 x i8] c"0xc.8e15b734114e88p-4\00", align 1
@.str.658.49012 = private unnamed_addr constant [21 x i8] c"0xc.8d94995327be9p-4\00", align 1
@.str.659.49013 = private unnamed_addr constant [22 x i8] c"0xc.8d092aa1825748p-4\00", align 1
@.str.660.49014 = private unnamed_addr constant [22 x i8] c"0xc.8c736bed85efa4p-4\00", align 1
@.str.661.49015 = private unnamed_addr constant [21 x i8] c"0xc.8bd35e14da15fp-4\00", align 1
@.str.662.49016 = private unnamed_addr constant [22 x i8] c"0xc.8b290204678928p-4\00", align 1
@.str.663.49017 = private unnamed_addr constant [22 x i8] c"0xc.8a7458b8569788p-4\00", align 1
@.str.664.49018 = private unnamed_addr constant [21 x i8] c"0xc.89b5633c0d622p-4\00", align 1
@.str.665.49019 = private unnamed_addr constant [22 x i8] c"0xc.88ec22aa2e05acp-4\00", align 1
@.str.1422.49020 = private unnamed_addr constant [22 x i8] c"0xc.8818982c94a878p-4\00", align 1
@.str.1423.49021 = private unnamed_addr constant [21 x i8] c"0xc.873ac4fc556d9p-4\00", align 1
@.str.1424.49022 = private unnamed_addr constant [22 x i8] c"0xc.8652aa61ba4d04p-4\00", align 1
@.str.1425.49023 = private unnamed_addr constant [22 x i8] c"0xc.856049b440d168p-4\00", align 1
@.str.1426.49024 = private unnamed_addr constant [21 x i8] c"0xc.8463a45a97babp-4\00", align 1
@.str.1427.49025 = private unnamed_addr constant [22 x i8] c"0xc.835cbbca9c860cp-4\00", align 1
@.str.672.49026 = private unnamed_addr constant [22 x i8] c"0xc.824b918958db3cp-4\00", align 1
@.str.673.49027 = private unnamed_addr constant [22 x i8] c"0xc.8130272affdf08p-4\00", align 1
@.str.674.49028 = private unnamed_addr constant [22 x i8] c"0xc.800a7e52eb6b28p-4\00", align 1
@.str.1428.49029 = private unnamed_addr constant [22 x i8] c"0xc.7eda98b3992b54p-4\00", align 1
@.str.676.49030 = private unnamed_addr constant [22 x i8] c"0xc.7da0780ea79fd8p-4\00", align 1
@.str.677.49031 = private unnamed_addr constant [22 x i8] c"0xc.7c5c1e34d30558p-4\00", align 1
@.str.1429.49032 = private unnamed_addr constant [22 x i8] c"0xc.7b0d8d05f2221cp-4\00", align 1
@.str.679.49033 = private unnamed_addr constant [21 x i8] c"0xc.79b4c670f2f8cp-4\00", align 1
@.str.1430.49034 = private unnamed_addr constant [21 x i8] c"0xc.7851cc73d7603p-4\00", align 1
@.str.681.49035 = private unnamed_addr constant [21 x i8] c"0xc.76e4a11bb1815p-4\00", align 1
@.str.1431.49036 = private unnamed_addr constant [22 x i8] c"0xc.756d4684a039fcp-4\00", align 1
@.str.683.49037 = private unnamed_addr constant [22 x i8] c"0xc.73ebbed9cb659cp-4\00", align 1
@.str.684.49038 = private unnamed_addr constant [21 x i8] c"0xc.72600c55600b3p-4\00", align 1
@.str.1432.49039 = private unnamed_addr constant [21 x i8] c"0xc.70ca31408c711p-4\00", align 1
@.str.686.49040 = private unnamed_addr constant [22 x i8] c"0xc.6f2a2ff37c161cp-4\00", align 1
@.str.1433.49041 = private unnamed_addr constant [22 x i8] c"0xc.6d800ad55390bcp-4\00", align 1
@.str.688.49042 = private unnamed_addr constant [22 x i8] c"0xc.6bcbc45c2c5364p-4\00", align 1
@.str.689.49043 = private unnamed_addr constant [22 x i8] c"0xc.6a0d5f0d1056ccp-4\00", align 1
@.str.1434.49044 = private unnamed_addr constant [22 x i8] c"0xc.6844dd7bf5aa08p-4\00", align 1
@.str.691.49045 = private unnamed_addr constant [22 x i8] c"0xc.6672424bb9e834p-4\00", align 1
@.str.692.49046 = private unnamed_addr constant [20 x i8] c"0xc.6495902e1d94p-4\00", align 1
@.str.1435.49047 = private unnamed_addr constant [22 x i8] c"0xc.62aec9e3bf5914p-4\00", align 1
@.str.1436.49048 = private unnamed_addr constant [22 x i8] c"0xc.60bdf23c173354p-4\00", align 1
@.str.695.49049 = private unnamed_addr constant [21 x i8] c"0xc.5ec30c15717bfp-4\00", align 1
@.str.696.49050 = private unnamed_addr constant [22 x i8] c"0xc.5cbe1a5ce9dc84p-4\00", align 1
@.str.697.49051 = private unnamed_addr constant [22 x i8] c"0xc.5aaf200e662824p-4\00", align 1
@.str.698.49052 = private unnamed_addr constant [22 x i8] c"0xc.58962034911a64p-4\00", align 1
@.str.1437.49053 = private unnamed_addr constant [21 x i8] c"0xc.56731de8d4fc8p-4\00", align 1
@.str.700.49054 = private unnamed_addr constant [21 x i8] c"0xc.54461c5356309p-4\00", align 1
@.str.701.49055 = private unnamed_addr constant [22 x i8] c"0xc.520f1eaaeda2d4p-4\00", align 1
@.str.1438.49056 = private unnamed_addr constant [22 x i8] c"0xc.4fce283523214cp-4\00", align 1
@.str.703.49057 = private unnamed_addr constant [22 x i8] c"0xc.4d833c46279964p-4\00", align 1
@.str.704.49058 = private unnamed_addr constant [22 x i8] c"0xc.4b2e5e40cf3c04p-4\00", align 1
@.str.1439.49059 = private unnamed_addr constant [21 x i8] c"0xc.48cf91968b87dp-4\00", align 1
@.str.706.49060 = private unnamed_addr constant [22 x i8] c"0xc.4666d9c76539d4p-4\00", align 1
@.str.707.49061 = private unnamed_addr constant [21 x i8] c"0xc.43f43a61f624ap-4\00", align 1
@.str.1440.49062 = private unnamed_addr constant [22 x i8] c"0xc.4177b70362eda8p-4\00", align 1
@.str.1441.49063 = private unnamed_addr constant [21 x i8] c"0xc.3ef1535754b16p-4\00", align 1
@.str.1442.49064 = private unnamed_addr constant [22 x i8] c"0xc.3c611317f28dacp-4\00", align 1
@.str.711.49065 = private unnamed_addr constant [22 x i8] c"0xc.39c6fa0ddb12f8p-4\00", align 1
@.str.1443.49066 = private unnamed_addr constant [22 x i8] c"0xc.37230c101d9c04p-4\00", align 1
@.str.1444.49067 = private unnamed_addr constant [22 x i8] c"0xc.34754d04338c4cp-4\00", align 1
@.str.1445.49068 = private unnamed_addr constant [22 x i8] c"0xc.31bdc0ddf97518p-4\00", align 1
@.str.1446.49069 = private unnamed_addr constant [22 x i8] c"0xc.2efc6b9fa82198p-4\00", align 1
@.str.716.49070 = private unnamed_addr constant [22 x i8] c"0xc.2c315159cd8978p-4\00", align 1
@.str.1447.49071 = private unnamed_addr constant [22 x i8] c"0xc.295c762b45aab8p-4\00", align 1
@.str.718.49072 = private unnamed_addr constant [22 x i8] c"0xc.267dde41334a24p-4\00", align 1
@.str.719.49073 = private unnamed_addr constant [22 x i8] c"0xc.23958dd6f89b0cp-4\00", align 1
@.str.720.49074 = private unnamed_addr constant [22 x i8] c"0xc.20a389362fcddcp-4\00", align 1
@.str.1448.49075 = private unnamed_addr constant [22 x i8] c"0xc.1da7d4b6a385e8p-4\00", align 1
@.str.722.49076 = private unnamed_addr constant [21 x i8] c"0xc.1aa274be47365p-4\00", align 1
@.str.1449.49077 = private unnamed_addr constant [21 x i8] c"0xc.17936dc12f664p-4\00", align 1
@.str.724.49078 = private unnamed_addr constant [22 x i8] c"0xc.147ac44189dc4cp-4\00", align 1
@.str.1450.49079 = private unnamed_addr constant [22 x i8] c"0xc.11587ccf95b138p-4\00", align 1
@.str.1451.49080 = private unnamed_addr constant [22 x i8] c"0xc.0e2c9c099b4a28p-4\00", align 1
@.str.1452.49081 = private unnamed_addr constant [21 x i8] c"0xc.0af7269be43a5p-4\00", align 1
@.str.728.49082 = private unnamed_addr constant [22 x i8] c"0xc.07b82140b30c04p-4\00", align 1
@.str.729.49083 = private unnamed_addr constant [22 x i8] c"0xc.046f90c03af17cp-4\00", align 1
@.str.730.49084 = private unnamed_addr constant [22 x i8] c"0xc.011d79f0975d38p-4\00", align 1
@.str.1453.49085 = private unnamed_addr constant [22 x i8] c"0xb.fdc1e1b5c38214p-4\00", align 1
@.str.1454.49086 = private unnamed_addr constant [21 x i8] c"0xb.fa5ccd0191bb2p-4\00", align 1
@.str.733.49087 = private unnamed_addr constant [22 x i8] c"0xb.f6ee40d3a2db4cp-4\00", align 1
@.str.734.49088 = private unnamed_addr constant [20 x i8] c"0xb.f37642395d65p-4\00", align 1
@.str.735.49089 = private unnamed_addr constant [22 x i8] c"0xb.eff4d64de4a9a4p-4\00", align 1
@.str.1455.49090 = private unnamed_addr constant [22 x i8] c"0xb.ec6a023a0fd13cp-4\00", align 1
@.str.737.49091 = private unnamed_addr constant [21 x i8] c"0xb.e8d5cb3460ca1p-4\00", align 1
@.str.738.49092 = private unnamed_addr constant [22 x i8] c"0xb.e5383680fb2078p-4\00", align 1
@.str.1456.49093 = private unnamed_addr constant [22 x i8] c"0xb.e19149719abf08p-4\00", align 1
@.str.740.49094 = private unnamed_addr constant [21 x i8] c"0xb.dde109658a96dp-4\00", align 1
@.str.1457.49095 = private unnamed_addr constant [21 x i8] c"0xb.da277bc99b304p-4\00", align 1
@.str.742.49096 = private unnamed_addr constant [22 x i8] c"0xb.d664a618192434p-4\00", align 1
@.str.743.49097 = private unnamed_addr constant [22 x i8] c"0xb.d2988dd8c37dccp-4\00", align 1
@.str.744.49098 = private unnamed_addr constant [21 x i8] c"0xb.cec338a0c204ap-4\00", align 1
@.str.1458.49099 = private unnamed_addr constant [22 x i8] c"0xb.cae4ac129b6fbcp-4\00", align 1
@.str.746.49100 = private unnamed_addr constant [22 x i8] c"0xb.c6fcedde2b8154p-4\00", align 1
@.str.1459.49101 = private unnamed_addr constant [22 x i8] c"0xb.c30c03c0990b3cp-4\00", align 1
@.str.1460.49102 = private unnamed_addr constant [22 x i8] c"0xb.bf11f3844bdc48p-4\00", align 1
@.str.1461.49103 = private unnamed_addr constant [22 x i8] c"0xb.bb0ec300e296a8p-4\00", align 1
@.str.1462.49104 = private unnamed_addr constant [21 x i8] c"0xb.b702781b286f4p-4\00", align 1
@.str.751.49105 = private unnamed_addr constant [21 x i8] c"0xb.b2ed18c50ad62p-4\00", align 1
@.str.1463.49106 = private unnamed_addr constant [22 x i8] c"0xb.aeceaafd8f0834p-4\00", align 1
@.str.753.49107 = private unnamed_addr constant [22 x i8] c"0xb.aaa734d0c78a2cp-4\00", align 1
@.str.1464.49108 = private unnamed_addr constant [22 x i8] c"0xb.a676bc57c98cb8p-4\00", align 1
@.str.755.49109 = private unnamed_addr constant [21 x i8] c"0xb.a23d47b8a23a5p-4\00", align 1
@.str.756.49110 = private unnamed_addr constant [22 x i8] c"0xb.9dfadd264bee4cp-4\00", align 1
@.str.757.49111 = private unnamed_addr constant [22 x i8] c"0xb.99af82e0a355b8p-4\00", align 1
@.str.1465.49112 = private unnamed_addr constant [22 x i8] c"0xb.955b3f345c79c8p-4\00", align 1
@.str.759.49113 = private unnamed_addr constant [20 x i8] c"0xb.90fe187af7b4p-4\00", align 1
@.str.760.49114 = private unnamed_addr constant [22 x i8] c"0xb.8c98151ab68c38p-4\00", align 1
@.str.761.49115 = private unnamed_addr constant [22 x i8] c"0xb.88293b8690808cp-4\00", align 1
@.str.762.49116 = private unnamed_addr constant [22 x i8] c"0xb.83b1923e27b74cp-4\00", align 1
@.str.1466.49117 = private unnamed_addr constant [22 x i8] c"0xb.7f311fcdbd9af4p-4\00", align 1
@.str.764.49118 = private unnamed_addr constant [22 x i8] c"0xb.7aa7eace276064p-4\00", align 1
@.str.1467.49119 = private unnamed_addr constant [22 x i8] c"0xb.7615f9e4c27738p-4\00", align 1
@.str.766.49120 = private unnamed_addr constant [21 x i8] c"0xb.717b53c368e4ap-4\00", align 1
@.str.1468.49121 = private unnamed_addr constant [22 x i8] c"0xb.6cd7ff2865887cp-4\00", align 1
@.str.768.49122 = private unnamed_addr constant [22 x i8] c"0xb.682c02de684d14p-4\00", align 1
@.str.769.49123 = private unnamed_addr constant [22 x i8] c"0xb.637765bc7a416cp-4\00", align 1
@.str.770.49124 = private unnamed_addr constant [21 x i8] c"0xb.5eba2ea5f19e3p-4\00", align 1
@.str.1469.49125 = private unnamed_addr constant [21 x i8] c"0xb.59f4648a65b58p-4\00", align 1
@.str.772.49126 = private unnamed_addr constant [21 x i8] c"0xb.55260e65a2cd9p-4\00", align 1
@_ZN19fourth_order_doubleL6sin_K4E = internal global [128 x %"struct.ap_ufixed<24, 1, AP_TRN, AP_WRAP, 0>.50"] zeroinitializer, align 4
@.str.1161.49127 = private unnamed_addr constant [14 x i8] c"0xa.335e2p-12\00", align 1
@.str.1162.49128 = private unnamed_addr constant [13 x i8] c"0xa.334cp-12\00", align 1
@.str.1163.49129 = private unnamed_addr constant [14 x i8] c"0xa.3325ap-12\00", align 1
@.str.1164.49130 = private unnamed_addr constant [14 x i8] c"0xa.32ed2p-12\00", align 1
@.str.1165.49131 = private unnamed_addr constant [14 x i8] c"0xa.32a6ap-12\00", align 1
@.str.1166.49132 = private unnamed_addr constant [14 x i8] c"0xa.32502p-12\00", align 1
@.str.1167.49133 = private unnamed_addr constant [14 x i8] c"0xa.31e2cp-12\00", align 1
@.str.1168.49134 = private unnamed_addr constant [14 x i8] c"0xa.31632p-12\00", align 1
@.str.1169.49135 = private unnamed_addr constant [14 x i8] c"0xa.30d2ap-12\00", align 1
@.str.1170.49136 = private unnamed_addr constant [14 x i8] c"0xa.30316p-12\00", align 1
@.str.1171.49137 = private unnamed_addr constant [14 x i8] c"0xa.2f804p-12\00", align 1
@.str.1172.49138 = private unnamed_addr constant [14 x i8] c"0xa.2eb8ep-12\00", align 1
@.str.1174.49139 = private unnamed_addr constant [14 x i8] c"0xa.2cf8ap-12\00", align 1
@.str.1175.49140 = private unnamed_addr constant [14 x i8] c"0xa.2bfccp-12\00", align 1
@.str.1176.49141 = private unnamed_addr constant [14 x i8] c"0xa.2aedep-12\00", align 1
@.str.1177.49142 = private unnamed_addr constant [14 x i8] c"0xa.29d22p-12\00", align 1
@.str.1178.49143 = private unnamed_addr constant [14 x i8] c"0xa.289fap-12\00", align 1
@.str.1179.49144 = private unnamed_addr constant [14 x i8] c"0xa.275eap-12\00", align 1
@.str.1181.49145 = private unnamed_addr constant [14 x i8] c"0xa.249eap-12\00", align 1
@.str.1182.49146 = private unnamed_addr constant [14 x i8] c"0xa.2326ep-12\00", align 1
@.str.1183.49147 = private unnamed_addr constant [14 x i8] c"0xa.219f2p-12\00", align 1
@.str.1184.49148 = private unnamed_addr constant [13 x i8] c"0xa.1fffp-12\00", align 1
@.str.1185.49149 = private unnamed_addr constant [14 x i8] c"0xa.1e546p-12\00", align 1
@.str.1186.49150 = private unnamed_addr constant [14 x i8] c"0xa.1c93ep-12\00", align 1
@.str.1187.49151 = private unnamed_addr constant [14 x i8] c"0xa.1ac1ep-12\00", align 1
@.str.1188.49152 = private unnamed_addr constant [14 x i8] c"0xa.18df2p-12\00", align 1
@.str.1189.49153 = private unnamed_addr constant [14 x i8] c"0xa.16e5ap-12\00", align 1
@.str.1190.49154 = private unnamed_addr constant [14 x i8] c"0xa.14df4p-12\00", align 1
@.str.1191.49155 = private unnamed_addr constant [14 x i8] c"0xa.12c88p-12\00", align 1
@.str.1192.49156 = private unnamed_addr constant [14 x i8] c"0xa.109acp-12\00", align 1
@.str.1193.49157 = private unnamed_addr constant [14 x i8] c"0xa.0e61ap-12\00", align 1
@.str.1194.49158 = private unnamed_addr constant [14 x i8] c"0xa.0c108p-12\00", align 1
@.str.1195.49159 = private unnamed_addr constant [14 x i8] c"0xa.09b2cp-12\00", align 1
@.str.1196.49160 = private unnamed_addr constant [14 x i8] c"0xa.073fcp-12\00", align 1
@.str.1197.49161 = private unnamed_addr constant [14 x i8] c"0xa.04bdep-12\00", align 1
@.str.1198.49162 = private unnamed_addr constant [14 x i8] c"0xa.0227ep-12\00", align 1
@.str.1199.49163 = private unnamed_addr constant [14 x i8] c"0x9.ff82ap-12\00", align 1
@.str.1200.49164 = private unnamed_addr constant [14 x i8] c"0x9.fcc9cp-12\00", align 1
@.str.1201.49165 = private unnamed_addr constant [14 x i8] c"0x9.fa00cp-12\00", align 1
@.str.1202.49166 = private unnamed_addr constant [14 x i8] c"0x9.f726ap-12\00", align 1
@.str.1203.49167 = private unnamed_addr constant [14 x i8] c"0x9.f4386p-12\00", align 1
@.str.1204.49168 = private unnamed_addr constant [13 x i8] c"0x9.f13bp-12\00", align 1
@.str.1205.49169 = private unnamed_addr constant [14 x i8] c"0x9.ee2acp-12\00", align 1
@.str.1206.49170 = private unnamed_addr constant [14 x i8] c"0x9.eb0b6p-12\00", align 1
@.str.1207.49171 = private unnamed_addr constant [14 x i8] c"0x9.e7d96p-12\00", align 1
@.str.1208.49172 = private unnamed_addr constant [13 x i8] c"0x9.e495p-12\00", align 1
@.str.1209.49173 = private unnamed_addr constant [14 x i8] c"0x9.e13f2p-12\00", align 1
@.str.1210.49174 = private unnamed_addr constant [14 x i8] c"0x9.ddd9ep-12\00", align 1
@.str.1211.49175 = private unnamed_addr constant [14 x i8] c"0x9.da5e8p-12\00", align 1
@.str.1212.49176 = private unnamed_addr constant [14 x i8] c"0x9.d6d3ep-12\00", align 1
@.str.1213.49177 = private unnamed_addr constant [14 x i8] c"0x9.d33d6p-12\00", align 1
@.str.1214.49178 = private unnamed_addr constant [14 x i8] c"0x9.cf914p-12\00", align 1
@.str.1215.49179 = private unnamed_addr constant [14 x i8] c"0x9.cbd4ep-12\00", align 1
@.str.1216.49180 = private unnamed_addr constant [14 x i8] c"0x9.c804ep-12\00", align 1
@.str.1217.49181 = private unnamed_addr constant [14 x i8] c"0x9.c4262p-12\00", align 1
@.str.1218.49182 = private unnamed_addr constant [14 x i8] c"0x9.c0322p-12\00", align 1
@.str.1219.49183 = private unnamed_addr constant [14 x i8] c"0x9.bc334p-12\00", align 1
@.str.1220.49184 = private unnamed_addr constant [14 x i8] c"0x9.b8238p-12\00", align 1
@.str.1221.49185 = private unnamed_addr constant [14 x i8] c"0x9.b3fc6p-12\00", align 1
@.str.1222.49186 = private unnamed_addr constant [14 x i8] c"0x9.afc54p-12\00", align 1
@.str.1223.49187 = private unnamed_addr constant [14 x i8] c"0x9.ab84cp-12\00", align 1
@.str.1224.49188 = private unnamed_addr constant [14 x i8] c"0x9.a72cap-12\00", align 1
@.str.1225.49189 = private unnamed_addr constant [14 x i8] c"0x9.a2c58p-12\00", align 1
@.str.1226.49190 = private unnamed_addr constant [14 x i8] c"0x9.9e4a2p-12\00", align 1
@.str.1227.49191 = private unnamed_addr constant [13 x i8] c"0x9.99c3p-12\00", align 1
@.str.1228.49192 = private unnamed_addr constant [14 x i8] c"0x9.95298p-12\00", align 1
@.str.1229.49193 = private unnamed_addr constant [13 x i8] c"0x9.907dp-12\00", align 1
@.str.1230.49194 = private unnamed_addr constant [14 x i8] c"0x9.8bc02p-12\00", align 1
@.str.1231.49195 = private unnamed_addr constant [14 x i8] c"0x9.86f2ap-12\00", align 1
@.str.1232.49196 = private unnamed_addr constant [14 x i8] c"0x9.82162p-12\00", align 1
@.str.1233.49197 = private unnamed_addr constant [14 x i8] c"0x9.7d292p-12\00", align 1
@.str.1234.49198 = private unnamed_addr constant [14 x i8] c"0x9.78296p-12\00", align 1
@.str.1235.49199 = private unnamed_addr constant [14 x i8] c"0x9.73188p-12\00", align 1
@.str.1236.49200 = private unnamed_addr constant [13 x i8] c"0x9.6df9p-12\00", align 1
@.str.1237.49201 = private unnamed_addr constant [14 x i8] c"0x9.68cb6p-12\00", align 1
@.str.1238.49202 = private unnamed_addr constant [14 x i8] c"0x9.6387ep-12\00", align 1
@.str.1239.49203 = private unnamed_addr constant [14 x i8] c"0x9.5e3b4p-12\00", align 1
@.str.1240.49204 = private unnamed_addr constant [14 x i8] c"0x9.58d82p-12\00", align 1
@.str.1241.49205 = private unnamed_addr constant [14 x i8] c"0x9.53664p-12\00", align 1
@.str.1242.49206 = private unnamed_addr constant [14 x i8] c"0x9.4de4ep-12\00", align 1
@.str.1243.49207 = private unnamed_addr constant [14 x i8] c"0x9.48526p-12\00", align 1
@.str.1244.49208 = private unnamed_addr constant [14 x i8] c"0x9.42b08p-12\00", align 1
@.str.1245.49209 = private unnamed_addr constant [14 x i8] c"0x9.3cfd6p-12\00", align 1
@.str.1246.49210 = private unnamed_addr constant [14 x i8] c"0x9.37394p-12\00", align 1
@.str.1247.49211 = private unnamed_addr constant [14 x i8] c"0x9.31672p-12\00", align 1
@.str.1248.49212 = private unnamed_addr constant [14 x i8] c"0x9.2b858p-12\00", align 1
@.str.1249.49213 = private unnamed_addr constant [14 x i8] c"0x9.258ecp-12\00", align 1
@.str.1250.49214 = private unnamed_addr constant [14 x i8] c"0x9.1f8fcp-12\00", align 1
@.str.1251.49215 = private unnamed_addr constant [14 x i8] c"0x9.19794p-12\00", align 1
@.str.1252.49216 = private unnamed_addr constant [13 x i8] c"0x9.135bp-12\00", align 1
@.str.1253.49217 = private unnamed_addr constant [14 x i8] c"0x9.0d288p-12\00", align 1
@.str.1254.49218 = private unnamed_addr constant [14 x i8] c"0x9.06e0ep-12\00", align 1
@.str.1255.49219 = private unnamed_addr constant [14 x i8] c"0x9.008f4p-12\00", align 1
@.str.1256.49220 = private unnamed_addr constant [14 x i8] c"0x8.fa2dep-12\00", align 1
@.str.1257.49221 = private unnamed_addr constant [14 x i8] c"0x8.f3bd2p-12\00", align 1
@.str.1258.49222 = private unnamed_addr constant [13 x i8] c"0x8.ed3ep-12\00", align 1
@.str.1259.49223 = private unnamed_addr constant [14 x i8] c"0x8.e6acep-12\00", align 1
@.str.1260.49224 = private unnamed_addr constant [14 x i8] c"0x8.e00b4p-12\00", align 1
@.str.1261.49225 = private unnamed_addr constant [14 x i8] c"0x8.d95eap-12\00", align 1
@.str.1262.49226 = private unnamed_addr constant [14 x i8] c"0x8.d29cep-12\00", align 1
@.str.1263.49227 = private unnamed_addr constant [14 x i8] c"0x8.cbce2p-12\00", align 1
@.str.1264.49228 = private unnamed_addr constant [14 x i8] c"0x8.c4f0ep-12\00", align 1
@.str.1265.49229 = private unnamed_addr constant [14 x i8] c"0x8.be046p-12\00", align 1
@.str.1266.49230 = private unnamed_addr constant [14 x i8] c"0x8.b708ep-12\00", align 1
@.str.1267.49231 = private unnamed_addr constant [14 x i8] c"0x8.afffep-12\00", align 1
@.str.1268.49232 = private unnamed_addr constant [14 x i8] c"0x8.a8e72p-12\00", align 1
@.str.1269.49233 = private unnamed_addr constant [14 x i8] c"0x8.a1bd2p-12\00", align 1
@.str.1270.49234 = private unnamed_addr constant [14 x i8] c"0x8.9a874p-12\00", align 1
@.str.1271.49235 = private unnamed_addr constant [14 x i8] c"0x8.933cep-12\00", align 1
@.str.1272.49236 = private unnamed_addr constant [14 x i8] c"0x8.8be8ep-12\00", align 1
@.str.1273.49237 = private unnamed_addr constant [14 x i8] c"0x8.8483cp-12\00", align 1
@.str.1274.49238 = private unnamed_addr constant [14 x i8] c"0x8.7d10ep-12\00", align 1
@.str.1275.49239 = private unnamed_addr constant [14 x i8] c"0x8.758e6p-12\00", align 1
@.str.1276.49240 = private unnamed_addr constant [13 x i8] c"0x8.6dfep-12\00", align 1
@.str.1277.49241 = private unnamed_addr constant [14 x i8] c"0x8.665dap-12\00", align 1
@.str.1278.49242 = private unnamed_addr constant [14 x i8] c"0x8.5eafcp-12\00", align 1
@.str.1279.49243 = private unnamed_addr constant [14 x i8] c"0x8.56f64p-12\00", align 1
@.str.1280.49244 = private unnamed_addr constant [13 x i8] c"0x8.4f29p-12\00", align 1
@.str.1281.49245 = private unnamed_addr constant [14 x i8] c"0x8.47534p-12\00", align 1
@.str.1282.49246 = private unnamed_addr constant [14 x i8] c"0x8.3f69ep-12\00", align 1
@.str.1283.49247 = private unnamed_addr constant [14 x i8] c"0x8.3772cp-12\00", align 1
@.str.1284.49248 = private unnamed_addr constant [14 x i8] c"0x8.2f6e8p-12\00", align 1
@.str.1285.49249 = private unnamed_addr constant [14 x i8] c"0x8.275b4p-12\00", align 1
@.str.1286.49250 = private unnamed_addr constant [14 x i8] c"0x8.1f3cep-12\00", align 1
@.str.1287.49251 = private unnamed_addr constant [14 x i8] c"0x8.1711cp-12\00", align 1
@.str.1288.49252 = private unnamed_addr constant [14 x i8] c"0x8.0ed32p-12\00", align 1
@_ZN19fourth_order_doubleL6sin_K3E = internal global [128 x %"struct.ap_int<33>.94"] zeroinitializer, align 8
@.str.1032.49253 = private unnamed_addr constant [10 x i8] c"-0x4.p-36\00", align 1
@.str.1033.49254 = private unnamed_addr constant [14 x i8] c"0x5.19ae6p-16\00", align 1
@.str.1034.49255 = private unnamed_addr constant [15 x i8] c"0xa.3354acp-16\00", align 1
@.str.1035.49256 = private unnamed_addr constant [15 x i8] c"0xf.4ce8d4p-16\00", align 1
@.str.1036.49257 = private unnamed_addr constant [16 x i8] c"0x1.466611cp-12\00", align 1
@.str.1037.49258 = private unnamed_addr constant [16 x i8] c"0x1.97fb50cp-12\00", align 1
@.str.1038.49259 = private unnamed_addr constant [16 x i8] c"0x1.e98dd1cp-12\00", align 1
@.str.1039.49260 = private unnamed_addr constant [16 x i8] c"0x2.3b1cf74p-12\00", align 1
@.str.1040.49261 = private unnamed_addr constant [16 x i8] c"0x2.8ca828cp-12\00", align 1
@.str.1041.49262 = private unnamed_addr constant [16 x i8] c"0x2.de2ed7cp-12\00", align 1
@.str.1042.49263 = private unnamed_addr constant [16 x i8] c"0x3.2fb070cp-12\00", align 1
@.str.1043.49264 = private unnamed_addr constant [15 x i8] c"0x3.812c7dp-12\00", align 1
@.str.1045.49265 = private unnamed_addr constant [15 x i8] c"0x4.24116dp-12\00", align 1
@.str.1046.49266 = private unnamed_addr constant [16 x i8] c"0x4.75793d8p-12\00", align 1
@.str.1047.49267 = private unnamed_addr constant [16 x i8] c"0x4.c6d936cp-12\00", align 1
@.str.1048.49268 = private unnamed_addr constant [16 x i8] c"0x5.1830b08p-12\00", align 1
@.str.1049.49269 = private unnamed_addr constant [16 x i8] c"0x5.697f454p-12\00", align 1
@.str.1050.49270 = private unnamed_addr constant [16 x i8] c"0x5.bac441cp-12\00", align 1
@.str.1052.49271 = private unnamed_addr constant [16 x i8] c"0x6.5d2f81cp-12\00", align 1
@.str.1053.49272 = private unnamed_addr constant [16 x i8] c"0x6.ae548b4p-12\00", align 1
@.str.1054.49273 = private unnamed_addr constant [15 x i8] c"0x6.ff6dc8p-12\00", align 1
@.str.1055.49274 = private unnamed_addr constant [16 x i8] c"0x7.507ac8cp-12\00", align 1
@.str.1056.49275 = private unnamed_addr constant [15 x i8] c"0x7.a17acbp-12\00", align 1
@.str.1057.49276 = private unnamed_addr constant [16 x i8] c"0x7.f26d698p-12\00", align 1
@.str.1058.49277 = private unnamed_addr constant [15 x i8] c"0x8.435207p-12\00", align 1
@.str.1059.49278 = private unnamed_addr constant [16 x i8] c"0x8.9428114p-12\00", align 1
@.str.1060.49279 = private unnamed_addr constant [16 x i8] c"0x8.e4ef11cp-12\00", align 1
@.str.1061.49280 = private unnamed_addr constant [16 x i8] c"0x9.35a651cp-12\00", align 1
@.str.1062.49281 = private unnamed_addr constant [16 x i8] c"0x9.864d554p-12\00", align 1
@.str.1063.49282 = private unnamed_addr constant [16 x i8] c"0x9.d6e3a34p-12\00", align 1
@.str.1064.49283 = private unnamed_addr constant [15 x i8] c"0xa.276884p-12\00", align 1
@.str.1065.49284 = private unnamed_addr constant [16 x i8] c"0xa.77db994p-12\00", align 1
@.str.1066.49285 = private unnamed_addr constant [15 x i8] c"0xa.c83c29p-12\00", align 1
@.str.1067.49286 = private unnamed_addr constant [16 x i8] c"0xb.1889cc4p-12\00", align 1
@.str.1068.49287 = private unnamed_addr constant [16 x i8] c"0xb.68c3d4cp-12\00", align 1
@.str.1069.49288 = private unnamed_addr constant [16 x i8] c"0xb.b8e9cecp-12\00", align 1
@.str.1070.49289 = private unnamed_addr constant [15 x i8] c"0xc.08fb1cp-12\00", align 1
@.str.1071.49290 = private unnamed_addr constant [16 x i8] c"0xc.58f73d4p-12\00", align 1
@.str.1072.49291 = private unnamed_addr constant [15 x i8] c"0xc.a8dd98p-12\00", align 1
@.str.1073.49292 = private unnamed_addr constant [16 x i8] c"0xc.f8ada5cp-12\00", align 1
@.str.1074.49293 = private unnamed_addr constant [15 x i8] c"0xd.4866e3p-12\00", align 1
@.str.1075.49294 = private unnamed_addr constant [16 x i8] c"0xd.9808b34p-12\00", align 1
@.str.1076.49295 = private unnamed_addr constant [16 x i8] c"0xd.e7929c8p-12\00", align 1
@.str.1077.49296 = private unnamed_addr constant [16 x i8] c"0xe.3703fa4p-12\00", align 1
@.str.1078.49297 = private unnamed_addr constant [16 x i8] c"0xe.865c574p-12\00", align 1
@.str.1079.49298 = private unnamed_addr constant [16 x i8] c"0xe.d59b224p-12\00", align 1
@.str.1080.49299 = private unnamed_addr constant [16 x i8] c"0xf.24bfd14p-12\00", align 1
@.str.1081.49300 = private unnamed_addr constant [16 x i8] c"0xf.73c9cc8p-12\00", align 1
@.str.1082.49301 = private unnamed_addr constant [16 x i8] c"0xf.c2b8a78p-12\00", align 1
@.str.1083.49302 = private unnamed_addr constant [16 x i8] c"0x1.0118bb88p-8\00", align 1
@.str.1084.49303 = private unnamed_addr constant [16 x i8] c"0x1.060426a4p-8\00", align 1
@.str.1085.49304 = private unnamed_addr constant [15 x i8] c"0x1.0aedc5ap-8\00", align 1
@.str.1086.49305 = private unnamed_addr constant [16 x i8] c"0x1.0fd58e54p-8\00", align 1
@.str.1087.49306 = private unnamed_addr constant [16 x i8] c"0x1.14bb7924p-8\00", align 1
@.str.1088.49307 = private unnamed_addr constant [16 x i8] c"0x1.199f7c54p-8\00", align 1
@.str.1089.49308 = private unnamed_addr constant [16 x i8] c"0x1.1e8190bcp-8\00", align 1
@.str.1090.49309 = private unnamed_addr constant [16 x i8] c"0x1.2361ab4cp-8\00", align 1
@.str.1091.49310 = private unnamed_addr constant [16 x i8] c"0x1.283fc4f8p-8\00", align 1
@.str.1092.49311 = private unnamed_addr constant [15 x i8] c"0x1.2d1bd6dp-8\00", align 1
@.str.1093.49312 = private unnamed_addr constant [16 x i8] c"0x1.31f5d68cp-8\00", align 1
@.str.1094.49313 = private unnamed_addr constant [16 x i8] c"0x1.36cdb9e4p-8\00", align 1
@.str.1095.49314 = private unnamed_addr constant [14 x i8] c"0x1.3ba37cp-8\00", align 1
@.str.1096.49315 = private unnamed_addr constant [16 x i8] c"0x1.40771248p-8\00", align 1
@.str.1097.49316 = private unnamed_addr constant [15 x i8] c"0x1.4548758p-8\00", align 1
@.str.1098.49317 = private unnamed_addr constant [14 x i8] c"0x1.4a179bp-8\00", align 1
@.str.1099.49318 = private unnamed_addr constant [16 x i8] c"0x1.4ee47c4cp-8\00", align 1
@.str.1100.49319 = private unnamed_addr constant [16 x i8] c"0x1.53af1104p-8\00", align 1
@.str.1101.49320 = private unnamed_addr constant [15 x i8] c"0x1.58774ffp-8\00", align 1
@.str.1102.49321 = private unnamed_addr constant [16 x i8] c"0x1.5d3d3108p-8\00", align 1
@.str.1103.49322 = private unnamed_addr constant [16 x i8] c"0x1.6200ab54p-8\00", align 1
@.str.1104.49323 = private unnamed_addr constant [16 x i8] c"0x1.66c1b6f8p-8\00", align 1
@.str.1105.49324 = private unnamed_addr constant [16 x i8] c"0x1.6b804c1cp-8\00", align 1
@.str.1106.49325 = private unnamed_addr constant [16 x i8] c"0x1.703c623cp-8\00", align 1
@.str.1107.49326 = private unnamed_addr constant [16 x i8] c"0x1.74f5f04cp-8\00", align 1
@.str.1108.49327 = private unnamed_addr constant [16 x i8] c"0x1.79acedfcp-8\00", align 1
@.str.1109.49328 = private unnamed_addr constant [15 x i8] c"0x1.7e6154ep-8\00", align 1
@.str.1110.49329 = private unnamed_addr constant [16 x i8] c"0x1.831319b4p-8\00", align 1
@.str.1111.49330 = private unnamed_addr constant [16 x i8] c"0x1.87c23778p-8\00", align 1
@.str.1112.49331 = private unnamed_addr constant [16 x i8] c"0x1.8c6ea438p-8\00", align 1
@.str.1113.49332 = private unnamed_addr constant [16 x i8] c"0x1.911857ccp-8\00", align 1
@.str.1114.49333 = private unnamed_addr constant [16 x i8] c"0x1.95bf4a98p-8\00", align 1
@.str.1115.49334 = private unnamed_addr constant [16 x i8] c"0x1.9a637414p-8\00", align 1
@.str.1116.49335 = private unnamed_addr constant [16 x i8] c"0x1.9f04cc68p-8\00", align 1
@.str.1117.49336 = private unnamed_addr constant [16 x i8] c"0x1.a3a34bccp-8\00", align 1
@.str.1118.49337 = private unnamed_addr constant [15 x i8] c"0x1.a83ee92p-8\00", align 1
@.str.1119.49338 = private unnamed_addr constant [16 x i8] c"0x1.acd79cecp-8\00", align 1
@.str.1120.49339 = private unnamed_addr constant [16 x i8] c"0x1.b16d6084p-8\00", align 1
@.str.1121.49340 = private unnamed_addr constant [16 x i8] c"0x1.b60028a4p-8\00", align 1
@.str.1122.49341 = private unnamed_addr constant [16 x i8] c"0x1.ba8ff134p-8\00", align 1
@.str.1123.49342 = private unnamed_addr constant [16 x i8] c"0x1.bf1cae64p-8\00", align 1
@.str.1124.49343 = private unnamed_addr constant [16 x i8] c"0x1.c3a65b44p-8\00", align 1
@.str.1125.49344 = private unnamed_addr constant [16 x i8] c"0x1.c82cf03cp-8\00", align 1
@.str.1126.49345 = private unnamed_addr constant [16 x i8] c"0x1.ccb06288p-8\00", align 1
@.str.1127.49346 = private unnamed_addr constant [16 x i8] c"0x1.d130abecp-8\00", align 1
@.str.1128.49347 = private unnamed_addr constant [15 x i8] c"0x1.d5adc45p-8\00", align 1
@.str.1129.49348 = private unnamed_addr constant [15 x i8] c"0x1.da27a3ep-8\00", align 1
@.str.1130.49349 = private unnamed_addr constant [16 x i8] c"0x1.de9e4384p-8\00", align 1
@.str.1131.49350 = private unnamed_addr constant [16 x i8] c"0x1.e3119b14p-8\00", align 1
@.str.1132.49351 = private unnamed_addr constant [15 x i8] c"0x1.e781a19p-8\00", align 1
@.str.1133.49352 = private unnamed_addr constant [16 x i8] c"0x1.ebee51ecp-8\00", align 1
@.str.1134.49353 = private unnamed_addr constant [16 x i8] c"0x1.f057a23cp-8\00", align 1
@.str.1135.49354 = private unnamed_addr constant [16 x i8] c"0x1.f4bd8b44p-8\00", align 1
@.str.1136.49355 = private unnamed_addr constant [16 x i8] c"0x1.f920059cp-8\00", align 1
@.str.1137.49356 = private unnamed_addr constant [16 x i8] c"0x1.fd7f0998p-8\00", align 1
@.str.1138.49357 = private unnamed_addr constant [16 x i8] c"0x2.01da8f48p-8\00", align 1
@.str.1139.49358 = private unnamed_addr constant [15 x i8] c"0x2.06328f9p-8\00", align 1
@.str.1140.49359 = private unnamed_addr constant [16 x i8] c"0x2.0a870374p-8\00", align 1
@.str.1141.49360 = private unnamed_addr constant [16 x i8] c"0x2.0ed7e21cp-8\00", align 1
@.str.1142.49361 = private unnamed_addr constant [16 x i8] c"0x2.1325260cp-8\00", align 1
@.str.1143.49362 = private unnamed_addr constant [16 x i8] c"0x2.176ec534p-8\00", align 1
@.str.1144.49363 = private unnamed_addr constant [16 x i8] c"0x2.1bb4ba3cp-8\00", align 1
@.str.1145.49364 = private unnamed_addr constant [15 x i8] c"0x2.1ff6fc6p-8\00", align 1
@.str.1146.49365 = private unnamed_addr constant [16 x i8] c"0x2.24358558p-8\00", align 1
@.str.1147.49366 = private unnamed_addr constant [16 x i8] c"0x2.28704cdcp-8\00", align 1
@.str.1148.49367 = private unnamed_addr constant [15 x i8] c"0x2.2ca74c8p-8\00", align 1
@.str.1149.49368 = private unnamed_addr constant [16 x i8] c"0x2.30da7c38p-8\00", align 1
@.str.1150.49369 = private unnamed_addr constant [15 x i8] c"0x2.3509d46p-8\00", align 1
@.str.1151.49370 = private unnamed_addr constant [16 x i8] c"0x2.39354f9cp-8\00", align 1
@.str.1152.49371 = private unnamed_addr constant [16 x i8] c"0x2.3d5ce414p-8\00", align 1
@.str.1153.49372 = private unnamed_addr constant [16 x i8] c"0x2.41808d54p-8\00", align 1
@.str.1154.49373 = private unnamed_addr constant [16 x i8] c"0x2.45a042d4p-8\00", align 1
@.str.1155.49374 = private unnamed_addr constant [15 x i8] c"0x2.49bbfd3p-8\00", align 1
@.str.1156.49375 = private unnamed_addr constant [16 x i8] c"0x2.4dd3b5e4p-8\00", align 1
@.str.1157.49376 = private unnamed_addr constant [16 x i8] c"0x2.51e7650cp-8\00", align 1
@.str.1158.49377 = private unnamed_addr constant [16 x i8] c"0x2.55f703c4p-8\00", align 1
@.str.1159.49378 = private unnamed_addr constant [16 x i8] c"0x2.5a028d04p-8\00", align 1
@_ZN19fourth_order_doubleL6sin_K2E = internal global [128 x %"struct.ap_fixed<43, 4, AP_TRN, AP_WRAP, 0>"] zeroinitializer, align 8
@.str.903.49379 = private unnamed_addr constant [20 x i8] c"-0x1.4abbce62538p-4\00", align 1
@.str.904.49380 = private unnamed_addr constant [20 x i8] c"-0x1.4abad991ae8p-4\00", align 1
@.str.905.49381 = private unnamed_addr constant [19 x i8] c"-0x1.4ab7fb2168p-4\00", align 1
@.str.906.49382 = private unnamed_addr constant [20 x i8] c"-0x1.4ab33316748p-4\00", align 1
@.str.907.49383 = private unnamed_addr constant [20 x i8] c"-0x1.4aac8179398p-4\00", align 1
@.str.908.49384 = private unnamed_addr constant [20 x i8] c"-0x1.4aa3e6558e8p-4\00", align 1
@.str.909.49385 = private unnamed_addr constant [19 x i8] c"-0x1.4a9961bab6p-4\00", align 1
@.str.910.49386 = private unnamed_addr constant [19 x i8] c"-0x1.4a8cf3bb2fp-4\00", align 1
@.str.911.49387 = private unnamed_addr constant [20 x i8] c"-0x1.4a7e9c6cd08p-4\00", align 1
@.str.912.49388 = private unnamed_addr constant [20 x i8] c"-0x1.4a6e5be8e58p-4\00", align 1
@.str.913.49389 = private unnamed_addr constant [20 x i8] c"-0x1.4a5c324c0c8p-4\00", align 1
@.str.914.49390 = private unnamed_addr constant [20 x i8] c"-0x1.4a481fb6678p-4\00", align 1
@.str.916.49391 = private unnamed_addr constant [19 x i8] c"-0x1.4a1a40313fp-4\00", align 1
@.str.917.49392 = private unnamed_addr constant [20 x i8] c"-0x1.4a007392a28p-4\00", align 1
@.str.918.49393 = private unnamed_addr constant [20 x i8] c"-0x1.49e4be9cd98p-4\00", align 1
@.str.919.49394 = private unnamed_addr constant [20 x i8] c"-0x1.49c72180968p-4\00", align 1
@.str.920.49395 = private unnamed_addr constant [19 x i8] c"-0x1.49a79c7244p-4\00", align 1
@.str.921.49396 = private unnamed_addr constant [20 x i8] c"-0x1.49862fa9398p-4\00", align 1
@.str.923.49397 = private unnamed_addr constant [19 x i8] c"-0x1.493d9fd65ap-4\00", align 1
@.str.924.49398 = private unnamed_addr constant [18 x i8] c"-0x1.49167d4c4p-4\00", align 1
@.str.925.49399 = private unnamed_addr constant [20 x i8] c"-0x1.48ed7407358p-4\00", align 1
@.str.926.49400 = private unnamed_addr constant [20 x i8] c"-0x1.48c2844faf8p-4\00", align 1
@.str.927.49401 = private unnamed_addr constant [20 x i8] c"-0x1.4895ae71188p-4\00", align 1
@.str.928.49402 = private unnamed_addr constant [19 x i8] c"-0x1.4866f2baa1p-4\00", align 1
@.str.929.49403 = private unnamed_addr constant [19 x i8] c"-0x1.4836517e92p-4\00", align 1
@.str.930.49404 = private unnamed_addr constant [19 x i8] c"-0x1.4803cb1294p-4\00", align 1
@.str.931.49405 = private unnamed_addr constant [19 x i8] c"-0x1.47cf5fcfccp-4\00", align 1
@.str.932.49406 = private unnamed_addr constant [19 x i8] c"-0x1.479910125ep-4\00", align 1
@.str.933.49407 = private unnamed_addr constant [19 x i8] c"-0x1.4760dc3a19p-4\00", align 1
@.str.934.49408 = private unnamed_addr constant [19 x i8] c"-0x1.4726c4aa14p-4\00", align 1
@.str.935.49409 = private unnamed_addr constant [19 x i8] c"-0x1.46eac9c878p-4\00", align 1
@.str.936.49410 = private unnamed_addr constant [19 x i8] c"-0x1.46acebff29p-4\00", align 1
@.str.937.49411 = private unnamed_addr constant [19 x i8] c"-0x1.466d2bbaecp-4\00", align 1
@.str.938.49412 = private unnamed_addr constant [19 x i8] c"-0x1.462b896c48p-4\00", align 1
@.str.939.49413 = private unnamed_addr constant [19 x i8] c"-0x1.45e80586a4p-4\00", align 1
@.str.940.49414 = private unnamed_addr constant [19 x i8] c"-0x1.45a2a08117p-4\00", align 1
@.str.941.49415 = private unnamed_addr constant [19 x i8] c"-0x1.455b5ad5cbp-4\00", align 1
@.str.942.49416 = private unnamed_addr constant [20 x i8] c"-0x1.45123502558p-4\00", align 1
@.str.943.49417 = private unnamed_addr constant [20 x i8] c"-0x1.44c72f877c8p-4\00", align 1
@.str.944.49418 = private unnamed_addr constant [19 x i8] c"-0x1.447a4ae96ep-4\00", align 1
@.str.945.49419 = private unnamed_addr constant [19 x i8] c"-0x1.442b87af9ep-4\00", align 1
@.str.946.49420 = private unnamed_addr constant [19 x i8] c"-0x1.43dae664b5p-4\00", align 1
@.str.947.49421 = private unnamed_addr constant [20 x i8] c"-0x1.43886796d08p-4\00", align 1
@.str.948.49422 = private unnamed_addr constant [20 x i8] c"-0x1.43340bd7078p-4\00", align 1
@.str.949.49423 = private unnamed_addr constant [20 x i8] c"-0x1.42ddd3ba148p-4\00", align 1
@.str.950.49424 = private unnamed_addr constant [20 x i8] c"-0x1.4285bfd7bb8p-4\00", align 1
@.str.951.49425 = private unnamed_addr constant [19 x i8] c"-0x1.422bd0cb1fp-4\00", align 1
@.str.952.49426 = private unnamed_addr constant [19 x i8] c"-0x1.41d0073283p-4\00", align 1
@.str.953.49427 = private unnamed_addr constant [20 x i8] c"-0x1.417263afb28p-4\00", align 1
@.str.954.49428 = private unnamed_addr constant [20 x i8] c"-0x1.4112e6e75d8p-4\00", align 1
@.str.955.49429 = private unnamed_addr constant [19 x i8] c"-0x1.40b1918198p-4\00", align 1
@.str.956.49430 = private unnamed_addr constant [19 x i8] c"-0x1.404e6429f3p-4\00", align 1
@.str.957.49431 = private unnamed_addr constant [19 x i8] c"-0x1.3fe95f8ee3p-4\00", align 1
@.str.958.49432 = private unnamed_addr constant [19 x i8] c"-0x1.3f82846256p-4\00", align 1
@.str.959.49433 = private unnamed_addr constant [19 x i8] c"-0x1.3f19d35946p-4\00", align 1
@.str.960.49434 = private unnamed_addr constant [19 x i8] c"-0x1.3eaf4d2c14p-4\00", align 1
@.str.961.49435 = private unnamed_addr constant [20 x i8] c"-0x1.3e42f2960e8p-4\00", align 1
@.str.962.49436 = private unnamed_addr constant [20 x i8] c"-0x1.3dd4c4560b8p-4\00", align 1
@.str.963.49437 = private unnamed_addr constant [19 x i8] c"-0x1.3d64c32e17p-4\00", align 1
@.str.964.49438 = private unnamed_addr constant [19 x i8] c"-0x1.3cf2efe32dp-4\00", align 1
@.str.965.49439 = private unnamed_addr constant [20 x i8] c"-0x1.3c7f4b3d758p-4\00", align 1
@.str.966.49440 = private unnamed_addr constant [18 x i8] c"-0x1.3c09d608cp-4\00", align 1
@.str.967.49441 = private unnamed_addr constant [20 x i8] c"-0x1.3b929113908p-4\00", align 1
@.str.968.49442 = private unnamed_addr constant [20 x i8] c"-0x1.3b197d2fdb8p-4\00", align 1
@.str.969.49443 = private unnamed_addr constant [20 x i8] c"-0x1.3a9e9b32788p-4\00", align 1
@.str.970.49444 = private unnamed_addr constant [20 x i8] c"-0x1.3a21ebf3ca8p-4\00", align 1
@.str.971.49445 = private unnamed_addr constant [20 x i8] c"-0x1.39a3704f2a8p-4\00", align 1
@.str.972.49446 = private unnamed_addr constant [20 x i8] c"-0x1.39232923048p-4\00", align 1
@.str.973.49447 = private unnamed_addr constant [20 x i8] c"-0x1.38a117510e8p-4\00", align 1
@.str.974.49448 = private unnamed_addr constant [19 x i8] c"-0x1.381d3bbe01p-4\00", align 1
@.str.975.49449 = private unnamed_addr constant [20 x i8] c"-0x1.37979751d58p-4\00", align 1
@.str.976.49450 = private unnamed_addr constant [18 x i8] c"-0x1.37102af7ap-4\00", align 1
@.str.977.49451 = private unnamed_addr constant [20 x i8] c"-0x1.3686f79d8c8p-4\00", align 1
@.str.978.49452 = private unnamed_addr constant [20 x i8] c"-0x1.35fbfe34ce8p-4\00", align 1
@.str.979.49453 = private unnamed_addr constant [20 x i8] c"-0x1.356f3fb1c98p-4\00", align 1
@.str.980.49454 = private unnamed_addr constant [20 x i8] c"-0x1.34e0bd0c1b8p-4\00", align 1
@.str.981.49455 = private unnamed_addr constant [19 x i8] c"-0x1.3450773e1bp-4\00", align 1
@.str.982.49456 = private unnamed_addr constant [20 x i8] c"-0x1.33be6f45ae8p-4\00", align 1
@.str.983.49457 = private unnamed_addr constant [20 x i8] c"-0x1.332aa623708p-4\00", align 1
@.str.984.49458 = private unnamed_addr constant [19 x i8] c"-0x1.32951cdb28p-4\00", align 1
@.str.985.49459 = private unnamed_addr constant [19 x i8] c"-0x1.31fdd473bfp-4\00", align 1
@.str.986.49460 = private unnamed_addr constant [20 x i8] c"-0x1.3164cdf7168p-4\00", align 1
@.str.987.49461 = private unnamed_addr constant [20 x i8] c"-0x1.30ca0a72228p-4\00", align 1
@.str.988.49462 = private unnamed_addr constant [20 x i8] c"-0x1.302d8af4f08p-4\00", align 1
@.str.989.49463 = private unnamed_addr constant [19 x i8] c"-0x1.2f8f509267p-4\00", align 1
@.str.990.49464 = private unnamed_addr constant [20 x i8] c"-0x1.2eef5c60a18p-4\00", align 1
@.str.991.49465 = private unnamed_addr constant [20 x i8] c"-0x1.2e4daf78c78p-4\00", align 1
@.str.992.49466 = private unnamed_addr constant [20 x i8] c"-0x1.2daa4af6a28p-4\00", align 1
@.str.993.49467 = private unnamed_addr constant [19 x i8] c"-0x1.2d052ff993p-4\00", align 1
@.str.994.49468 = private unnamed_addr constant [20 x i8] c"-0x1.2c5e5fa3548p-4\00", align 1
@.str.995.49469 = private unnamed_addr constant [20 x i8] c"-0x1.2bb5db19278p-4\00", align 1
@.str.996.49470 = private unnamed_addr constant [19 x i8] c"-0x1.2b0ba38313p-4\00", align 1
@.str.997.49471 = private unnamed_addr constant [20 x i8] c"-0x1.2a5fba0bcb8p-4\00", align 1
@.str.998.49472 = private unnamed_addr constant [20 x i8] c"-0x1.29b21fe1608p-4\00", align 1
@.str.999.49473 = private unnamed_addr constant [19 x i8] c"-0x1.2902d634a2p-4\00", align 1
@.str.1000.49474 = private unnamed_addr constant [19 x i8] c"-0x1.2851de395fp-4\00", align 1
@.str.1001.49475 = private unnamed_addr constant [20 x i8] c"-0x1.279f3926578p-4\00", align 1
@.str.1002.49476 = private unnamed_addr constant [19 x i8] c"-0x1.26eae83524p-4\00", align 1
@.str.1003.49477 = private unnamed_addr constant [20 x i8] c"-0x1.2634eca2378p-4\00", align 1
@.str.1004.49478 = private unnamed_addr constant [20 x i8] c"-0x1.257d47ad3d8p-4\00", align 1
@.str.1005.49479 = private unnamed_addr constant [19 x i8] c"-0x1.24c3fa9856p-4\00", align 1
@.str.1006.49480 = private unnamed_addr constant [19 x i8] c"-0x1.240906a8c1p-4\00", align 1
@.str.1007.49481 = private unnamed_addr constant [19 x i8] c"-0x1.234c6d2699p-4\00", align 1
@.str.1008.49482 = private unnamed_addr constant [20 x i8] c"-0x1.228e2f5ccd8p-4\00", align 1
@.str.1009.49483 = private unnamed_addr constant [19 x i8] c"-0x1.21ce4e9923p-4\00", align 1
@.str.1010.49484 = private unnamed_addr constant [20 x i8] c"-0x1.210ccc2c428p-4\00", align 1
@.str.1011.49485 = private unnamed_addr constant [20 x i8] c"-0x1.2049a969b38p-4\00", align 1
@.str.1012.49486 = private unnamed_addr constant [20 x i8] c"-0x1.1f84e7a7a48p-4\00", align 1
@.str.1013.49487 = private unnamed_addr constant [20 x i8] c"-0x1.1ebe883f548p-4\00", align 1
@.str.1014.49488 = private unnamed_addr constant [20 x i8] c"-0x1.1df68c8c778p-4\00", align 1
@.str.1015.49489 = private unnamed_addr constant [20 x i8] c"-0x1.1d2cf5edf08p-4\00", align 1
@.str.1016.49490 = private unnamed_addr constant [19 x i8] c"-0x1.1c61c5c50fp-4\00", align 1
@.str.1017.49491 = private unnamed_addr constant [19 x i8] c"-0x1.1b94fd763ap-4\00", align 1
@.str.1018.49492 = private unnamed_addr constant [19 x i8] c"-0x1.1ac69e6853p-4\00", align 1
@.str.1019.49493 = private unnamed_addr constant [19 x i8] c"-0x1.19f6aa0539p-4\00", align 1
@.str.1020.49494 = private unnamed_addr constant [20 x i8] c"-0x1.192521b9588p-4\00", align 1
@.str.1021.49495 = private unnamed_addr constant [20 x i8] c"-0x1.185206f3e68p-4\00", align 1
@.str.1022.49496 = private unnamed_addr constant [20 x i8] c"-0x1.177d5b26f88p-4\00", align 1
@.str.1023.49497 = private unnamed_addr constant [20 x i8] c"-0x1.16a71fc7038p-4\00", align 1
@.str.1024.49498 = private unnamed_addr constant [20 x i8] c"-0x1.15cf564b998p-4\00", align 1
@.str.1025.49499 = private unnamed_addr constant [19 x i8] c"-0x1.14f6002ea9p-4\00", align 1
@.str.1026.49500 = private unnamed_addr constant [18 x i8] c"-0x1.141b1eecep-4\00", align 1
@.str.1027.49501 = private unnamed_addr constant [20 x i8] c"-0x1.133eb405ad8p-4\00", align 1
@.str.1028.49502 = private unnamed_addr constant [20 x i8] c"-0x1.1260c0fb0b8p-4\00", align 1
@.str.1029.49503 = private unnamed_addr constant [19 x i8] c"-0x1.11814751a1p-4\00", align 1
@.str.1030.49504 = private unnamed_addr constant [19 x i8] c"-0x1.10a04890ecp-4\00", align 1
@_ZN19fourth_order_doubleL6sin_K1E = internal global [128 x %"struct.ap_ufixed<51, 24, AP_TRN, AP_WRAP, 0>"] zeroinitializer, align 8
@.str.774.49505 = private unnamed_addr constant [10 x i8] c"-0x5.p-52\00", align 1
@.str.775.49506 = private unnamed_addr constant [20 x i8] c"-0x5.2aedf31dc8p-12\00", align 1
@.str.776.49507 = private unnamed_addr constant [20 x i8] c"-0xa.55d43fb839p-12\00", align 1
@.str.777.49508 = private unnamed_addr constant [20 x i8] c"-0xf.80ab3f599ep-12\00", align 1
@.str.778.49509 = private unnamed_addr constant [20 x i8] c"-0x1.4ab6b4ba721p-8\00", align 1
@.str.779.49510 = private unnamed_addr constant [20 x i8] c"-0x1.9d60cbe6e5ap-8\00", align 1
@.str.780.49511 = private unnamed_addr constant [20 x i8] c"-0x1.f0087f1b2cep-8\00", align 1
@.str.782.49512 = private unnamed_addr constant [20 x i8] c"-0x2.954ed032029p-8\00", align 1
@.str.783.49513 = private unnamed_addr constant [20 x i8] c"-0x2.e7ec796d722p-8\00", align 1
@.str.785.49514 = private unnamed_addr constant [20 x i8] c"-0x3.8d1a69d3d49p-8\00", align 1
@.str.787.49515 = private unnamed_addr constant [20 x i8] c"-0x4.3233533fe9dp-8\00", align 1
@.str.788.49516 = private unnamed_addr constant [20 x i8] c"-0x4.84b6b3e5367p-8\00", align 1
@.str.789.49517 = private unnamed_addr constant [19 x i8] c"-0x4.d7336456f7p-8\00", align 1
@.str.792.49518 = private unnamed_addr constant [20 x i8] c"-0x5.ce7c901943ap-8\00", align 1
@.str.794.49519 = private unnamed_addr constant [20 x i8] c"-0x6.732dd52e4dfp-8\00", align 1
@.str.795.49520 = private unnamed_addr constant [20 x i8] c"-0x6.c57862f7056p-8\00", align 1
@.str.796.49521 = private unnamed_addr constant [20 x i8] c"-0x7.17b8eb445f3p-8\00", align 1
@.str.797.49522 = private unnamed_addr constant [20 x i8] c"-0x7.69eef470986p-8\00", align 1
@.str.798.49523 = private unnamed_addr constant [20 x i8] c"-0x7.bc1a04e86f7p-8\00", align 1
@.str.799.49524 = private unnamed_addr constant [20 x i8] c"-0x8.0e39a32bf52p-8\00", align 1
@.str.800.49525 = private unnamed_addr constant [20 x i8] c"-0x8.604d55cf66dp-8\00", align 1
@.str.802.49526 = private unnamed_addr constant [20 x i8] c"-0x9.044f12f0dc9p-8\00", align 1
@.str.803.49527 = private unnamed_addr constant [20 x i8] c"-0x9.563c2b03b6bp-8\00", align 1
@.str.804.49528 = private unnamed_addr constant [20 x i8] c"-0x9.a81b72a1d22p-8\00", align 1
@.str.805.49529 = private unnamed_addr constant [20 x i8] c"-0x9.f9ec70d0c78p-8\00", align 1
@.str.806.49530 = private unnamed_addr constant [20 x i8] c"-0xa.4baeacaf5c6p-8\00", align 1
@.str.807.49531 = private unnamed_addr constant [20 x i8] c"-0xa.9d61ad76543p-8\00", align 1
@.str.808.49532 = private unnamed_addr constant [20 x i8] c"-0xa.ef04fa794a7p-8\00", align 1
@.str.809.49533 = private unnamed_addr constant [20 x i8] c"-0xb.40981b2780ap-8\00", align 1
@.str.810.49534 = private unnamed_addr constant [20 x i8] c"-0xb.921a970cb9fp-8\00", align 1
@.str.811.49535 = private unnamed_addr constant [20 x i8] c"-0xb.e38bf5d2079p-8\00", align 1
@.str.812.49536 = private unnamed_addr constant [19 x i8] c"-0xc.34ebbf3ea2p-8\00", align 1
@.str.814.49537 = private unnamed_addr constant [20 x i8] c"-0xc.d774b1c64e1p-8\00", align 1
@.str.816.49538 = private unnamed_addr constant [20 x i8] c"-0xd.79b1af57cbcp-8\00", align 1
@.str.817.49539 = private unnamed_addr constant [20 x i8] c"-0xd.cab2870e182p-8\00", align 1
@.str.818.49540 = private unnamed_addr constant [20 x i8] c"-0xe.1b9efabe483p-8\00", align 1
@.str.819.49541 = private unnamed_addr constant [20 x i8] c"-0xe.6c769319b1bp-8\00", align 1
@.str.820.49542 = private unnamed_addr constant [20 x i8] c"-0xe.bd38d8f6614p-8\00", align 1
@.str.822.49543 = private unnamed_addr constant [20 x i8] c"-0xf.5e7b91485dbp-8\00", align 1
@.str.823.49544 = private unnamed_addr constant [20 x i8] c"-0xf.aefb1628ca8p-8\00", align 1
@.str.824.49545 = private unnamed_addr constant [20 x i8] c"-0xf.ff636d625ddp-8\00", align 1
@.str.825.49546 = private unnamed_addr constant [21 x i8] c"-0x1.04fb4208f0f1p-4\00", align 1
@.str.827.49547 = private unnamed_addr constant [21 x i8] c"-0x1.0f00cc1fa8f7p-4\00", align 1
@.str.828.49548 = private unnamed_addr constant [21 x i8] c"-0x1.14013c440a69p-4\00", align 1
@.str.831.49549 = private unnamed_addr constant [21 x i8] c"-0x1.22f8e0d1d185p-4\00", align 1
@.str.833.49550 = private unnamed_addr constant [21 x i8] c"-0x1.2ceaf5f6e057p-4\00", align 1
@.str.834.49551 = private unnamed_addr constant [21 x i8] c"-0x1.31e169a1605fp-4\00", align 1
@.str.835.49552 = private unnamed_addr constant [21 x i8] c"-0x1.36d619a2b807p-4\00", align 1
@.str.837.49553 = private unnamed_addr constant [21 x i8] c"-0x1.40ba11912502p-4\00", align 1
@.str.838.49554 = private unnamed_addr constant [21 x i8] c"-0x1.45a94af9c571p-4\00", align 1
@.str.839.49555 = private unnamed_addr constant [21 x i8] c"-0x1.4a96a3b06d4cp-4\00", align 1
@.str.840.49556 = private unnamed_addr constant [21 x i8] c"-0x1.4f82147b0b59p-4\00", align 1
@.str.841.49557 = private unnamed_addr constant [20 x i8] c"-0x1.546b9622e8ap-4\00", align 1
@.str.842.49558 = private unnamed_addr constant [21 x i8] c"-0x1.59532174b564p-4\00", align 1
@.str.843.49559 = private unnamed_addr constant [21 x i8] c"-0x1.5e38af4095aep-4\00", align 1
@.str.844.49560 = private unnamed_addr constant [21 x i8] c"-0x1.631c385a2dc1p-4\00", align 1
@.str.845.49561 = private unnamed_addr constant [21 x i8] c"-0x1.67fdb598aeddp-4\00", align 1
@.str.846.49562 = private unnamed_addr constant [21 x i8] c"-0x1.6cdd1fd6e39dp-4\00", align 1
@.str.849.49563 = private unnamed_addr constant [21 x i8] c"-0x1.7b6ea552a631p-4\00", align 1
@.str.850.49564 = private unnamed_addr constant [21 x i8] c"-0x1.80457c654609p-4\00", align 1
@.str.851.49565 = private unnamed_addr constant [21 x i8] c"-0x1.851a1cf5413fp-4\00", align 1
@.str.852.49566 = private unnamed_addr constant [21 x i8] c"-0x1.89ec7ff40103p-4\00", align 1
@.str.854.49567 = private unnamed_addr constant [21 x i8] c"-0x1.938a711730dcp-4\00", align 1
@.str.855.49568 = private unnamed_addr constant [21 x i8] c"-0x1.9855f13256adp-4\00", align 1
@.str.856.49569 = private unnamed_addr constant [21 x i8] c"-0x1.9d1f17a9c4d9p-4\00", align 1
@.str.857.49570 = private unnamed_addr constant [21 x i8] c"-0x1.a1e5dd831197p-4\00", align 1
@.str.858.49571 = private unnamed_addr constant [21 x i8] c"-0x1.a6aa3bc800d9p-4\00", align 1
@.str.860.49572 = private unnamed_addr constant [21 x i8] c"-0x1.b02ba5d10424p-4\00", align 1
@.str.861.49573 = private unnamed_addr constant [21 x i8] c"-0x1.b4e8a3bdf205p-4\00", align 1
@.str.862.49574 = private unnamed_addr constant [21 x i8] c"-0x1.b9a31e684e25p-4\00", align 1
@.str.864.49575 = private unnamed_addr constant [21 x i8] c"-0x1.c3106e77411bp-4\00", align 1
@.str.865.49576 = private unnamed_addr constant [21 x i8] c"-0x1.c7c336280355p-4\00", align 1
@.str.866.49577 = private unnamed_addr constant [21 x i8] c"-0x1.cc735f2ea287p-4\00", align 1
@.str.867.49578 = private unnamed_addr constant [21 x i8] c"-0x1.d120e2bc9d9fp-4\00", align 1
@.str.868.49579 = private unnamed_addr constant [21 x i8] c"-0x1.d5cbba081996p-4\00", align 1
@.str.869.49580 = private unnamed_addr constant [21 x i8] c"-0x1.da73de4bece8p-4\00", align 1
@.str.870.49581 = private unnamed_addr constant [21 x i8] c"-0x1.df1948c7abb4p-4\00", align 1
@.str.871.49582 = private unnamed_addr constant [21 x i8] c"-0x1.e3bbf2bfb353p-4\00", align 1
@.str.872.49583 = private unnamed_addr constant [21 x i8] c"-0x1.e85bd57d3624p-4\00", align 1
@.str.873.49584 = private unnamed_addr constant [21 x i8] c"-0x1.ecf8ea4e473ep-4\00", align 1
@.str.874.49585 = private unnamed_addr constant [21 x i8] c"-0x1.f1932a85e614p-4\00", align 1
@.str.875.49586 = private unnamed_addr constant [21 x i8] c"-0x1.f62a8f7c09e9p-4\00", align 1
@.str.876.49587 = private unnamed_addr constant [21 x i8] c"-0x1.fabf128dadc3p-4\00", align 1
@.str.877.49588 = private unnamed_addr constant [21 x i8] c"-0x1.ff50ad1cdb9bp-4\00", align 1
@.str.878.49589 = private unnamed_addr constant [21 x i8] c"-0x2.03df5890b801p-4\00", align 1
@.str.879.49590 = private unnamed_addr constant [21 x i8] c"-0x2.086b0e558d96p-4\00", align 1
@.str.880.49591 = private unnamed_addr constant [21 x i8] c"-0x2.0cf3c7dcd875p-4\00", align 1
@.str.881.49592 = private unnamed_addr constant [21 x i8] c"-0x2.11797e9d5192p-4\00", align 1
@.str.882.49593 = private unnamed_addr constant [21 x i8] c"-0x2.15fc2c12fa0dp-4\00", align 1
@.str.883.49594 = private unnamed_addr constant [21 x i8] c"-0x2.1a7bc9bf26a1p-4\00", align 1
@.str.884.49595 = private unnamed_addr constant [21 x i8] c"-0x2.1ef851288ab8p-4\00", align 1
@.str.885.49596 = private unnamed_addr constant [21 x i8] c"-0x2.2371bbdb43e3p-4\00", align 1
@.str.886.49597 = private unnamed_addr constant [21 x i8] c"-0x2.27e80368e4b7p-4\00", align 1
@.str.887.49598 = private unnamed_addr constant [21 x i8] c"-0x2.2c5b2168805ap-4\00", align 1
@.str.888.49599 = private unnamed_addr constant [21 x i8] c"-0x2.30cb0f76b52dp-4\00", align 1
@.str.889.49600 = private unnamed_addr constant [21 x i8] c"-0x2.3537c735b84bp-4\00", align 1
@.str.890.49601 = private unnamed_addr constant [21 x i8] c"-0x2.39a1424d602fp-4\00", align 1
@.str.891.49602 = private unnamed_addr constant [21 x i8] c"-0x2.3e077a6b2ffap-4\00", align 1
@.str.892.49603 = private unnamed_addr constant [21 x i8] c"-0x2.426a69426239p-4\00", align 1
@.str.893.49604 = private unnamed_addr constant [21 x i8] c"-0x2.46ca088bf3c7p-4\00", align 1
@.str.894.49605 = private unnamed_addr constant [21 x i8] c"-0x2.4b265206aed8p-4\00", align 1
@.str.895.49606 = private unnamed_addr constant [21 x i8] c"-0x2.4f7f3f773577p-4\00", align 1
@.str.896.49607 = private unnamed_addr constant [21 x i8] c"-0x2.53d4caa80c9fp-4\00", align 1
@.str.897.49608 = private unnamed_addr constant [21 x i8] c"-0x2.5826ed69a6c7p-4\00", align 1
@.str.898.49609 = private unnamed_addr constant [21 x i8] c"-0x2.5c75a1926e89p-4\00", align 1
@.str.899.49610 = private unnamed_addr constant [21 x i8] c"-0x2.60c0e0fed15dp-4\00", align 1
@.str.900.49611 = private unnamed_addr constant [21 x i8] c"-0x2.6508a5914a28p-4\00", align 1
@.str.901.49612 = private unnamed_addr constant [21 x i8] c"-0x2.694ce9326b9fp-4\00", align 1
@_ZN19fourth_order_doubleL6sin_K0E = internal global [128 x %"struct.ap_fixed<60, 52, AP_TRN, AP_WRAP, 0>"] zeroinitializer, align 8
@.str.646.49613 = private unnamed_addr constant [22 x i8] c"0xc.90f87f3380388ep-4\00", align 1
@.str.647.49614 = private unnamed_addr constant [22 x i8] c"0xc.90e8fe6f63c232p-4\00", align 1
@.str.648.49615 = private unnamed_addr constant [22 x i8] c"0xc.90cf27ecb4a8cep-4\00", align 1
@.str.653.49616 = private unnamed_addr constant [22 x i8] c"0xc.8fb2f886ec09f2p-4\00", align 1
@.str.666.49617 = private unnamed_addr constant [22 x i8] c"0xc.8818982c94a87ap-4\00", align 1
@.str.667.49618 = private unnamed_addr constant [22 x i8] c"0xc.873ac4fc556d92p-4\00", align 1
@.str.668.49619 = private unnamed_addr constant [22 x i8] c"0xc.8652aa61ba4d02p-4\00", align 1
@.str.669.49620 = private unnamed_addr constant [22 x i8] c"0xc.856049b440d16ap-4\00", align 1
@.str.670.49621 = private unnamed_addr constant [22 x i8] c"0xc.8463a45a97bab2p-4\00", align 1
@.str.671.49622 = private unnamed_addr constant [22 x i8] c"0xc.835cbbca9c860ep-4\00", align 1
@.str.675.49623 = private unnamed_addr constant [22 x i8] c"0xc.7eda98b3992b56p-4\00", align 1
@.str.678.49624 = private unnamed_addr constant [22 x i8] c"0xc.7b0d8d05f2221ep-4\00", align 1
@.str.680.49625 = private unnamed_addr constant [22 x i8] c"0xc.7851cc73d7602ep-4\00", align 1
@.str.682.49626 = private unnamed_addr constant [22 x i8] c"0xc.756d4684a039fep-4\00", align 1
@.str.685.49627 = private unnamed_addr constant [22 x i8] c"0xc.70ca31408c710ep-4\00", align 1
@.str.687.49628 = private unnamed_addr constant [22 x i8] c"0xc.6d800ad55390bep-4\00", align 1
@.str.690.49629 = private unnamed_addr constant [22 x i8] c"0xc.6844dd7bf5aa0ap-4\00", align 1
@.str.693.49630 = private unnamed_addr constant [22 x i8] c"0xc.62aec9e3bf5916p-4\00", align 1
@.str.694.49631 = private unnamed_addr constant [22 x i8] c"0xc.60bdf23c173356p-4\00", align 1
@.str.699.49632 = private unnamed_addr constant [22 x i8] c"0xc.56731de8d4fc82p-4\00", align 1
@.str.702.49633 = private unnamed_addr constant [22 x i8] c"0xc.4fce283523214ap-4\00", align 1
@.str.705.49634 = private unnamed_addr constant [22 x i8] c"0xc.48cf91968b87cep-4\00", align 1
@.str.708.49635 = private unnamed_addr constant [22 x i8] c"0xc.4177b70362edaap-4\00", align 1
@.str.709.49636 = private unnamed_addr constant [22 x i8] c"0xc.3ef1535754b162p-4\00", align 1
@.str.710.49637 = private unnamed_addr constant [22 x i8] c"0xc.3c611317f28daap-4\00", align 1
@.str.712.49638 = private unnamed_addr constant [22 x i8] c"0xc.37230c101d9c06p-4\00", align 1
@.str.713.49639 = private unnamed_addr constant [22 x i8] c"0xc.34754d04338c4ap-4\00", align 1
@.str.714.49640 = private unnamed_addr constant [22 x i8] c"0xc.31bdc0ddf9751ap-4\00", align 1
@.str.715.49641 = private unnamed_addr constant [22 x i8] c"0xc.2efc6b9fa82196p-4\00", align 1
@.str.717.49642 = private unnamed_addr constant [22 x i8] c"0xc.295c762b45aab6p-4\00", align 1
@.str.721.49643 = private unnamed_addr constant [22 x i8] c"0xc.1da7d4b6a385e6p-4\00", align 1
@.str.723.49644 = private unnamed_addr constant [22 x i8] c"0xc.17936dc12f6642p-4\00", align 1
@.str.725.49645 = private unnamed_addr constant [22 x i8] c"0xc.11587ccf95b136p-4\00", align 1
@.str.726.49646 = private unnamed_addr constant [22 x i8] c"0xc.0e2c9c099b4a2ap-4\00", align 1
@.str.727.49647 = private unnamed_addr constant [22 x i8] c"0xc.0af7269be43a52p-4\00", align 1
@.str.731.49648 = private unnamed_addr constant [22 x i8] c"0xb.fdc1e1b5c38216p-4\00", align 1
@.str.732.49649 = private unnamed_addr constant [22 x i8] c"0xb.fa5ccd0191bb22p-4\00", align 1
@.str.736.49650 = private unnamed_addr constant [22 x i8] c"0xb.ec6a023a0fd13ep-4\00", align 1
@.str.739.49651 = private unnamed_addr constant [22 x i8] c"0xb.e19149719abf06p-4\00", align 1
@.str.741.49652 = private unnamed_addr constant [22 x i8] c"0xb.da277bc99b303ep-4\00", align 1
@.str.745.49653 = private unnamed_addr constant [22 x i8] c"0xb.cae4ac129b6fbep-4\00", align 1
@.str.747.49654 = private unnamed_addr constant [22 x i8] c"0xb.c30c03c0990b3ap-4\00", align 1
@.str.748.49655 = private unnamed_addr constant [22 x i8] c"0xb.bf11f3844bdc46p-4\00", align 1
@.str.749.49656 = private unnamed_addr constant [22 x i8] c"0xb.bb0ec300e296a6p-4\00", align 1
@.str.750.49657 = private unnamed_addr constant [22 x i8] c"0xb.b702781b286f3ep-4\00", align 1
@.str.752.49658 = private unnamed_addr constant [22 x i8] c"0xb.aeceaafd8f0836p-4\00", align 1
@.str.754.49659 = private unnamed_addr constant [22 x i8] c"0xb.a676bc57c98cbap-4\00", align 1
@.str.758.49660 = private unnamed_addr constant [22 x i8] c"0xb.955b3f345c79cap-4\00", align 1
@.str.763.49661 = private unnamed_addr constant [22 x i8] c"0xb.7f311fcdbd9af6p-4\00", align 1
@.str.765.49662 = private unnamed_addr constant [22 x i8] c"0xb.7615f9e4c2773ap-4\00", align 1
@.str.767.49663 = private unnamed_addr constant [22 x i8] c"0xb.6cd7ff2865887ap-4\00", align 1
@.str.771.49664 = private unnamed_addr constant [22 x i8] c"0xb.59f4648a65b582p-4\00", align 1
@_ZL18ref_4oPi_table_256.78 = internal global [10 x %"struct.ap_uint<256>"] zeroinitializer, align 32
@.str.4.79 = private unnamed_addr constant [67 x i8] c"0x0000000000000000000000000000000028be60db9391054a7f09d5f47d4d3770\00", align 1
@.str.5.80 = private unnamed_addr constant [67 x i8] c"0x28be60db9391054a7f09d5f47d4d377036d8a5664f10e4107f9458eaf7aef158\00", align 1
@.str.6.81 = private unnamed_addr constant [67 x i8] c"0x36d8a5664f10e4107f9458eaf7aef1586dc91b8e909374b801924bba82746487\00", align 1
@.str.7.82 = private unnamed_addr constant [67 x i8] c"0x6dc91b8e909374b801924bba827464873f877ac72c4a69cfba208d7d4baed121\00", align 1
@.str.8.83 = private unnamed_addr constant [67 x i8] c"0x3f877ac72c4a69cfba208d7d4baed1213a671c09ad17df904e64758e60d4ce7d\00", align 1
@.str.9.84 = private unnamed_addr constant [67 x i8] c"0x3a671c09ad17df904e64758e60d4ce7d272117e2ef7e4a0ec7fe25fff7816603\00", align 1
@.str.10.85 = private unnamed_addr constant [67 x i8] c"0x272117e2ef7e4a0ec7fe25fff7816603fbcbc462d6829b47db4d9fb3c9f2c26d\00", align 1
@.str.11.86 = private unnamed_addr constant [67 x i8] c"0xfbcbc462d6829b47db4d9fb3c9f2c26dd3d18fd9a797fa8b5d49eeb1faf97c5e\00", align 1
@.str.12.87 = private unnamed_addr constant [67 x i8] c"0xd3d18fd9a797fa8b5d49eeb1faf97c5ecf41ce7de294a4ba9afed7ec47e35742\00", align 1
@.str.13.88 = private unnamed_addr constant [67 x i8] c"0xcf41ce7de294a4ba9afed7ec47e357421580cc11bf1edaeafc33ef0826bd0d87\00", align 1
@twiddles8.reversed8 = private unnamed_addr constant [8 x i32] [i32 0, i32 4, i32 2, i32 6, i32 1, i32 5, i32 3, i32 7], align 4
@_ZZN6hotbm_10sin_or_cosIdEET_S1_bbE10swap_table = internal constant [8 x i1] [i1 false, i1 true, i1 true, i1 false, i1 false, i1 true, i1 true, i1 false], align 1
@_ZZN6hotbm_10sin_or_cosIdEET_S1_bbE13neg_sin_table = internal constant [16 x i1] [i1 false, i1 false, i1 true, i1 false, i1 true, i1 true, i1 false, i1 true, i1 true, i1 false, i1 true, i1 true, i1 false, i1 true, i1 false, i1 false], align 1
@_ZZN6hotbm_10sin_or_cosIdEET_S1_bbE13neg_cos_table = internal constant [16 x i1] [i1 false, i1 false, i1 false, i1 true, i1 true, i1 true, i1 true, i1 false, i1 false, i1 true, i1 true, i1 true, i1 true, i1 false, i1 false, i1 false], align 1
@_ZZN6hotbm_10value_listIdE24sin_or_cos_approximationILi63ELi63EEE9ap_ufixedIXT_ELi1EL9ap_q_mode5EL9ap_o_mode3ELi0EEbR7ap_uintILi3EERS3_IXT_ELi0ELS4_5ELS5_3ELi0EERS3_IXT0_ELi0ELS4_5ELS5_3ELi0EER6ap_intILi11EEE10swap_table = internal constant [8 x i1] [i1 false, i1 true, i1 true, i1 false, i1 false, i1 true, i1 true, i1 false], align 1
@fft1D_512.reversed = internal constant [8 x i32] [i32 0, i32 4, i32 2, i32 6, i32 1, i32 5, i32 3, i32 7], align 4

; Function Attrs: nounwind
define internal void @_GLOBAL__sub_I_sincoshotbmdouble.pp.cpp() #0 section ".text.startup" {
entry:
  call void @__cxx_global_var_init.3.36()
  ret void
}

; Function Attrs: nounwind
define internal void @_GLOBAL__sub_I_hls_hotbm_double.pp.cpp() #0 section ".text.startup" {
entry:
  call void @__cxx_global_var_init.644()
  call void @__cxx_global_var_init.773()
  call void @__cxx_global_var_init.902()
  call void @__cxx_global_var_init.1031()
  call void @__cxx_global_var_init.1160()
  call void @__cxx_global_var_init.1289()
  call void @__cxx_global_var_init.1470()
  call void @__cxx_global_var_init.1707()
  call void @__cxx_global_var_init.1962()
  call void @__cxx_global_var_init.2217()
  ret void
}

; Function Attrs: nounwind
define internal void @__cxx_global_var_init.644() #0 section ".text.startup" {
entry:
  call void @_ZN8ap_fixedILi60ELi1EL9ap_q_mode5EL9ap_o_mode3ELi0EEC2EPKc(%"struct.ap_fixed<60, 52, AP_TRN, AP_WRAP, 0>"* getelementptr inbounds ([128 x %"struct.ap_fixed<60, 52, AP_TRN, AP_WRAP, 0>"], [128 x %"struct.ap_fixed<60, 52, AP_TRN, AP_WRAP, 0>"]* @_ZN19fourth_order_doubleL6sin_K0E, i64 0, i64 0), i8* getelementptr inbounds ([22 x i8], [22 x i8]* @.str.645.48999, i32 0, i32 0))
  call void @_ZN8ap_fixedILi60ELi1EL9ap_q_mode5EL9ap_o_mode3ELi0EEC2EPKc(%"struct.ap_fixed<60, 52, AP_TRN, AP_WRAP, 0>"* getelementptr inbounds ([128 x %"struct.ap_fixed<60, 52, AP_TRN, AP_WRAP, 0>"], [128 x %"struct.ap_fixed<60, 52, AP_TRN, AP_WRAP, 0>"]* @_ZN19fourth_order_doubleL6sin_K0E, i64 0, i64 1), i8* getelementptr inbounds ([22 x i8], [22 x i8]* @.str.646.49613, i32 0, i32 0))
  call void @_ZN8ap_fixedILi60ELi1EL9ap_q_mode5EL9ap_o_mode3ELi0EEC2EPKc(%"struct.ap_fixed<60, 52, AP_TRN, AP_WRAP, 0>"* getelementptr inbounds ([128 x %"struct.ap_fixed<60, 52, AP_TRN, AP_WRAP, 0>"], [128 x %"struct.ap_fixed<60, 52, AP_TRN, AP_WRAP, 0>"]* @_ZN19fourth_order_doubleL6sin_K0E, i64 0, i64 2), i8* getelementptr inbounds ([22 x i8], [22 x i8]* @.str.647.49614, i32 0, i32 0))
  call void @_ZN8ap_fixedILi60ELi1EL9ap_q_mode5EL9ap_o_mode3ELi0EEC2EPKc(%"struct.ap_fixed<60, 52, AP_TRN, AP_WRAP, 0>"* getelementptr inbounds ([128 x %"struct.ap_fixed<60, 52, AP_TRN, AP_WRAP, 0>"], [128 x %"struct.ap_fixed<60, 52, AP_TRN, AP_WRAP, 0>"]* @_ZN19fourth_order_doubleL6sin_K0E, i64 0, i64 3), i8* getelementptr inbounds ([22 x i8], [22 x i8]* @.str.648.49615, i32 0, i32 0))
  call void @_ZN8ap_fixedILi60ELi1EL9ap_q_mode5EL9ap_o_mode3ELi0EEC2EPKc(%"struct.ap_fixed<60, 52, AP_TRN, AP_WRAP, 0>"* getelementptr inbounds ([128 x %"struct.ap_fixed<60, 52, AP_TRN, AP_WRAP, 0>"], [128 x %"struct.ap_fixed<60, 52, AP_TRN, AP_WRAP, 0>"]* @_ZN19fourth_order_doubleL6sin_K0E, i64 0, i64 4), i8* getelementptr inbounds ([22 x i8], [22 x i8]* @.str.649.49003, i32 0, i32 0))
  call void @_ZN8ap_fixedILi60ELi1EL9ap_q_mode5EL9ap_o_mode3ELi0EEC2EPKc(%"struct.ap_fixed<60, 52, AP_TRN, AP_WRAP, 0>"* getelementptr inbounds ([128 x %"struct.ap_fixed<60, 52, AP_TRN, AP_WRAP, 0>"], [128 x %"struct.ap_fixed<60, 52, AP_TRN, AP_WRAP, 0>"]* @_ZN19fourth_order_doubleL6sin_K0E, i64 0, i64 5), i8* getelementptr inbounds ([22 x i8], [22 x i8]* @.str.650.49004, i32 0, i32 0))
  call void @_ZN8ap_fixedILi60ELi1EL9ap_q_mode5EL9ap_o_mode3ELi0EEC2EPKc(%"struct.ap_fixed<60, 52, AP_TRN, AP_WRAP, 0>"* getelementptr inbounds ([128 x %"struct.ap_fixed<60, 52, AP_TRN, AP_WRAP, 0>"], [128 x %"struct.ap_fixed<60, 52, AP_TRN, AP_WRAP, 0>"]* @_ZN19fourth_order_doubleL6sin_K0E, i64 0, i64 6), i8* getelementptr inbounds ([22 x i8], [22 x i8]* @.str.651.49005, i32 0, i32 0))
  call void @_ZN8ap_fixedILi60ELi1EL9ap_q_mode5EL9ap_o_mode3ELi0EEC2EPKc(%"struct.ap_fixed<60, 52, AP_TRN, AP_WRAP, 0>"* getelementptr inbounds ([128 x %"struct.ap_fixed<60, 52, AP_TRN, AP_WRAP, 0>"], [128 x %"struct.ap_fixed<60, 52, AP_TRN, AP_WRAP, 0>"]* @_ZN19fourth_order_doubleL6sin_K0E, i64 0, i64 7), i8* getelementptr inbounds ([22 x i8], [22 x i8]* @.str.652.49006, i32 0, i32 0))
  call void @_ZN8ap_fixedILi60ELi1EL9ap_q_mode5EL9ap_o_mode3ELi0EEC2EPKc(%"struct.ap_fixed<60, 52, AP_TRN, AP_WRAP, 0>"* getelementptr inbounds ([128 x %"struct.ap_fixed<60, 52, AP_TRN, AP_WRAP, 0>"], [128 x %"struct.ap_fixed<60, 52, AP_TRN, AP_WRAP, 0>"]* @_ZN19fourth_order_doubleL6sin_K0E, i64 0, i64 8), i8* getelementptr inbounds ([22 x i8], [22 x i8]* @.str.653.49616, i32 0, i32 0))
  call void @_ZN8ap_fixedILi60ELi1EL9ap_q_mode5EL9ap_o_mode3ELi0EEC2EPKc(%"struct.ap_fixed<60, 52, AP_TRN, AP_WRAP, 0>"* getelementptr inbounds ([128 x %"struct.ap_fixed<60, 52, AP_TRN, AP_WRAP, 0>"], [128 x %"struct.ap_fixed<60, 52, AP_TRN, AP_WRAP, 0>"]* @_ZN19fourth_order_doubleL6sin_K0E, i64 0, i64 9), i8* getelementptr inbounds ([22 x i8], [22 x i8]* @.str.654.49008, i32 0, i32 0))
  call void @_ZN8ap_fixedILi60ELi1EL9ap_q_mode5EL9ap_o_mode3ELi0EEC2EPKc(%"struct.ap_fixed<60, 52, AP_TRN, AP_WRAP, 0>"* getelementptr inbounds ([128 x %"struct.ap_fixed<60, 52, AP_TRN, AP_WRAP, 0>"], [128 x %"struct.ap_fixed<60, 52, AP_TRN, AP_WRAP, 0>"]* @_ZN19fourth_order_doubleL6sin_K0E, i64 0, i64 10), i8* getelementptr inbounds ([22 x i8], [22 x i8]* @.str.655.49009, i32 0, i32 0))
  call void @_ZN8ap_fixedILi60ELi1EL9ap_q_mode5EL9ap_o_mode3ELi0EEC2EPKc(%"struct.ap_fixed<60, 52, AP_TRN, AP_WRAP, 0>"* getelementptr inbounds ([128 x %"struct.ap_fixed<60, 52, AP_TRN, AP_WRAP, 0>"], [128 x %"struct.ap_fixed<60, 52, AP_TRN, AP_WRAP, 0>"]* @_ZN19fourth_order_doubleL6sin_K0E, i64 0, i64 11), i8* getelementptr inbounds ([22 x i8], [22 x i8]* @.str.656.49010, i32 0, i32 0))
  call void @_ZN8ap_fixedILi60ELi1EL9ap_q_mode5EL9ap_o_mode3ELi0EEC2EPKc(%"struct.ap_fixed<60, 52, AP_TRN, AP_WRAP, 0>"* getelementptr inbounds ([128 x %"struct.ap_fixed<60, 52, AP_TRN, AP_WRAP, 0>"], [128 x %"struct.ap_fixed<60, 52, AP_TRN, AP_WRAP, 0>"]* @_ZN19fourth_order_doubleL6sin_K0E, i64 0, i64 12), i8* getelementptr inbounds ([22 x i8], [22 x i8]* @.str.657.49011, i32 0, i32 0))
  call void @_ZN8ap_fixedILi60ELi1EL9ap_q_mode5EL9ap_o_mode3ELi0EEC2EPKc(%"struct.ap_fixed<60, 52, AP_TRN, AP_WRAP, 0>"* getelementptr inbounds ([128 x %"struct.ap_fixed<60, 52, AP_TRN, AP_WRAP, 0>"], [128 x %"struct.ap_fixed<60, 52, AP_TRN, AP_WRAP, 0>"]* @_ZN19fourth_order_doubleL6sin_K0E, i64 0, i64 13), i8* getelementptr inbounds ([21 x i8], [21 x i8]* @.str.658.49012, i32 0, i32 0))
  call void @_ZN8ap_fixedILi60ELi1EL9ap_q_mode5EL9ap_o_mode3ELi0EEC2EPKc(%"struct.ap_fixed<60, 52, AP_TRN, AP_WRAP, 0>"* getelementptr inbounds ([128 x %"struct.ap_fixed<60, 52, AP_TRN, AP_WRAP, 0>"], [128 x %"struct.ap_fixed<60, 52, AP_TRN, AP_WRAP, 0>"]* @_ZN19fourth_order_doubleL6sin_K0E, i64 0, i64 14), i8* getelementptr inbounds ([22 x i8], [22 x i8]* @.str.659.49013, i32 0, i32 0))
  call void @_ZN8ap_fixedILi60ELi1EL9ap_q_mode5EL9ap_o_mode3ELi0EEC2EPKc(%"struct.ap_fixed<60, 52, AP_TRN, AP_WRAP, 0>"* getelementptr inbounds ([128 x %"struct.ap_fixed<60, 52, AP_TRN, AP_WRAP, 0>"], [128 x %"struct.ap_fixed<60, 52, AP_TRN, AP_WRAP, 0>"]* @_ZN19fourth_order_doubleL6sin_K0E, i64 0, i64 15), i8* getelementptr inbounds ([22 x i8], [22 x i8]* @.str.660.49014, i32 0, i32 0))
  call void @_ZN8ap_fixedILi60ELi1EL9ap_q_mode5EL9ap_o_mode3ELi0EEC2EPKc(%"struct.ap_fixed<60, 52, AP_TRN, AP_WRAP, 0>"* getelementptr inbounds ([128 x %"struct.ap_fixed<60, 52, AP_TRN, AP_WRAP, 0>"], [128 x %"struct.ap_fixed<60, 52, AP_TRN, AP_WRAP, 0>"]* @_ZN19fourth_order_doubleL6sin_K0E, i64 0, i64 16), i8* getelementptr inbounds ([21 x i8], [21 x i8]* @.str.661.49015, i32 0, i32 0))
  call void @_ZN8ap_fixedILi60ELi1EL9ap_q_mode5EL9ap_o_mode3ELi0EEC2EPKc(%"struct.ap_fixed<60, 52, AP_TRN, AP_WRAP, 0>"* getelementptr inbounds ([128 x %"struct.ap_fixed<60, 52, AP_TRN, AP_WRAP, 0>"], [128 x %"struct.ap_fixed<60, 52, AP_TRN, AP_WRAP, 0>"]* @_ZN19fourth_order_doubleL6sin_K0E, i64 0, i64 17), i8* getelementptr inbounds ([22 x i8], [22 x i8]* @.str.662.49016, i32 0, i32 0))
  call void @_ZN8ap_fixedILi60ELi1EL9ap_q_mode5EL9ap_o_mode3ELi0EEC2EPKc(%"struct.ap_fixed<60, 52, AP_TRN, AP_WRAP, 0>"* getelementptr inbounds ([128 x %"struct.ap_fixed<60, 52, AP_TRN, AP_WRAP, 0>"], [128 x %"struct.ap_fixed<60, 52, AP_TRN, AP_WRAP, 0>"]* @_ZN19fourth_order_doubleL6sin_K0E, i64 0, i64 18), i8* getelementptr inbounds ([22 x i8], [22 x i8]* @.str.663.49017, i32 0, i32 0))
  call void @_ZN8ap_fixedILi60ELi1EL9ap_q_mode5EL9ap_o_mode3ELi0EEC2EPKc(%"struct.ap_fixed<60, 52, AP_TRN, AP_WRAP, 0>"* getelementptr inbounds ([128 x %"struct.ap_fixed<60, 52, AP_TRN, AP_WRAP, 0>"], [128 x %"struct.ap_fixed<60, 52, AP_TRN, AP_WRAP, 0>"]* @_ZN19fourth_order_doubleL6sin_K0E, i64 0, i64 19), i8* getelementptr inbounds ([21 x i8], [21 x i8]* @.str.664.49018, i32 0, i32 0))
  call void @_ZN8ap_fixedILi60ELi1EL9ap_q_mode5EL9ap_o_mode3ELi0EEC2EPKc(%"struct.ap_fixed<60, 52, AP_TRN, AP_WRAP, 0>"* getelementptr inbounds ([128 x %"struct.ap_fixed<60, 52, AP_TRN, AP_WRAP, 0>"], [128 x %"struct.ap_fixed<60, 52, AP_TRN, AP_WRAP, 0>"]* @_ZN19fourth_order_doubleL6sin_K0E, i64 0, i64 20), i8* getelementptr inbounds ([22 x i8], [22 x i8]* @.str.665.49019, i32 0, i32 0))
  call void @_ZN8ap_fixedILi60ELi1EL9ap_q_mode5EL9ap_o_mode3ELi0EEC2EPKc(%"struct.ap_fixed<60, 52, AP_TRN, AP_WRAP, 0>"* getelementptr inbounds ([128 x %"struct.ap_fixed<60, 52, AP_TRN, AP_WRAP, 0>"], [128 x %"struct.ap_fixed<60, 52, AP_TRN, AP_WRAP, 0>"]* @_ZN19fourth_order_doubleL6sin_K0E, i64 0, i64 21), i8* getelementptr inbounds ([22 x i8], [22 x i8]* @.str.666.49617, i32 0, i32 0))
  call void @_ZN8ap_fixedILi60ELi1EL9ap_q_mode5EL9ap_o_mode3ELi0EEC2EPKc(%"struct.ap_fixed<60, 52, AP_TRN, AP_WRAP, 0>"* getelementptr inbounds ([128 x %"struct.ap_fixed<60, 52, AP_TRN, AP_WRAP, 0>"], [128 x %"struct.ap_fixed<60, 52, AP_TRN, AP_WRAP, 0>"]* @_ZN19fourth_order_doubleL6sin_K0E, i64 0, i64 22), i8* getelementptr inbounds ([22 x i8], [22 x i8]* @.str.667.49618, i32 0, i32 0))
  call void @_ZN8ap_fixedILi60ELi1EL9ap_q_mode5EL9ap_o_mode3ELi0EEC2EPKc(%"struct.ap_fixed<60, 52, AP_TRN, AP_WRAP, 0>"* getelementptr inbounds ([128 x %"struct.ap_fixed<60, 52, AP_TRN, AP_WRAP, 0>"], [128 x %"struct.ap_fixed<60, 52, AP_TRN, AP_WRAP, 0>"]* @_ZN19fourth_order_doubleL6sin_K0E, i64 0, i64 23), i8* getelementptr inbounds ([22 x i8], [22 x i8]* @.str.668.49619, i32 0, i32 0))
  call void @_ZN8ap_fixedILi60ELi1EL9ap_q_mode5EL9ap_o_mode3ELi0EEC2EPKc(%"struct.ap_fixed<60, 52, AP_TRN, AP_WRAP, 0>"* getelementptr inbounds ([128 x %"struct.ap_fixed<60, 52, AP_TRN, AP_WRAP, 0>"], [128 x %"struct.ap_fixed<60, 52, AP_TRN, AP_WRAP, 0>"]* @_ZN19fourth_order_doubleL6sin_K0E, i64 0, i64 24), i8* getelementptr inbounds ([22 x i8], [22 x i8]* @.str.669.49620, i32 0, i32 0))
  call void @_ZN8ap_fixedILi60ELi1EL9ap_q_mode5EL9ap_o_mode3ELi0EEC2EPKc(%"struct.ap_fixed<60, 52, AP_TRN, AP_WRAP, 0>"* getelementptr inbounds ([128 x %"struct.ap_fixed<60, 52, AP_TRN, AP_WRAP, 0>"], [128 x %"struct.ap_fixed<60, 52, AP_TRN, AP_WRAP, 0>"]* @_ZN19fourth_order_doubleL6sin_K0E, i64 0, i64 25), i8* getelementptr inbounds ([22 x i8], [22 x i8]* @.str.670.49621, i32 0, i32 0))
  call void @_ZN8ap_fixedILi60ELi1EL9ap_q_mode5EL9ap_o_mode3ELi0EEC2EPKc(%"struct.ap_fixed<60, 52, AP_TRN, AP_WRAP, 0>"* getelementptr inbounds ([128 x %"struct.ap_fixed<60, 52, AP_TRN, AP_WRAP, 0>"], [128 x %"struct.ap_fixed<60, 52, AP_TRN, AP_WRAP, 0>"]* @_ZN19fourth_order_doubleL6sin_K0E, i64 0, i64 26), i8* getelementptr inbounds ([22 x i8], [22 x i8]* @.str.671.49622, i32 0, i32 0))
  call void @_ZN8ap_fixedILi60ELi1EL9ap_q_mode5EL9ap_o_mode3ELi0EEC2EPKc(%"struct.ap_fixed<60, 52, AP_TRN, AP_WRAP, 0>"* getelementptr inbounds ([128 x %"struct.ap_fixed<60, 52, AP_TRN, AP_WRAP, 0>"], [128 x %"struct.ap_fixed<60, 52, AP_TRN, AP_WRAP, 0>"]* @_ZN19fourth_order_doubleL6sin_K0E, i64 0, i64 27), i8* getelementptr inbounds ([22 x i8], [22 x i8]* @.str.672.49026, i32 0, i32 0))
  call void @_ZN8ap_fixedILi60ELi1EL9ap_q_mode5EL9ap_o_mode3ELi0EEC2EPKc(%"struct.ap_fixed<60, 52, AP_TRN, AP_WRAP, 0>"* getelementptr inbounds ([128 x %"struct.ap_fixed<60, 52, AP_TRN, AP_WRAP, 0>"], [128 x %"struct.ap_fixed<60, 52, AP_TRN, AP_WRAP, 0>"]* @_ZN19fourth_order_doubleL6sin_K0E, i64 0, i64 28), i8* getelementptr inbounds ([22 x i8], [22 x i8]* @.str.673.49027, i32 0, i32 0))
  call void @_ZN8ap_fixedILi60ELi1EL9ap_q_mode5EL9ap_o_mode3ELi0EEC2EPKc(%"struct.ap_fixed<60, 52, AP_TRN, AP_WRAP, 0>"* getelementptr inbounds ([128 x %"struct.ap_fixed<60, 52, AP_TRN, AP_WRAP, 0>"], [128 x %"struct.ap_fixed<60, 52, AP_TRN, AP_WRAP, 0>"]* @_ZN19fourth_order_doubleL6sin_K0E, i64 0, i64 29), i8* getelementptr inbounds ([22 x i8], [22 x i8]* @.str.674.49028, i32 0, i32 0))
  call void @_ZN8ap_fixedILi60ELi1EL9ap_q_mode5EL9ap_o_mode3ELi0EEC2EPKc(%"struct.ap_fixed<60, 52, AP_TRN, AP_WRAP, 0>"* getelementptr inbounds ([128 x %"struct.ap_fixed<60, 52, AP_TRN, AP_WRAP, 0>"], [128 x %"struct.ap_fixed<60, 52, AP_TRN, AP_WRAP, 0>"]* @_ZN19fourth_order_doubleL6sin_K0E, i64 0, i64 30), i8* getelementptr inbounds ([22 x i8], [22 x i8]* @.str.675.49623, i32 0, i32 0))
  call void @_ZN8ap_fixedILi60ELi1EL9ap_q_mode5EL9ap_o_mode3ELi0EEC2EPKc(%"struct.ap_fixed<60, 52, AP_TRN, AP_WRAP, 0>"* getelementptr inbounds ([128 x %"struct.ap_fixed<60, 52, AP_TRN, AP_WRAP, 0>"], [128 x %"struct.ap_fixed<60, 52, AP_TRN, AP_WRAP, 0>"]* @_ZN19fourth_order_doubleL6sin_K0E, i64 0, i64 31), i8* getelementptr inbounds ([22 x i8], [22 x i8]* @.str.676.49030, i32 0, i32 0))
  call void @_ZN8ap_fixedILi60ELi1EL9ap_q_mode5EL9ap_o_mode3ELi0EEC2EPKc(%"struct.ap_fixed<60, 52, AP_TRN, AP_WRAP, 0>"* getelementptr inbounds ([128 x %"struct.ap_fixed<60, 52, AP_TRN, AP_WRAP, 0>"], [128 x %"struct.ap_fixed<60, 52, AP_TRN, AP_WRAP, 0>"]* @_ZN19fourth_order_doubleL6sin_K0E, i64 0, i64 32), i8* getelementptr inbounds ([22 x i8], [22 x i8]* @.str.677.49031, i32 0, i32 0))
  call void @_ZN8ap_fixedILi60ELi1EL9ap_q_mode5EL9ap_o_mode3ELi0EEC2EPKc(%"struct.ap_fixed<60, 52, AP_TRN, AP_WRAP, 0>"* getelementptr inbounds ([128 x %"struct.ap_fixed<60, 52, AP_TRN, AP_WRAP, 0>"], [128 x %"struct.ap_fixed<60, 52, AP_TRN, AP_WRAP, 0>"]* @_ZN19fourth_order_doubleL6sin_K0E, i64 0, i64 33), i8* getelementptr inbounds ([22 x i8], [22 x i8]* @.str.678.49624, i32 0, i32 0))
  call void @_ZN8ap_fixedILi60ELi1EL9ap_q_mode5EL9ap_o_mode3ELi0EEC2EPKc(%"struct.ap_fixed<60, 52, AP_TRN, AP_WRAP, 0>"* getelementptr inbounds ([128 x %"struct.ap_fixed<60, 52, AP_TRN, AP_WRAP, 0>"], [128 x %"struct.ap_fixed<60, 52, AP_TRN, AP_WRAP, 0>"]* @_ZN19fourth_order_doubleL6sin_K0E, i64 0, i64 34), i8* getelementptr inbounds ([21 x i8], [21 x i8]* @.str.679.49033, i32 0, i32 0))
  call void @_ZN8ap_fixedILi60ELi1EL9ap_q_mode5EL9ap_o_mode3ELi0EEC2EPKc(%"struct.ap_fixed<60, 52, AP_TRN, AP_WRAP, 0>"* getelementptr inbounds ([128 x %"struct.ap_fixed<60, 52, AP_TRN, AP_WRAP, 0>"], [128 x %"struct.ap_fixed<60, 52, AP_TRN, AP_WRAP, 0>"]* @_ZN19fourth_order_doubleL6sin_K0E, i64 0, i64 35), i8* getelementptr inbounds ([22 x i8], [22 x i8]* @.str.680.49625, i32 0, i32 0))
  call void @_ZN8ap_fixedILi60ELi1EL9ap_q_mode5EL9ap_o_mode3ELi0EEC2EPKc(%"struct.ap_fixed<60, 52, AP_TRN, AP_WRAP, 0>"* getelementptr inbounds ([128 x %"struct.ap_fixed<60, 52, AP_TRN, AP_WRAP, 0>"], [128 x %"struct.ap_fixed<60, 52, AP_TRN, AP_WRAP, 0>"]* @_ZN19fourth_order_doubleL6sin_K0E, i64 0, i64 36), i8* getelementptr inbounds ([21 x i8], [21 x i8]* @.str.681.49035, i32 0, i32 0))
  call void @_ZN8ap_fixedILi60ELi1EL9ap_q_mode5EL9ap_o_mode3ELi0EEC2EPKc(%"struct.ap_fixed<60, 52, AP_TRN, AP_WRAP, 0>"* getelementptr inbounds ([128 x %"struct.ap_fixed<60, 52, AP_TRN, AP_WRAP, 0>"], [128 x %"struct.ap_fixed<60, 52, AP_TRN, AP_WRAP, 0>"]* @_ZN19fourth_order_doubleL6sin_K0E, i64 0, i64 37), i8* getelementptr inbounds ([22 x i8], [22 x i8]* @.str.682.49626, i32 0, i32 0))
  call void @_ZN8ap_fixedILi60ELi1EL9ap_q_mode5EL9ap_o_mode3ELi0EEC2EPKc(%"struct.ap_fixed<60, 52, AP_TRN, AP_WRAP, 0>"* getelementptr inbounds ([128 x %"struct.ap_fixed<60, 52, AP_TRN, AP_WRAP, 0>"], [128 x %"struct.ap_fixed<60, 52, AP_TRN, AP_WRAP, 0>"]* @_ZN19fourth_order_doubleL6sin_K0E, i64 0, i64 38), i8* getelementptr inbounds ([22 x i8], [22 x i8]* @.str.683.49037, i32 0, i32 0))
  call void @_ZN8ap_fixedILi60ELi1EL9ap_q_mode5EL9ap_o_mode3ELi0EEC2EPKc(%"struct.ap_fixed<60, 52, AP_TRN, AP_WRAP, 0>"* getelementptr inbounds ([128 x %"struct.ap_fixed<60, 52, AP_TRN, AP_WRAP, 0>"], [128 x %"struct.ap_fixed<60, 52, AP_TRN, AP_WRAP, 0>"]* @_ZN19fourth_order_doubleL6sin_K0E, i64 0, i64 39), i8* getelementptr inbounds ([21 x i8], [21 x i8]* @.str.684.49038, i32 0, i32 0))
  call void @_ZN8ap_fixedILi60ELi1EL9ap_q_mode5EL9ap_o_mode3ELi0EEC2EPKc(%"struct.ap_fixed<60, 52, AP_TRN, AP_WRAP, 0>"* getelementptr inbounds ([128 x %"struct.ap_fixed<60, 52, AP_TRN, AP_WRAP, 0>"], [128 x %"struct.ap_fixed<60, 52, AP_TRN, AP_WRAP, 0>"]* @_ZN19fourth_order_doubleL6sin_K0E, i64 0, i64 40), i8* getelementptr inbounds ([22 x i8], [22 x i8]* @.str.685.49627, i32 0, i32 0))
  call void @_ZN8ap_fixedILi60ELi1EL9ap_q_mode5EL9ap_o_mode3ELi0EEC2EPKc(%"struct.ap_fixed<60, 52, AP_TRN, AP_WRAP, 0>"* getelementptr inbounds ([128 x %"struct.ap_fixed<60, 52, AP_TRN, AP_WRAP, 0>"], [128 x %"struct.ap_fixed<60, 52, AP_TRN, AP_WRAP, 0>"]* @_ZN19fourth_order_doubleL6sin_K0E, i64 0, i64 41), i8* getelementptr inbounds ([22 x i8], [22 x i8]* @.str.686.49040, i32 0, i32 0))
  call void @_ZN8ap_fixedILi60ELi1EL9ap_q_mode5EL9ap_o_mode3ELi0EEC2EPKc(%"struct.ap_fixed<60, 52, AP_TRN, AP_WRAP, 0>"* getelementptr inbounds ([128 x %"struct.ap_fixed<60, 52, AP_TRN, AP_WRAP, 0>"], [128 x %"struct.ap_fixed<60, 52, AP_TRN, AP_WRAP, 0>"]* @_ZN19fourth_order_doubleL6sin_K0E, i64 0, i64 42), i8* getelementptr inbounds ([22 x i8], [22 x i8]* @.str.687.49628, i32 0, i32 0))
  call void @_ZN8ap_fixedILi60ELi1EL9ap_q_mode5EL9ap_o_mode3ELi0EEC2EPKc(%"struct.ap_fixed<60, 52, AP_TRN, AP_WRAP, 0>"* getelementptr inbounds ([128 x %"struct.ap_fixed<60, 52, AP_TRN, AP_WRAP, 0>"], [128 x %"struct.ap_fixed<60, 52, AP_TRN, AP_WRAP, 0>"]* @_ZN19fourth_order_doubleL6sin_K0E, i64 0, i64 43), i8* getelementptr inbounds ([22 x i8], [22 x i8]* @.str.688.49042, i32 0, i32 0))
  call void @_ZN8ap_fixedILi60ELi1EL9ap_q_mode5EL9ap_o_mode3ELi0EEC2EPKc(%"struct.ap_fixed<60, 52, AP_TRN, AP_WRAP, 0>"* getelementptr inbounds ([128 x %"struct.ap_fixed<60, 52, AP_TRN, AP_WRAP, 0>"], [128 x %"struct.ap_fixed<60, 52, AP_TRN, AP_WRAP, 0>"]* @_ZN19fourth_order_doubleL6sin_K0E, i64 0, i64 44), i8* getelementptr inbounds ([22 x i8], [22 x i8]* @.str.689.49043, i32 0, i32 0))
  call void @_ZN8ap_fixedILi60ELi1EL9ap_q_mode5EL9ap_o_mode3ELi0EEC2EPKc(%"struct.ap_fixed<60, 52, AP_TRN, AP_WRAP, 0>"* getelementptr inbounds ([128 x %"struct.ap_fixed<60, 52, AP_TRN, AP_WRAP, 0>"], [128 x %"struct.ap_fixed<60, 52, AP_TRN, AP_WRAP, 0>"]* @_ZN19fourth_order_doubleL6sin_K0E, i64 0, i64 45), i8* getelementptr inbounds ([22 x i8], [22 x i8]* @.str.690.49629, i32 0, i32 0))
  call void @_ZN8ap_fixedILi60ELi1EL9ap_q_mode5EL9ap_o_mode3ELi0EEC2EPKc(%"struct.ap_fixed<60, 52, AP_TRN, AP_WRAP, 0>"* getelementptr inbounds ([128 x %"struct.ap_fixed<60, 52, AP_TRN, AP_WRAP, 0>"], [128 x %"struct.ap_fixed<60, 52, AP_TRN, AP_WRAP, 0>"]* @_ZN19fourth_order_doubleL6sin_K0E, i64 0, i64 46), i8* getelementptr inbounds ([22 x i8], [22 x i8]* @.str.691.49045, i32 0, i32 0))
  call void @_ZN8ap_fixedILi60ELi1EL9ap_q_mode5EL9ap_o_mode3ELi0EEC2EPKc(%"struct.ap_fixed<60, 52, AP_TRN, AP_WRAP, 0>"* getelementptr inbounds ([128 x %"struct.ap_fixed<60, 52, AP_TRN, AP_WRAP, 0>"], [128 x %"struct.ap_fixed<60, 52, AP_TRN, AP_WRAP, 0>"]* @_ZN19fourth_order_doubleL6sin_K0E, i64 0, i64 47), i8* getelementptr inbounds ([20 x i8], [20 x i8]* @.str.692.49046, i32 0, i32 0))
  call void @_ZN8ap_fixedILi60ELi1EL9ap_q_mode5EL9ap_o_mode3ELi0EEC2EPKc(%"struct.ap_fixed<60, 52, AP_TRN, AP_WRAP, 0>"* getelementptr inbounds ([128 x %"struct.ap_fixed<60, 52, AP_TRN, AP_WRAP, 0>"], [128 x %"struct.ap_fixed<60, 52, AP_TRN, AP_WRAP, 0>"]* @_ZN19fourth_order_doubleL6sin_K0E, i64 0, i64 48), i8* getelementptr inbounds ([22 x i8], [22 x i8]* @.str.693.49630, i32 0, i32 0))
  call void @_ZN8ap_fixedILi60ELi1EL9ap_q_mode5EL9ap_o_mode3ELi0EEC2EPKc(%"struct.ap_fixed<60, 52, AP_TRN, AP_WRAP, 0>"* getelementptr inbounds ([128 x %"struct.ap_fixed<60, 52, AP_TRN, AP_WRAP, 0>"], [128 x %"struct.ap_fixed<60, 52, AP_TRN, AP_WRAP, 0>"]* @_ZN19fourth_order_doubleL6sin_K0E, i64 0, i64 49), i8* getelementptr inbounds ([22 x i8], [22 x i8]* @.str.694.49631, i32 0, i32 0))
  call void @_ZN8ap_fixedILi60ELi1EL9ap_q_mode5EL9ap_o_mode3ELi0EEC2EPKc(%"struct.ap_fixed<60, 52, AP_TRN, AP_WRAP, 0>"* getelementptr inbounds ([128 x %"struct.ap_fixed<60, 52, AP_TRN, AP_WRAP, 0>"], [128 x %"struct.ap_fixed<60, 52, AP_TRN, AP_WRAP, 0>"]* @_ZN19fourth_order_doubleL6sin_K0E, i64 0, i64 50), i8* getelementptr inbounds ([21 x i8], [21 x i8]* @.str.695.49049, i32 0, i32 0))
  call void @_ZN8ap_fixedILi60ELi1EL9ap_q_mode5EL9ap_o_mode3ELi0EEC2EPKc(%"struct.ap_fixed<60, 52, AP_TRN, AP_WRAP, 0>"* getelementptr inbounds ([128 x %"struct.ap_fixed<60, 52, AP_TRN, AP_WRAP, 0>"], [128 x %"struct.ap_fixed<60, 52, AP_TRN, AP_WRAP, 0>"]* @_ZN19fourth_order_doubleL6sin_K0E, i64 0, i64 51), i8* getelementptr inbounds ([22 x i8], [22 x i8]* @.str.696.49050, i32 0, i32 0))
  call void @_ZN8ap_fixedILi60ELi1EL9ap_q_mode5EL9ap_o_mode3ELi0EEC2EPKc(%"struct.ap_fixed<60, 52, AP_TRN, AP_WRAP, 0>"* getelementptr inbounds ([128 x %"struct.ap_fixed<60, 52, AP_TRN, AP_WRAP, 0>"], [128 x %"struct.ap_fixed<60, 52, AP_TRN, AP_WRAP, 0>"]* @_ZN19fourth_order_doubleL6sin_K0E, i64 0, i64 52), i8* getelementptr inbounds ([22 x i8], [22 x i8]* @.str.697.49051, i32 0, i32 0))
  call void @_ZN8ap_fixedILi60ELi1EL9ap_q_mode5EL9ap_o_mode3ELi0EEC2EPKc(%"struct.ap_fixed<60, 52, AP_TRN, AP_WRAP, 0>"* getelementptr inbounds ([128 x %"struct.ap_fixed<60, 52, AP_TRN, AP_WRAP, 0>"], [128 x %"struct.ap_fixed<60, 52, AP_TRN, AP_WRAP, 0>"]* @_ZN19fourth_order_doubleL6sin_K0E, i64 0, i64 53), i8* getelementptr inbounds ([22 x i8], [22 x i8]* @.str.698.49052, i32 0, i32 0))
  call void @_ZN8ap_fixedILi60ELi1EL9ap_q_mode5EL9ap_o_mode3ELi0EEC2EPKc(%"struct.ap_fixed<60, 52, AP_TRN, AP_WRAP, 0>"* getelementptr inbounds ([128 x %"struct.ap_fixed<60, 52, AP_TRN, AP_WRAP, 0>"], [128 x %"struct.ap_fixed<60, 52, AP_TRN, AP_WRAP, 0>"]* @_ZN19fourth_order_doubleL6sin_K0E, i64 0, i64 54), i8* getelementptr inbounds ([22 x i8], [22 x i8]* @.str.699.49632, i32 0, i32 0))
  call void @_ZN8ap_fixedILi60ELi1EL9ap_q_mode5EL9ap_o_mode3ELi0EEC2EPKc(%"struct.ap_fixed<60, 52, AP_TRN, AP_WRAP, 0>"* getelementptr inbounds ([128 x %"struct.ap_fixed<60, 52, AP_TRN, AP_WRAP, 0>"], [128 x %"struct.ap_fixed<60, 52, AP_TRN, AP_WRAP, 0>"]* @_ZN19fourth_order_doubleL6sin_K0E, i64 0, i64 55), i8* getelementptr inbounds ([21 x i8], [21 x i8]* @.str.700.49054, i32 0, i32 0))
  call void @_ZN8ap_fixedILi60ELi1EL9ap_q_mode5EL9ap_o_mode3ELi0EEC2EPKc(%"struct.ap_fixed<60, 52, AP_TRN, AP_WRAP, 0>"* getelementptr inbounds ([128 x %"struct.ap_fixed<60, 52, AP_TRN, AP_WRAP, 0>"], [128 x %"struct.ap_fixed<60, 52, AP_TRN, AP_WRAP, 0>"]* @_ZN19fourth_order_doubleL6sin_K0E, i64 0, i64 56), i8* getelementptr inbounds ([22 x i8], [22 x i8]* @.str.701.49055, i32 0, i32 0))
  call void @_ZN8ap_fixedILi60ELi1EL9ap_q_mode5EL9ap_o_mode3ELi0EEC2EPKc(%"struct.ap_fixed<60, 52, AP_TRN, AP_WRAP, 0>"* getelementptr inbounds ([128 x %"struct.ap_fixed<60, 52, AP_TRN, AP_WRAP, 0>"], [128 x %"struct.ap_fixed<60, 52, AP_TRN, AP_WRAP, 0>"]* @_ZN19fourth_order_doubleL6sin_K0E, i64 0, i64 57), i8* getelementptr inbounds ([22 x i8], [22 x i8]* @.str.702.49633, i32 0, i32 0))
  call void @_ZN8ap_fixedILi60ELi1EL9ap_q_mode5EL9ap_o_mode3ELi0EEC2EPKc(%"struct.ap_fixed<60, 52, AP_TRN, AP_WRAP, 0>"* getelementptr inbounds ([128 x %"struct.ap_fixed<60, 52, AP_TRN, AP_WRAP, 0>"], [128 x %"struct.ap_fixed<60, 52, AP_TRN, AP_WRAP, 0>"]* @_ZN19fourth_order_doubleL6sin_K0E, i64 0, i64 58), i8* getelementptr inbounds ([22 x i8], [22 x i8]* @.str.703.49057, i32 0, i32 0))
  call void @_ZN8ap_fixedILi60ELi1EL9ap_q_mode5EL9ap_o_mode3ELi0EEC2EPKc(%"struct.ap_fixed<60, 52, AP_TRN, AP_WRAP, 0>"* getelementptr inbounds ([128 x %"struct.ap_fixed<60, 52, AP_TRN, AP_WRAP, 0>"], [128 x %"struct.ap_fixed<60, 52, AP_TRN, AP_WRAP, 0>"]* @_ZN19fourth_order_doubleL6sin_K0E, i64 0, i64 59), i8* getelementptr inbounds ([22 x i8], [22 x i8]* @.str.704.49058, i32 0, i32 0))
  call void @_ZN8ap_fixedILi60ELi1EL9ap_q_mode5EL9ap_o_mode3ELi0EEC2EPKc(%"struct.ap_fixed<60, 52, AP_TRN, AP_WRAP, 0>"* getelementptr inbounds ([128 x %"struct.ap_fixed<60, 52, AP_TRN, AP_WRAP, 0>"], [128 x %"struct.ap_fixed<60, 52, AP_TRN, AP_WRAP, 0>"]* @_ZN19fourth_order_doubleL6sin_K0E, i64 0, i64 60), i8* getelementptr inbounds ([22 x i8], [22 x i8]* @.str.705.49634, i32 0, i32 0))
  call void @_ZN8ap_fixedILi60ELi1EL9ap_q_mode5EL9ap_o_mode3ELi0EEC2EPKc(%"struct.ap_fixed<60, 52, AP_TRN, AP_WRAP, 0>"* getelementptr inbounds ([128 x %"struct.ap_fixed<60, 52, AP_TRN, AP_WRAP, 0>"], [128 x %"struct.ap_fixed<60, 52, AP_TRN, AP_WRAP, 0>"]* @_ZN19fourth_order_doubleL6sin_K0E, i64 0, i64 61), i8* getelementptr inbounds ([22 x i8], [22 x i8]* @.str.706.49060, i32 0, i32 0))
  call void @_ZN8ap_fixedILi60ELi1EL9ap_q_mode5EL9ap_o_mode3ELi0EEC2EPKc(%"struct.ap_fixed<60, 52, AP_TRN, AP_WRAP, 0>"* getelementptr inbounds ([128 x %"struct.ap_fixed<60, 52, AP_TRN, AP_WRAP, 0>"], [128 x %"struct.ap_fixed<60, 52, AP_TRN, AP_WRAP, 0>"]* @_ZN19fourth_order_doubleL6sin_K0E, i64 0, i64 62), i8* getelementptr inbounds ([21 x i8], [21 x i8]* @.str.707.49061, i32 0, i32 0))
  call void @_ZN8ap_fixedILi60ELi1EL9ap_q_mode5EL9ap_o_mode3ELi0EEC2EPKc(%"struct.ap_fixed<60, 52, AP_TRN, AP_WRAP, 0>"* getelementptr inbounds ([128 x %"struct.ap_fixed<60, 52, AP_TRN, AP_WRAP, 0>"], [128 x %"struct.ap_fixed<60, 52, AP_TRN, AP_WRAP, 0>"]* @_ZN19fourth_order_doubleL6sin_K0E, i64 0, i64 63), i8* getelementptr inbounds ([22 x i8], [22 x i8]* @.str.708.49635, i32 0, i32 0))
  call void @_ZN8ap_fixedILi60ELi1EL9ap_q_mode5EL9ap_o_mode3ELi0EEC2EPKc(%"struct.ap_fixed<60, 52, AP_TRN, AP_WRAP, 0>"* getelementptr inbounds ([128 x %"struct.ap_fixed<60, 52, AP_TRN, AP_WRAP, 0>"], [128 x %"struct.ap_fixed<60, 52, AP_TRN, AP_WRAP, 0>"]* @_ZN19fourth_order_doubleL6sin_K0E, i64 0, i64 64), i8* getelementptr inbounds ([22 x i8], [22 x i8]* @.str.709.49636, i32 0, i32 0))
  call void @_ZN8ap_fixedILi60ELi1EL9ap_q_mode5EL9ap_o_mode3ELi0EEC2EPKc(%"struct.ap_fixed<60, 52, AP_TRN, AP_WRAP, 0>"* getelementptr inbounds ([128 x %"struct.ap_fixed<60, 52, AP_TRN, AP_WRAP, 0>"], [128 x %"struct.ap_fixed<60, 52, AP_TRN, AP_WRAP, 0>"]* @_ZN19fourth_order_doubleL6sin_K0E, i64 0, i64 65), i8* getelementptr inbounds ([22 x i8], [22 x i8]* @.str.710.49637, i32 0, i32 0))
  call void @_ZN8ap_fixedILi60ELi1EL9ap_q_mode5EL9ap_o_mode3ELi0EEC2EPKc(%"struct.ap_fixed<60, 52, AP_TRN, AP_WRAP, 0>"* getelementptr inbounds ([128 x %"struct.ap_fixed<60, 52, AP_TRN, AP_WRAP, 0>"], [128 x %"struct.ap_fixed<60, 52, AP_TRN, AP_WRAP, 0>"]* @_ZN19fourth_order_doubleL6sin_K0E, i64 0, i64 66), i8* getelementptr inbounds ([22 x i8], [22 x i8]* @.str.711.49065, i32 0, i32 0))
  call void @_ZN8ap_fixedILi60ELi1EL9ap_q_mode5EL9ap_o_mode3ELi0EEC2EPKc(%"struct.ap_fixed<60, 52, AP_TRN, AP_WRAP, 0>"* getelementptr inbounds ([128 x %"struct.ap_fixed<60, 52, AP_TRN, AP_WRAP, 0>"], [128 x %"struct.ap_fixed<60, 52, AP_TRN, AP_WRAP, 0>"]* @_ZN19fourth_order_doubleL6sin_K0E, i64 0, i64 67), i8* getelementptr inbounds ([22 x i8], [22 x i8]* @.str.712.49638, i32 0, i32 0))
  call void @_ZN8ap_fixedILi60ELi1EL9ap_q_mode5EL9ap_o_mode3ELi0EEC2EPKc(%"struct.ap_fixed<60, 52, AP_TRN, AP_WRAP, 0>"* getelementptr inbounds ([128 x %"struct.ap_fixed<60, 52, AP_TRN, AP_WRAP, 0>"], [128 x %"struct.ap_fixed<60, 52, AP_TRN, AP_WRAP, 0>"]* @_ZN19fourth_order_doubleL6sin_K0E, i64 0, i64 68), i8* getelementptr inbounds ([22 x i8], [22 x i8]* @.str.713.49639, i32 0, i32 0))
  call void @_ZN8ap_fixedILi60ELi1EL9ap_q_mode5EL9ap_o_mode3ELi0EEC2EPKc(%"struct.ap_fixed<60, 52, AP_TRN, AP_WRAP, 0>"* getelementptr inbounds ([128 x %"struct.ap_fixed<60, 52, AP_TRN, AP_WRAP, 0>"], [128 x %"struct.ap_fixed<60, 52, AP_TRN, AP_WRAP, 0>"]* @_ZN19fourth_order_doubleL6sin_K0E, i64 0, i64 69), i8* getelementptr inbounds ([22 x i8], [22 x i8]* @.str.714.49640, i32 0, i32 0))
  call void @_ZN8ap_fixedILi60ELi1EL9ap_q_mode5EL9ap_o_mode3ELi0EEC2EPKc(%"struct.ap_fixed<60, 52, AP_TRN, AP_WRAP, 0>"* getelementptr inbounds ([128 x %"struct.ap_fixed<60, 52, AP_TRN, AP_WRAP, 0>"], [128 x %"struct.ap_fixed<60, 52, AP_TRN, AP_WRAP, 0>"]* @_ZN19fourth_order_doubleL6sin_K0E, i64 0, i64 70), i8* getelementptr inbounds ([22 x i8], [22 x i8]* @.str.715.49641, i32 0, i32 0))
  call void @_ZN8ap_fixedILi60ELi1EL9ap_q_mode5EL9ap_o_mode3ELi0EEC2EPKc(%"struct.ap_fixed<60, 52, AP_TRN, AP_WRAP, 0>"* getelementptr inbounds ([128 x %"struct.ap_fixed<60, 52, AP_TRN, AP_WRAP, 0>"], [128 x %"struct.ap_fixed<60, 52, AP_TRN, AP_WRAP, 0>"]* @_ZN19fourth_order_doubleL6sin_K0E, i64 0, i64 71), i8* getelementptr inbounds ([22 x i8], [22 x i8]* @.str.716.49070, i32 0, i32 0))
  call void @_ZN8ap_fixedILi60ELi1EL9ap_q_mode5EL9ap_o_mode3ELi0EEC2EPKc(%"struct.ap_fixed<60, 52, AP_TRN, AP_WRAP, 0>"* getelementptr inbounds ([128 x %"struct.ap_fixed<60, 52, AP_TRN, AP_WRAP, 0>"], [128 x %"struct.ap_fixed<60, 52, AP_TRN, AP_WRAP, 0>"]* @_ZN19fourth_order_doubleL6sin_K0E, i64 0, i64 72), i8* getelementptr inbounds ([22 x i8], [22 x i8]* @.str.717.49642, i32 0, i32 0))
  call void @_ZN8ap_fixedILi60ELi1EL9ap_q_mode5EL9ap_o_mode3ELi0EEC2EPKc(%"struct.ap_fixed<60, 52, AP_TRN, AP_WRAP, 0>"* getelementptr inbounds ([128 x %"struct.ap_fixed<60, 52, AP_TRN, AP_WRAP, 0>"], [128 x %"struct.ap_fixed<60, 52, AP_TRN, AP_WRAP, 0>"]* @_ZN19fourth_order_doubleL6sin_K0E, i64 0, i64 73), i8* getelementptr inbounds ([22 x i8], [22 x i8]* @.str.718.49072, i32 0, i32 0))
  call void @_ZN8ap_fixedILi60ELi1EL9ap_q_mode5EL9ap_o_mode3ELi0EEC2EPKc(%"struct.ap_fixed<60, 52, AP_TRN, AP_WRAP, 0>"* getelementptr inbounds ([128 x %"struct.ap_fixed<60, 52, AP_TRN, AP_WRAP, 0>"], [128 x %"struct.ap_fixed<60, 52, AP_TRN, AP_WRAP, 0>"]* @_ZN19fourth_order_doubleL6sin_K0E, i64 0, i64 74), i8* getelementptr inbounds ([22 x i8], [22 x i8]* @.str.719.49073, i32 0, i32 0))
  call void @_ZN8ap_fixedILi60ELi1EL9ap_q_mode5EL9ap_o_mode3ELi0EEC2EPKc(%"struct.ap_fixed<60, 52, AP_TRN, AP_WRAP, 0>"* getelementptr inbounds ([128 x %"struct.ap_fixed<60, 52, AP_TRN, AP_WRAP, 0>"], [128 x %"struct.ap_fixed<60, 52, AP_TRN, AP_WRAP, 0>"]* @_ZN19fourth_order_doubleL6sin_K0E, i64 0, i64 75), i8* getelementptr inbounds ([22 x i8], [22 x i8]* @.str.720.49074, i32 0, i32 0))
  call void @_ZN8ap_fixedILi60ELi1EL9ap_q_mode5EL9ap_o_mode3ELi0EEC2EPKc(%"struct.ap_fixed<60, 52, AP_TRN, AP_WRAP, 0>"* getelementptr inbounds ([128 x %"struct.ap_fixed<60, 52, AP_TRN, AP_WRAP, 0>"], [128 x %"struct.ap_fixed<60, 52, AP_TRN, AP_WRAP, 0>"]* @_ZN19fourth_order_doubleL6sin_K0E, i64 0, i64 76), i8* getelementptr inbounds ([22 x i8], [22 x i8]* @.str.721.49643, i32 0, i32 0))
  call void @_ZN8ap_fixedILi60ELi1EL9ap_q_mode5EL9ap_o_mode3ELi0EEC2EPKc(%"struct.ap_fixed<60, 52, AP_TRN, AP_WRAP, 0>"* getelementptr inbounds ([128 x %"struct.ap_fixed<60, 52, AP_TRN, AP_WRAP, 0>"], [128 x %"struct.ap_fixed<60, 52, AP_TRN, AP_WRAP, 0>"]* @_ZN19fourth_order_doubleL6sin_K0E, i64 0, i64 77), i8* getelementptr inbounds ([21 x i8], [21 x i8]* @.str.722.49076, i32 0, i32 0))
  call void @_ZN8ap_fixedILi60ELi1EL9ap_q_mode5EL9ap_o_mode3ELi0EEC2EPKc(%"struct.ap_fixed<60, 52, AP_TRN, AP_WRAP, 0>"* getelementptr inbounds ([128 x %"struct.ap_fixed<60, 52, AP_TRN, AP_WRAP, 0>"], [128 x %"struct.ap_fixed<60, 52, AP_TRN, AP_WRAP, 0>"]* @_ZN19fourth_order_doubleL6sin_K0E, i64 0, i64 78), i8* getelementptr inbounds ([22 x i8], [22 x i8]* @.str.723.49644, i32 0, i32 0))
  call void @_ZN8ap_fixedILi60ELi1EL9ap_q_mode5EL9ap_o_mode3ELi0EEC2EPKc(%"struct.ap_fixed<60, 52, AP_TRN, AP_WRAP, 0>"* getelementptr inbounds ([128 x %"struct.ap_fixed<60, 52, AP_TRN, AP_WRAP, 0>"], [128 x %"struct.ap_fixed<60, 52, AP_TRN, AP_WRAP, 0>"]* @_ZN19fourth_order_doubleL6sin_K0E, i64 0, i64 79), i8* getelementptr inbounds ([22 x i8], [22 x i8]* @.str.724.49078, i32 0, i32 0))
  call void @_ZN8ap_fixedILi60ELi1EL9ap_q_mode5EL9ap_o_mode3ELi0EEC2EPKc(%"struct.ap_fixed<60, 52, AP_TRN, AP_WRAP, 0>"* getelementptr inbounds ([128 x %"struct.ap_fixed<60, 52, AP_TRN, AP_WRAP, 0>"], [128 x %"struct.ap_fixed<60, 52, AP_TRN, AP_WRAP, 0>"]* @_ZN19fourth_order_doubleL6sin_K0E, i64 0, i64 80), i8* getelementptr inbounds ([22 x i8], [22 x i8]* @.str.725.49645, i32 0, i32 0))
  call void @_ZN8ap_fixedILi60ELi1EL9ap_q_mode5EL9ap_o_mode3ELi0EEC2EPKc(%"struct.ap_fixed<60, 52, AP_TRN, AP_WRAP, 0>"* getelementptr inbounds ([128 x %"struct.ap_fixed<60, 52, AP_TRN, AP_WRAP, 0>"], [128 x %"struct.ap_fixed<60, 52, AP_TRN, AP_WRAP, 0>"]* @_ZN19fourth_order_doubleL6sin_K0E, i64 0, i64 81), i8* getelementptr inbounds ([22 x i8], [22 x i8]* @.str.726.49646, i32 0, i32 0))
  call void @_ZN8ap_fixedILi60ELi1EL9ap_q_mode5EL9ap_o_mode3ELi0EEC2EPKc(%"struct.ap_fixed<60, 52, AP_TRN, AP_WRAP, 0>"* getelementptr inbounds ([128 x %"struct.ap_fixed<60, 52, AP_TRN, AP_WRAP, 0>"], [128 x %"struct.ap_fixed<60, 52, AP_TRN, AP_WRAP, 0>"]* @_ZN19fourth_order_doubleL6sin_K0E, i64 0, i64 82), i8* getelementptr inbounds ([22 x i8], [22 x i8]* @.str.727.49647, i32 0, i32 0))
  call void @_ZN8ap_fixedILi60ELi1EL9ap_q_mode5EL9ap_o_mode3ELi0EEC2EPKc(%"struct.ap_fixed<60, 52, AP_TRN, AP_WRAP, 0>"* getelementptr inbounds ([128 x %"struct.ap_fixed<60, 52, AP_TRN, AP_WRAP, 0>"], [128 x %"struct.ap_fixed<60, 52, AP_TRN, AP_WRAP, 0>"]* @_ZN19fourth_order_doubleL6sin_K0E, i64 0, i64 83), i8* getelementptr inbounds ([22 x i8], [22 x i8]* @.str.728.49082, i32 0, i32 0))
  call void @_ZN8ap_fixedILi60ELi1EL9ap_q_mode5EL9ap_o_mode3ELi0EEC2EPKc(%"struct.ap_fixed<60, 52, AP_TRN, AP_WRAP, 0>"* getelementptr inbounds ([128 x %"struct.ap_fixed<60, 52, AP_TRN, AP_WRAP, 0>"], [128 x %"struct.ap_fixed<60, 52, AP_TRN, AP_WRAP, 0>"]* @_ZN19fourth_order_doubleL6sin_K0E, i64 0, i64 84), i8* getelementptr inbounds ([22 x i8], [22 x i8]* @.str.729.49083, i32 0, i32 0))
  call void @_ZN8ap_fixedILi60ELi1EL9ap_q_mode5EL9ap_o_mode3ELi0EEC2EPKc(%"struct.ap_fixed<60, 52, AP_TRN, AP_WRAP, 0>"* getelementptr inbounds ([128 x %"struct.ap_fixed<60, 52, AP_TRN, AP_WRAP, 0>"], [128 x %"struct.ap_fixed<60, 52, AP_TRN, AP_WRAP, 0>"]* @_ZN19fourth_order_doubleL6sin_K0E, i64 0, i64 85), i8* getelementptr inbounds ([22 x i8], [22 x i8]* @.str.730.49084, i32 0, i32 0))
  call void @_ZN8ap_fixedILi60ELi1EL9ap_q_mode5EL9ap_o_mode3ELi0EEC2EPKc(%"struct.ap_fixed<60, 52, AP_TRN, AP_WRAP, 0>"* getelementptr inbounds ([128 x %"struct.ap_fixed<60, 52, AP_TRN, AP_WRAP, 0>"], [128 x %"struct.ap_fixed<60, 52, AP_TRN, AP_WRAP, 0>"]* @_ZN19fourth_order_doubleL6sin_K0E, i64 0, i64 86), i8* getelementptr inbounds ([22 x i8], [22 x i8]* @.str.731.49648, i32 0, i32 0))
  call void @_ZN8ap_fixedILi60ELi1EL9ap_q_mode5EL9ap_o_mode3ELi0EEC2EPKc(%"struct.ap_fixed<60, 52, AP_TRN, AP_WRAP, 0>"* getelementptr inbounds ([128 x %"struct.ap_fixed<60, 52, AP_TRN, AP_WRAP, 0>"], [128 x %"struct.ap_fixed<60, 52, AP_TRN, AP_WRAP, 0>"]* @_ZN19fourth_order_doubleL6sin_K0E, i64 0, i64 87), i8* getelementptr inbounds ([22 x i8], [22 x i8]* @.str.732.49649, i32 0, i32 0))
  call void @_ZN8ap_fixedILi60ELi1EL9ap_q_mode5EL9ap_o_mode3ELi0EEC2EPKc(%"struct.ap_fixed<60, 52, AP_TRN, AP_WRAP, 0>"* getelementptr inbounds ([128 x %"struct.ap_fixed<60, 52, AP_TRN, AP_WRAP, 0>"], [128 x %"struct.ap_fixed<60, 52, AP_TRN, AP_WRAP, 0>"]* @_ZN19fourth_order_doubleL6sin_K0E, i64 0, i64 88), i8* getelementptr inbounds ([22 x i8], [22 x i8]* @.str.733.49087, i32 0, i32 0))
  call void @_ZN8ap_fixedILi60ELi1EL9ap_q_mode5EL9ap_o_mode3ELi0EEC2EPKc(%"struct.ap_fixed<60, 52, AP_TRN, AP_WRAP, 0>"* getelementptr inbounds ([128 x %"struct.ap_fixed<60, 52, AP_TRN, AP_WRAP, 0>"], [128 x %"struct.ap_fixed<60, 52, AP_TRN, AP_WRAP, 0>"]* @_ZN19fourth_order_doubleL6sin_K0E, i64 0, i64 89), i8* getelementptr inbounds ([20 x i8], [20 x i8]* @.str.734.49088, i32 0, i32 0))
  call void @_ZN8ap_fixedILi60ELi1EL9ap_q_mode5EL9ap_o_mode3ELi0EEC2EPKc(%"struct.ap_fixed<60, 52, AP_TRN, AP_WRAP, 0>"* getelementptr inbounds ([128 x %"struct.ap_fixed<60, 52, AP_TRN, AP_WRAP, 0>"], [128 x %"struct.ap_fixed<60, 52, AP_TRN, AP_WRAP, 0>"]* @_ZN19fourth_order_doubleL6sin_K0E, i64 0, i64 90), i8* getelementptr inbounds ([22 x i8], [22 x i8]* @.str.735.49089, i32 0, i32 0))
  call void @_ZN8ap_fixedILi60ELi1EL9ap_q_mode5EL9ap_o_mode3ELi0EEC2EPKc(%"struct.ap_fixed<60, 52, AP_TRN, AP_WRAP, 0>"* getelementptr inbounds ([128 x %"struct.ap_fixed<60, 52, AP_TRN, AP_WRAP, 0>"], [128 x %"struct.ap_fixed<60, 52, AP_TRN, AP_WRAP, 0>"]* @_ZN19fourth_order_doubleL6sin_K0E, i64 0, i64 91), i8* getelementptr inbounds ([22 x i8], [22 x i8]* @.str.736.49650, i32 0, i32 0))
  call void @_ZN8ap_fixedILi60ELi1EL9ap_q_mode5EL9ap_o_mode3ELi0EEC2EPKc(%"struct.ap_fixed<60, 52, AP_TRN, AP_WRAP, 0>"* getelementptr inbounds ([128 x %"struct.ap_fixed<60, 52, AP_TRN, AP_WRAP, 0>"], [128 x %"struct.ap_fixed<60, 52, AP_TRN, AP_WRAP, 0>"]* @_ZN19fourth_order_doubleL6sin_K0E, i64 0, i64 92), i8* getelementptr inbounds ([21 x i8], [21 x i8]* @.str.737.49091, i32 0, i32 0))
  call void @_ZN8ap_fixedILi60ELi1EL9ap_q_mode5EL9ap_o_mode3ELi0EEC2EPKc(%"struct.ap_fixed<60, 52, AP_TRN, AP_WRAP, 0>"* getelementptr inbounds ([128 x %"struct.ap_fixed<60, 52, AP_TRN, AP_WRAP, 0>"], [128 x %"struct.ap_fixed<60, 52, AP_TRN, AP_WRAP, 0>"]* @_ZN19fourth_order_doubleL6sin_K0E, i64 0, i64 93), i8* getelementptr inbounds ([22 x i8], [22 x i8]* @.str.738.49092, i32 0, i32 0))
  call void @_ZN8ap_fixedILi60ELi1EL9ap_q_mode5EL9ap_o_mode3ELi0EEC2EPKc(%"struct.ap_fixed<60, 52, AP_TRN, AP_WRAP, 0>"* getelementptr inbounds ([128 x %"struct.ap_fixed<60, 52, AP_TRN, AP_WRAP, 0>"], [128 x %"struct.ap_fixed<60, 52, AP_TRN, AP_WRAP, 0>"]* @_ZN19fourth_order_doubleL6sin_K0E, i64 0, i64 94), i8* getelementptr inbounds ([22 x i8], [22 x i8]* @.str.739.49651, i32 0, i32 0))
  call void @_ZN8ap_fixedILi60ELi1EL9ap_q_mode5EL9ap_o_mode3ELi0EEC2EPKc(%"struct.ap_fixed<60, 52, AP_TRN, AP_WRAP, 0>"* getelementptr inbounds ([128 x %"struct.ap_fixed<60, 52, AP_TRN, AP_WRAP, 0>"], [128 x %"struct.ap_fixed<60, 52, AP_TRN, AP_WRAP, 0>"]* @_ZN19fourth_order_doubleL6sin_K0E, i64 0, i64 95), i8* getelementptr inbounds ([21 x i8], [21 x i8]* @.str.740.49094, i32 0, i32 0))
  call void @_ZN8ap_fixedILi60ELi1EL9ap_q_mode5EL9ap_o_mode3ELi0EEC2EPKc(%"struct.ap_fixed<60, 52, AP_TRN, AP_WRAP, 0>"* getelementptr inbounds ([128 x %"struct.ap_fixed<60, 52, AP_TRN, AP_WRAP, 0>"], [128 x %"struct.ap_fixed<60, 52, AP_TRN, AP_WRAP, 0>"]* @_ZN19fourth_order_doubleL6sin_K0E, i64 0, i64 96), i8* getelementptr inbounds ([22 x i8], [22 x i8]* @.str.741.49652, i32 0, i32 0))
  call void @_ZN8ap_fixedILi60ELi1EL9ap_q_mode5EL9ap_o_mode3ELi0EEC2EPKc(%"struct.ap_fixed<60, 52, AP_TRN, AP_WRAP, 0>"* getelementptr inbounds ([128 x %"struct.ap_fixed<60, 52, AP_TRN, AP_WRAP, 0>"], [128 x %"struct.ap_fixed<60, 52, AP_TRN, AP_WRAP, 0>"]* @_ZN19fourth_order_doubleL6sin_K0E, i64 0, i64 97), i8* getelementptr inbounds ([22 x i8], [22 x i8]* @.str.742.49096, i32 0, i32 0))
  call void @_ZN8ap_fixedILi60ELi1EL9ap_q_mode5EL9ap_o_mode3ELi0EEC2EPKc(%"struct.ap_fixed<60, 52, AP_TRN, AP_WRAP, 0>"* getelementptr inbounds ([128 x %"struct.ap_fixed<60, 52, AP_TRN, AP_WRAP, 0>"], [128 x %"struct.ap_fixed<60, 52, AP_TRN, AP_WRAP, 0>"]* @_ZN19fourth_order_doubleL6sin_K0E, i64 0, i64 98), i8* getelementptr inbounds ([22 x i8], [22 x i8]* @.str.743.49097, i32 0, i32 0))
  call void @_ZN8ap_fixedILi60ELi1EL9ap_q_mode5EL9ap_o_mode3ELi0EEC2EPKc(%"struct.ap_fixed<60, 52, AP_TRN, AP_WRAP, 0>"* getelementptr inbounds ([128 x %"struct.ap_fixed<60, 52, AP_TRN, AP_WRAP, 0>"], [128 x %"struct.ap_fixed<60, 52, AP_TRN, AP_WRAP, 0>"]* @_ZN19fourth_order_doubleL6sin_K0E, i64 0, i64 99), i8* getelementptr inbounds ([21 x i8], [21 x i8]* @.str.744.49098, i32 0, i32 0))
  call void @_ZN8ap_fixedILi60ELi1EL9ap_q_mode5EL9ap_o_mode3ELi0EEC2EPKc(%"struct.ap_fixed<60, 52, AP_TRN, AP_WRAP, 0>"* getelementptr inbounds ([128 x %"struct.ap_fixed<60, 52, AP_TRN, AP_WRAP, 0>"], [128 x %"struct.ap_fixed<60, 52, AP_TRN, AP_WRAP, 0>"]* @_ZN19fourth_order_doubleL6sin_K0E, i64 0, i64 100), i8* getelementptr inbounds ([22 x i8], [22 x i8]* @.str.745.49653, i32 0, i32 0))
  call void @_ZN8ap_fixedILi60ELi1EL9ap_q_mode5EL9ap_o_mode3ELi0EEC2EPKc(%"struct.ap_fixed<60, 52, AP_TRN, AP_WRAP, 0>"* getelementptr inbounds ([128 x %"struct.ap_fixed<60, 52, AP_TRN, AP_WRAP, 0>"], [128 x %"struct.ap_fixed<60, 52, AP_TRN, AP_WRAP, 0>"]* @_ZN19fourth_order_doubleL6sin_K0E, i64 0, i64 101), i8* getelementptr inbounds ([22 x i8], [22 x i8]* @.str.746.49100, i32 0, i32 0))
  call void @_ZN8ap_fixedILi60ELi1EL9ap_q_mode5EL9ap_o_mode3ELi0EEC2EPKc(%"struct.ap_fixed<60, 52, AP_TRN, AP_WRAP, 0>"* getelementptr inbounds ([128 x %"struct.ap_fixed<60, 52, AP_TRN, AP_WRAP, 0>"], [128 x %"struct.ap_fixed<60, 52, AP_TRN, AP_WRAP, 0>"]* @_ZN19fourth_order_doubleL6sin_K0E, i64 0, i64 102), i8* getelementptr inbounds ([22 x i8], [22 x i8]* @.str.747.49654, i32 0, i32 0))
  call void @_ZN8ap_fixedILi60ELi1EL9ap_q_mode5EL9ap_o_mode3ELi0EEC2EPKc(%"struct.ap_fixed<60, 52, AP_TRN, AP_WRAP, 0>"* getelementptr inbounds ([128 x %"struct.ap_fixed<60, 52, AP_TRN, AP_WRAP, 0>"], [128 x %"struct.ap_fixed<60, 52, AP_TRN, AP_WRAP, 0>"]* @_ZN19fourth_order_doubleL6sin_K0E, i64 0, i64 103), i8* getelementptr inbounds ([22 x i8], [22 x i8]* @.str.748.49655, i32 0, i32 0))
  call void @_ZN8ap_fixedILi60ELi1EL9ap_q_mode5EL9ap_o_mode3ELi0EEC2EPKc(%"struct.ap_fixed<60, 52, AP_TRN, AP_WRAP, 0>"* getelementptr inbounds ([128 x %"struct.ap_fixed<60, 52, AP_TRN, AP_WRAP, 0>"], [128 x %"struct.ap_fixed<60, 52, AP_TRN, AP_WRAP, 0>"]* @_ZN19fourth_order_doubleL6sin_K0E, i64 0, i64 104), i8* getelementptr inbounds ([22 x i8], [22 x i8]* @.str.749.49656, i32 0, i32 0))
  call void @_ZN8ap_fixedILi60ELi1EL9ap_q_mode5EL9ap_o_mode3ELi0EEC2EPKc(%"struct.ap_fixed<60, 52, AP_TRN, AP_WRAP, 0>"* getelementptr inbounds ([128 x %"struct.ap_fixed<60, 52, AP_TRN, AP_WRAP, 0>"], [128 x %"struct.ap_fixed<60, 52, AP_TRN, AP_WRAP, 0>"]* @_ZN19fourth_order_doubleL6sin_K0E, i64 0, i64 105), i8* getelementptr inbounds ([22 x i8], [22 x i8]* @.str.750.49657, i32 0, i32 0))
  call void @_ZN8ap_fixedILi60ELi1EL9ap_q_mode5EL9ap_o_mode3ELi0EEC2EPKc(%"struct.ap_fixed<60, 52, AP_TRN, AP_WRAP, 0>"* getelementptr inbounds ([128 x %"struct.ap_fixed<60, 52, AP_TRN, AP_WRAP, 0>"], [128 x %"struct.ap_fixed<60, 52, AP_TRN, AP_WRAP, 0>"]* @_ZN19fourth_order_doubleL6sin_K0E, i64 0, i64 106), i8* getelementptr inbounds ([21 x i8], [21 x i8]* @.str.751.49105, i32 0, i32 0))
  call void @_ZN8ap_fixedILi60ELi1EL9ap_q_mode5EL9ap_o_mode3ELi0EEC2EPKc(%"struct.ap_fixed<60, 52, AP_TRN, AP_WRAP, 0>"* getelementptr inbounds ([128 x %"struct.ap_fixed<60, 52, AP_TRN, AP_WRAP, 0>"], [128 x %"struct.ap_fixed<60, 52, AP_TRN, AP_WRAP, 0>"]* @_ZN19fourth_order_doubleL6sin_K0E, i64 0, i64 107), i8* getelementptr inbounds ([22 x i8], [22 x i8]* @.str.752.49658, i32 0, i32 0))
  call void @_ZN8ap_fixedILi60ELi1EL9ap_q_mode5EL9ap_o_mode3ELi0EEC2EPKc(%"struct.ap_fixed<60, 52, AP_TRN, AP_WRAP, 0>"* getelementptr inbounds ([128 x %"struct.ap_fixed<60, 52, AP_TRN, AP_WRAP, 0>"], [128 x %"struct.ap_fixed<60, 52, AP_TRN, AP_WRAP, 0>"]* @_ZN19fourth_order_doubleL6sin_K0E, i64 0, i64 108), i8* getelementptr inbounds ([22 x i8], [22 x i8]* @.str.753.49107, i32 0, i32 0))
  call void @_ZN8ap_fixedILi60ELi1EL9ap_q_mode5EL9ap_o_mode3ELi0EEC2EPKc(%"struct.ap_fixed<60, 52, AP_TRN, AP_WRAP, 0>"* getelementptr inbounds ([128 x %"struct.ap_fixed<60, 52, AP_TRN, AP_WRAP, 0>"], [128 x %"struct.ap_fixed<60, 52, AP_TRN, AP_WRAP, 0>"]* @_ZN19fourth_order_doubleL6sin_K0E, i64 0, i64 109), i8* getelementptr inbounds ([22 x i8], [22 x i8]* @.str.754.49659, i32 0, i32 0))
  call void @_ZN8ap_fixedILi60ELi1EL9ap_q_mode5EL9ap_o_mode3ELi0EEC2EPKc(%"struct.ap_fixed<60, 52, AP_TRN, AP_WRAP, 0>"* getelementptr inbounds ([128 x %"struct.ap_fixed<60, 52, AP_TRN, AP_WRAP, 0>"], [128 x %"struct.ap_fixed<60, 52, AP_TRN, AP_WRAP, 0>"]* @_ZN19fourth_order_doubleL6sin_K0E, i64 0, i64 110), i8* getelementptr inbounds ([21 x i8], [21 x i8]* @.str.755.49109, i32 0, i32 0))
  call void @_ZN8ap_fixedILi60ELi1EL9ap_q_mode5EL9ap_o_mode3ELi0EEC2EPKc(%"struct.ap_fixed<60, 52, AP_TRN, AP_WRAP, 0>"* getelementptr inbounds ([128 x %"struct.ap_fixed<60, 52, AP_TRN, AP_WRAP, 0>"], [128 x %"struct.ap_fixed<60, 52, AP_TRN, AP_WRAP, 0>"]* @_ZN19fourth_order_doubleL6sin_K0E, i64 0, i64 111), i8* getelementptr inbounds ([22 x i8], [22 x i8]* @.str.756.49110, i32 0, i32 0))
  call void @_ZN8ap_fixedILi60ELi1EL9ap_q_mode5EL9ap_o_mode3ELi0EEC2EPKc(%"struct.ap_fixed<60, 52, AP_TRN, AP_WRAP, 0>"* getelementptr inbounds ([128 x %"struct.ap_fixed<60, 52, AP_TRN, AP_WRAP, 0>"], [128 x %"struct.ap_fixed<60, 52, AP_TRN, AP_WRAP, 0>"]* @_ZN19fourth_order_doubleL6sin_K0E, i64 0, i64 112), i8* getelementptr inbounds ([22 x i8], [22 x i8]* @.str.757.49111, i32 0, i32 0))
  call void @_ZN8ap_fixedILi60ELi1EL9ap_q_mode5EL9ap_o_mode3ELi0EEC2EPKc(%"struct.ap_fixed<60, 52, AP_TRN, AP_WRAP, 0>"* getelementptr inbounds ([128 x %"struct.ap_fixed<60, 52, AP_TRN, AP_WRAP, 0>"], [128 x %"struct.ap_fixed<60, 52, AP_TRN, AP_WRAP, 0>"]* @_ZN19fourth_order_doubleL6sin_K0E, i64 0, i64 113), i8* getelementptr inbounds ([22 x i8], [22 x i8]* @.str.758.49660, i32 0, i32 0))
  call void @_ZN8ap_fixedILi60ELi1EL9ap_q_mode5EL9ap_o_mode3ELi0EEC2EPKc(%"struct.ap_fixed<60, 52, AP_TRN, AP_WRAP, 0>"* getelementptr inbounds ([128 x %"struct.ap_fixed<60, 52, AP_TRN, AP_WRAP, 0>"], [128 x %"struct.ap_fixed<60, 52, AP_TRN, AP_WRAP, 0>"]* @_ZN19fourth_order_doubleL6sin_K0E, i64 0, i64 114), i8* getelementptr inbounds ([20 x i8], [20 x i8]* @.str.759.49113, i32 0, i32 0))
  call void @_ZN8ap_fixedILi60ELi1EL9ap_q_mode5EL9ap_o_mode3ELi0EEC2EPKc(%"struct.ap_fixed<60, 52, AP_TRN, AP_WRAP, 0>"* getelementptr inbounds ([128 x %"struct.ap_fixed<60, 52, AP_TRN, AP_WRAP, 0>"], [128 x %"struct.ap_fixed<60, 52, AP_TRN, AP_WRAP, 0>"]* @_ZN19fourth_order_doubleL6sin_K0E, i64 0, i64 115), i8* getelementptr inbounds ([22 x i8], [22 x i8]* @.str.760.49114, i32 0, i32 0))
  call void @_ZN8ap_fixedILi60ELi1EL9ap_q_mode5EL9ap_o_mode3ELi0EEC2EPKc(%"struct.ap_fixed<60, 52, AP_TRN, AP_WRAP, 0>"* getelementptr inbounds ([128 x %"struct.ap_fixed<60, 52, AP_TRN, AP_WRAP, 0>"], [128 x %"struct.ap_fixed<60, 52, AP_TRN, AP_WRAP, 0>"]* @_ZN19fourth_order_doubleL6sin_K0E, i64 0, i64 116), i8* getelementptr inbounds ([22 x i8], [22 x i8]* @.str.761.49115, i32 0, i32 0))
  call void @_ZN8ap_fixedILi60ELi1EL9ap_q_mode5EL9ap_o_mode3ELi0EEC2EPKc(%"struct.ap_fixed<60, 52, AP_TRN, AP_WRAP, 0>"* getelementptr inbounds ([128 x %"struct.ap_fixed<60, 52, AP_TRN, AP_WRAP, 0>"], [128 x %"struct.ap_fixed<60, 52, AP_TRN, AP_WRAP, 0>"]* @_ZN19fourth_order_doubleL6sin_K0E, i64 0, i64 117), i8* getelementptr inbounds ([22 x i8], [22 x i8]* @.str.762.49116, i32 0, i32 0))
  call void @_ZN8ap_fixedILi60ELi1EL9ap_q_mode5EL9ap_o_mode3ELi0EEC2EPKc(%"struct.ap_fixed<60, 52, AP_TRN, AP_WRAP, 0>"* getelementptr inbounds ([128 x %"struct.ap_fixed<60, 52, AP_TRN, AP_WRAP, 0>"], [128 x %"struct.ap_fixed<60, 52, AP_TRN, AP_WRAP, 0>"]* @_ZN19fourth_order_doubleL6sin_K0E, i64 0, i64 118), i8* getelementptr inbounds ([22 x i8], [22 x i8]* @.str.763.49661, i32 0, i32 0))
  call void @_ZN8ap_fixedILi60ELi1EL9ap_q_mode5EL9ap_o_mode3ELi0EEC2EPKc(%"struct.ap_fixed<60, 52, AP_TRN, AP_WRAP, 0>"* getelementptr inbounds ([128 x %"struct.ap_fixed<60, 52, AP_TRN, AP_WRAP, 0>"], [128 x %"struct.ap_fixed<60, 52, AP_TRN, AP_WRAP, 0>"]* @_ZN19fourth_order_doubleL6sin_K0E, i64 0, i64 119), i8* getelementptr inbounds ([22 x i8], [22 x i8]* @.str.764.49118, i32 0, i32 0))
  call void @_ZN8ap_fixedILi60ELi1EL9ap_q_mode5EL9ap_o_mode3ELi0EEC2EPKc(%"struct.ap_fixed<60, 52, AP_TRN, AP_WRAP, 0>"* getelementptr inbounds ([128 x %"struct.ap_fixed<60, 52, AP_TRN, AP_WRAP, 0>"], [128 x %"struct.ap_fixed<60, 52, AP_TRN, AP_WRAP, 0>"]* @_ZN19fourth_order_doubleL6sin_K0E, i64 0, i64 120), i8* getelementptr inbounds ([22 x i8], [22 x i8]* @.str.765.49662, i32 0, i32 0))
  call void @_ZN8ap_fixedILi60ELi1EL9ap_q_mode5EL9ap_o_mode3ELi0EEC2EPKc(%"struct.ap_fixed<60, 52, AP_TRN, AP_WRAP, 0>"* getelementptr inbounds ([128 x %"struct.ap_fixed<60, 52, AP_TRN, AP_WRAP, 0>"], [128 x %"struct.ap_fixed<60, 52, AP_TRN, AP_WRAP, 0>"]* @_ZN19fourth_order_doubleL6sin_K0E, i64 0, i64 121), i8* getelementptr inbounds ([21 x i8], [21 x i8]* @.str.766.49120, i32 0, i32 0))
  call void @_ZN8ap_fixedILi60ELi1EL9ap_q_mode5EL9ap_o_mode3ELi0EEC2EPKc(%"struct.ap_fixed<60, 52, AP_TRN, AP_WRAP, 0>"* getelementptr inbounds ([128 x %"struct.ap_fixed<60, 52, AP_TRN, AP_WRAP, 0>"], [128 x %"struct.ap_fixed<60, 52, AP_TRN, AP_WRAP, 0>"]* @_ZN19fourth_order_doubleL6sin_K0E, i64 0, i64 122), i8* getelementptr inbounds ([22 x i8], [22 x i8]* @.str.767.49663, i32 0, i32 0))
  call void @_ZN8ap_fixedILi60ELi1EL9ap_q_mode5EL9ap_o_mode3ELi0EEC2EPKc(%"struct.ap_fixed<60, 52, AP_TRN, AP_WRAP, 0>"* getelementptr inbounds ([128 x %"struct.ap_fixed<60, 52, AP_TRN, AP_WRAP, 0>"], [128 x %"struct.ap_fixed<60, 52, AP_TRN, AP_WRAP, 0>"]* @_ZN19fourth_order_doubleL6sin_K0E, i64 0, i64 123), i8* getelementptr inbounds ([22 x i8], [22 x i8]* @.str.768.49122, i32 0, i32 0))
  call void @_ZN8ap_fixedILi60ELi1EL9ap_q_mode5EL9ap_o_mode3ELi0EEC2EPKc(%"struct.ap_fixed<60, 52, AP_TRN, AP_WRAP, 0>"* getelementptr inbounds ([128 x %"struct.ap_fixed<60, 52, AP_TRN, AP_WRAP, 0>"], [128 x %"struct.ap_fixed<60, 52, AP_TRN, AP_WRAP, 0>"]* @_ZN19fourth_order_doubleL6sin_K0E, i64 0, i64 124), i8* getelementptr inbounds ([22 x i8], [22 x i8]* @.str.769.49123, i32 0, i32 0))
  call void @_ZN8ap_fixedILi60ELi1EL9ap_q_mode5EL9ap_o_mode3ELi0EEC2EPKc(%"struct.ap_fixed<60, 52, AP_TRN, AP_WRAP, 0>"* getelementptr inbounds ([128 x %"struct.ap_fixed<60, 52, AP_TRN, AP_WRAP, 0>"], [128 x %"struct.ap_fixed<60, 52, AP_TRN, AP_WRAP, 0>"]* @_ZN19fourth_order_doubleL6sin_K0E, i64 0, i64 125), i8* getelementptr inbounds ([21 x i8], [21 x i8]* @.str.770.49124, i32 0, i32 0))
  call void @_ZN8ap_fixedILi60ELi1EL9ap_q_mode5EL9ap_o_mode3ELi0EEC2EPKc(%"struct.ap_fixed<60, 52, AP_TRN, AP_WRAP, 0>"* getelementptr inbounds ([128 x %"struct.ap_fixed<60, 52, AP_TRN, AP_WRAP, 0>"], [128 x %"struct.ap_fixed<60, 52, AP_TRN, AP_WRAP, 0>"]* @_ZN19fourth_order_doubleL6sin_K0E, i64 0, i64 126), i8* getelementptr inbounds ([22 x i8], [22 x i8]* @.str.771.49664, i32 0, i32 0))
  call void @_ZN8ap_fixedILi60ELi1EL9ap_q_mode5EL9ap_o_mode3ELi0EEC2EPKc(%"struct.ap_fixed<60, 52, AP_TRN, AP_WRAP, 0>"* getelementptr inbounds ([128 x %"struct.ap_fixed<60, 52, AP_TRN, AP_WRAP, 0>"], [128 x %"struct.ap_fixed<60, 52, AP_TRN, AP_WRAP, 0>"]* @_ZN19fourth_order_doubleL6sin_K0E, i64 0, i64 127), i8* getelementptr inbounds ([21 x i8], [21 x i8]* @.str.772.49126, i32 0, i32 0))
  ret void
}

; Function Attrs: nounwind
define internal void @__cxx_global_var_init.773() #0 section ".text.startup" {
entry:
  call void @_ZN8ap_fixedILi51ELin1EL9ap_q_mode5EL9ap_o_mode3ELi0EEC2EPKc(%"struct.ap_ufixed<51, 24, AP_TRN, AP_WRAP, 0>"* getelementptr inbounds ([128 x %"struct.ap_ufixed<51, 24, AP_TRN, AP_WRAP, 0>"], [128 x %"struct.ap_ufixed<51, 24, AP_TRN, AP_WRAP, 0>"]* @_ZN19fourth_order_doubleL6sin_K1E, i64 0, i64 0), i8* getelementptr inbounds ([10 x i8], [10 x i8]* @.str.774.49505, i32 0, i32 0))
  call void @_ZN8ap_fixedILi51ELin1EL9ap_q_mode5EL9ap_o_mode3ELi0EEC2EPKc(%"struct.ap_ufixed<51, 24, AP_TRN, AP_WRAP, 0>"* getelementptr inbounds ([128 x %"struct.ap_ufixed<51, 24, AP_TRN, AP_WRAP, 0>"], [128 x %"struct.ap_ufixed<51, 24, AP_TRN, AP_WRAP, 0>"]* @_ZN19fourth_order_doubleL6sin_K1E, i64 0, i64 1), i8* getelementptr inbounds ([20 x i8], [20 x i8]* @.str.775.49506, i32 0, i32 0))
  call void @_ZN8ap_fixedILi51ELin1EL9ap_q_mode5EL9ap_o_mode3ELi0EEC2EPKc(%"struct.ap_ufixed<51, 24, AP_TRN, AP_WRAP, 0>"* getelementptr inbounds ([128 x %"struct.ap_ufixed<51, 24, AP_TRN, AP_WRAP, 0>"], [128 x %"struct.ap_ufixed<51, 24, AP_TRN, AP_WRAP, 0>"]* @_ZN19fourth_order_doubleL6sin_K1E, i64 0, i64 2), i8* getelementptr inbounds ([20 x i8], [20 x i8]* @.str.776.49507, i32 0, i32 0))
  call void @_ZN8ap_fixedILi51ELin1EL9ap_q_mode5EL9ap_o_mode3ELi0EEC2EPKc(%"struct.ap_ufixed<51, 24, AP_TRN, AP_WRAP, 0>"* getelementptr inbounds ([128 x %"struct.ap_ufixed<51, 24, AP_TRN, AP_WRAP, 0>"], [128 x %"struct.ap_ufixed<51, 24, AP_TRN, AP_WRAP, 0>"]* @_ZN19fourth_order_doubleL6sin_K1E, i64 0, i64 3), i8* getelementptr inbounds ([20 x i8], [20 x i8]* @.str.777.49508, i32 0, i32 0))
  call void @_ZN8ap_fixedILi51ELin1EL9ap_q_mode5EL9ap_o_mode3ELi0EEC2EPKc(%"struct.ap_ufixed<51, 24, AP_TRN, AP_WRAP, 0>"* getelementptr inbounds ([128 x %"struct.ap_ufixed<51, 24, AP_TRN, AP_WRAP, 0>"], [128 x %"struct.ap_ufixed<51, 24, AP_TRN, AP_WRAP, 0>"]* @_ZN19fourth_order_doubleL6sin_K1E, i64 0, i64 4), i8* getelementptr inbounds ([20 x i8], [20 x i8]* @.str.778.49509, i32 0, i32 0))
  call void @_ZN8ap_fixedILi51ELin1EL9ap_q_mode5EL9ap_o_mode3ELi0EEC2EPKc(%"struct.ap_ufixed<51, 24, AP_TRN, AP_WRAP, 0>"* getelementptr inbounds ([128 x %"struct.ap_ufixed<51, 24, AP_TRN, AP_WRAP, 0>"], [128 x %"struct.ap_ufixed<51, 24, AP_TRN, AP_WRAP, 0>"]* @_ZN19fourth_order_doubleL6sin_K1E, i64 0, i64 5), i8* getelementptr inbounds ([20 x i8], [20 x i8]* @.str.779.49510, i32 0, i32 0))
  call void @_ZN8ap_fixedILi51ELin1EL9ap_q_mode5EL9ap_o_mode3ELi0EEC2EPKc(%"struct.ap_ufixed<51, 24, AP_TRN, AP_WRAP, 0>"* getelementptr inbounds ([128 x %"struct.ap_ufixed<51, 24, AP_TRN, AP_WRAP, 0>"], [128 x %"struct.ap_ufixed<51, 24, AP_TRN, AP_WRAP, 0>"]* @_ZN19fourth_order_doubleL6sin_K1E, i64 0, i64 6), i8* getelementptr inbounds ([20 x i8], [20 x i8]* @.str.780.49511, i32 0, i32 0))
  call void @_ZN8ap_fixedILi51ELin1EL9ap_q_mode5EL9ap_o_mode3ELi0EEC2EPKc(%"struct.ap_ufixed<51, 24, AP_TRN, AP_WRAP, 0>"* getelementptr inbounds ([128 x %"struct.ap_ufixed<51, 24, AP_TRN, AP_WRAP, 0>"], [128 x %"struct.ap_ufixed<51, 24, AP_TRN, AP_WRAP, 0>"]* @_ZN19fourth_order_doubleL6sin_K1E, i64 0, i64 7), i8* getelementptr inbounds ([20 x i8], [20 x i8]* @.str.781.48750, i32 0, i32 0))
  call void @_ZN8ap_fixedILi51ELin1EL9ap_q_mode5EL9ap_o_mode3ELi0EEC2EPKc(%"struct.ap_ufixed<51, 24, AP_TRN, AP_WRAP, 0>"* getelementptr inbounds ([128 x %"struct.ap_ufixed<51, 24, AP_TRN, AP_WRAP, 0>"], [128 x %"struct.ap_ufixed<51, 24, AP_TRN, AP_WRAP, 0>"]* @_ZN19fourth_order_doubleL6sin_K1E, i64 0, i64 8), i8* getelementptr inbounds ([20 x i8], [20 x i8]* @.str.782.49512, i32 0, i32 0))
  call void @_ZN8ap_fixedILi51ELin1EL9ap_q_mode5EL9ap_o_mode3ELi0EEC2EPKc(%"struct.ap_ufixed<51, 24, AP_TRN, AP_WRAP, 0>"* getelementptr inbounds ([128 x %"struct.ap_ufixed<51, 24, AP_TRN, AP_WRAP, 0>"], [128 x %"struct.ap_ufixed<51, 24, AP_TRN, AP_WRAP, 0>"]* @_ZN19fourth_order_doubleL6sin_K1E, i64 0, i64 9), i8* getelementptr inbounds ([20 x i8], [20 x i8]* @.str.783.49513, i32 0, i32 0))
  call void @_ZN8ap_fixedILi51ELin1EL9ap_q_mode5EL9ap_o_mode3ELi0EEC2EPKc(%"struct.ap_ufixed<51, 24, AP_TRN, AP_WRAP, 0>"* getelementptr inbounds ([128 x %"struct.ap_ufixed<51, 24, AP_TRN, AP_WRAP, 0>"], [128 x %"struct.ap_ufixed<51, 24, AP_TRN, AP_WRAP, 0>"]* @_ZN19fourth_order_doubleL6sin_K1E, i64 0, i64 10), i8* getelementptr inbounds ([20 x i8], [20 x i8]* @.str.784.48753, i32 0, i32 0))
  call void @_ZN8ap_fixedILi51ELin1EL9ap_q_mode5EL9ap_o_mode3ELi0EEC2EPKc(%"struct.ap_ufixed<51, 24, AP_TRN, AP_WRAP, 0>"* getelementptr inbounds ([128 x %"struct.ap_ufixed<51, 24, AP_TRN, AP_WRAP, 0>"], [128 x %"struct.ap_ufixed<51, 24, AP_TRN, AP_WRAP, 0>"]* @_ZN19fourth_order_doubleL6sin_K1E, i64 0, i64 11), i8* getelementptr inbounds ([20 x i8], [20 x i8]* @.str.785.49514, i32 0, i32 0))
  call void @_ZN8ap_fixedILi51ELin1EL9ap_q_mode5EL9ap_o_mode3ELi0EEC2EPKc(%"struct.ap_ufixed<51, 24, AP_TRN, AP_WRAP, 0>"* getelementptr inbounds ([128 x %"struct.ap_ufixed<51, 24, AP_TRN, AP_WRAP, 0>"], [128 x %"struct.ap_ufixed<51, 24, AP_TRN, AP_WRAP, 0>"]* @_ZN19fourth_order_doubleL6sin_K1E, i64 0, i64 12), i8* getelementptr inbounds ([20 x i8], [20 x i8]* @.str.786.48755, i32 0, i32 0))
  call void @_ZN8ap_fixedILi51ELin1EL9ap_q_mode5EL9ap_o_mode3ELi0EEC2EPKc(%"struct.ap_ufixed<51, 24, AP_TRN, AP_WRAP, 0>"* getelementptr inbounds ([128 x %"struct.ap_ufixed<51, 24, AP_TRN, AP_WRAP, 0>"], [128 x %"struct.ap_ufixed<51, 24, AP_TRN, AP_WRAP, 0>"]* @_ZN19fourth_order_doubleL6sin_K1E, i64 0, i64 13), i8* getelementptr inbounds ([20 x i8], [20 x i8]* @.str.787.49515, i32 0, i32 0))
  call void @_ZN8ap_fixedILi51ELin1EL9ap_q_mode5EL9ap_o_mode3ELi0EEC2EPKc(%"struct.ap_ufixed<51, 24, AP_TRN, AP_WRAP, 0>"* getelementptr inbounds ([128 x %"struct.ap_ufixed<51, 24, AP_TRN, AP_WRAP, 0>"], [128 x %"struct.ap_ufixed<51, 24, AP_TRN, AP_WRAP, 0>"]* @_ZN19fourth_order_doubleL6sin_K1E, i64 0, i64 14), i8* getelementptr inbounds ([20 x i8], [20 x i8]* @.str.788.49516, i32 0, i32 0))
  call void @_ZN8ap_fixedILi51ELin1EL9ap_q_mode5EL9ap_o_mode3ELi0EEC2EPKc(%"struct.ap_ufixed<51, 24, AP_TRN, AP_WRAP, 0>"* getelementptr inbounds ([128 x %"struct.ap_ufixed<51, 24, AP_TRN, AP_WRAP, 0>"], [128 x %"struct.ap_ufixed<51, 24, AP_TRN, AP_WRAP, 0>"]* @_ZN19fourth_order_doubleL6sin_K1E, i64 0, i64 15), i8* getelementptr inbounds ([19 x i8], [19 x i8]* @.str.789.49517, i32 0, i32 0))
  call void @_ZN8ap_fixedILi51ELin1EL9ap_q_mode5EL9ap_o_mode3ELi0EEC2EPKc(%"struct.ap_ufixed<51, 24, AP_TRN, AP_WRAP, 0>"* getelementptr inbounds ([128 x %"struct.ap_ufixed<51, 24, AP_TRN, AP_WRAP, 0>"], [128 x %"struct.ap_ufixed<51, 24, AP_TRN, AP_WRAP, 0>"]* @_ZN19fourth_order_doubleL6sin_K1E, i64 0, i64 16), i8* getelementptr inbounds ([20 x i8], [20 x i8]* @.str.790.48759, i32 0, i32 0))
  call void @_ZN8ap_fixedILi51ELin1EL9ap_q_mode5EL9ap_o_mode3ELi0EEC2EPKc(%"struct.ap_ufixed<51, 24, AP_TRN, AP_WRAP, 0>"* getelementptr inbounds ([128 x %"struct.ap_ufixed<51, 24, AP_TRN, AP_WRAP, 0>"], [128 x %"struct.ap_ufixed<51, 24, AP_TRN, AP_WRAP, 0>"]* @_ZN19fourth_order_doubleL6sin_K1E, i64 0, i64 17), i8* getelementptr inbounds ([20 x i8], [20 x i8]* @.str.791.48760, i32 0, i32 0))
  call void @_ZN8ap_fixedILi51ELin1EL9ap_q_mode5EL9ap_o_mode3ELi0EEC2EPKc(%"struct.ap_ufixed<51, 24, AP_TRN, AP_WRAP, 0>"* getelementptr inbounds ([128 x %"struct.ap_ufixed<51, 24, AP_TRN, AP_WRAP, 0>"], [128 x %"struct.ap_ufixed<51, 24, AP_TRN, AP_WRAP, 0>"]* @_ZN19fourth_order_doubleL6sin_K1E, i64 0, i64 18), i8* getelementptr inbounds ([20 x i8], [20 x i8]* @.str.792.49518, i32 0, i32 0))
  call void @_ZN8ap_fixedILi51ELin1EL9ap_q_mode5EL9ap_o_mode3ELi0EEC2EPKc(%"struct.ap_ufixed<51, 24, AP_TRN, AP_WRAP, 0>"* getelementptr inbounds ([128 x %"struct.ap_ufixed<51, 24, AP_TRN, AP_WRAP, 0>"], [128 x %"struct.ap_ufixed<51, 24, AP_TRN, AP_WRAP, 0>"]* @_ZN19fourth_order_doubleL6sin_K1E, i64 0, i64 19), i8* getelementptr inbounds ([20 x i8], [20 x i8]* @.str.793.48762, i32 0, i32 0))
  call void @_ZN8ap_fixedILi51ELin1EL9ap_q_mode5EL9ap_o_mode3ELi0EEC2EPKc(%"struct.ap_ufixed<51, 24, AP_TRN, AP_WRAP, 0>"* getelementptr inbounds ([128 x %"struct.ap_ufixed<51, 24, AP_TRN, AP_WRAP, 0>"], [128 x %"struct.ap_ufixed<51, 24, AP_TRN, AP_WRAP, 0>"]* @_ZN19fourth_order_doubleL6sin_K1E, i64 0, i64 20), i8* getelementptr inbounds ([20 x i8], [20 x i8]* @.str.794.49519, i32 0, i32 0))
  call void @_ZN8ap_fixedILi51ELin1EL9ap_q_mode5EL9ap_o_mode3ELi0EEC2EPKc(%"struct.ap_ufixed<51, 24, AP_TRN, AP_WRAP, 0>"* getelementptr inbounds ([128 x %"struct.ap_ufixed<51, 24, AP_TRN, AP_WRAP, 0>"], [128 x %"struct.ap_ufixed<51, 24, AP_TRN, AP_WRAP, 0>"]* @_ZN19fourth_order_doubleL6sin_K1E, i64 0, i64 21), i8* getelementptr inbounds ([20 x i8], [20 x i8]* @.str.795.49520, i32 0, i32 0))
  call void @_ZN8ap_fixedILi51ELin1EL9ap_q_mode5EL9ap_o_mode3ELi0EEC2EPKc(%"struct.ap_ufixed<51, 24, AP_TRN, AP_WRAP, 0>"* getelementptr inbounds ([128 x %"struct.ap_ufixed<51, 24, AP_TRN, AP_WRAP, 0>"], [128 x %"struct.ap_ufixed<51, 24, AP_TRN, AP_WRAP, 0>"]* @_ZN19fourth_order_doubleL6sin_K1E, i64 0, i64 22), i8* getelementptr inbounds ([20 x i8], [20 x i8]* @.str.796.49521, i32 0, i32 0))
  call void @_ZN8ap_fixedILi51ELin1EL9ap_q_mode5EL9ap_o_mode3ELi0EEC2EPKc(%"struct.ap_ufixed<51, 24, AP_TRN, AP_WRAP, 0>"* getelementptr inbounds ([128 x %"struct.ap_ufixed<51, 24, AP_TRN, AP_WRAP, 0>"], [128 x %"struct.ap_ufixed<51, 24, AP_TRN, AP_WRAP, 0>"]* @_ZN19fourth_order_doubleL6sin_K1E, i64 0, i64 23), i8* getelementptr inbounds ([20 x i8], [20 x i8]* @.str.797.49522, i32 0, i32 0))
  call void @_ZN8ap_fixedILi51ELin1EL9ap_q_mode5EL9ap_o_mode3ELi0EEC2EPKc(%"struct.ap_ufixed<51, 24, AP_TRN, AP_WRAP, 0>"* getelementptr inbounds ([128 x %"struct.ap_ufixed<51, 24, AP_TRN, AP_WRAP, 0>"], [128 x %"struct.ap_ufixed<51, 24, AP_TRN, AP_WRAP, 0>"]* @_ZN19fourth_order_doubleL6sin_K1E, i64 0, i64 24), i8* getelementptr inbounds ([20 x i8], [20 x i8]* @.str.798.49523, i32 0, i32 0))
  call void @_ZN8ap_fixedILi51ELin1EL9ap_q_mode5EL9ap_o_mode3ELi0EEC2EPKc(%"struct.ap_ufixed<51, 24, AP_TRN, AP_WRAP, 0>"* getelementptr inbounds ([128 x %"struct.ap_ufixed<51, 24, AP_TRN, AP_WRAP, 0>"], [128 x %"struct.ap_ufixed<51, 24, AP_TRN, AP_WRAP, 0>"]* @_ZN19fourth_order_doubleL6sin_K1E, i64 0, i64 25), i8* getelementptr inbounds ([20 x i8], [20 x i8]* @.str.799.49524, i32 0, i32 0))
  call void @_ZN8ap_fixedILi51ELin1EL9ap_q_mode5EL9ap_o_mode3ELi0EEC2EPKc(%"struct.ap_ufixed<51, 24, AP_TRN, AP_WRAP, 0>"* getelementptr inbounds ([128 x %"struct.ap_ufixed<51, 24, AP_TRN, AP_WRAP, 0>"], [128 x %"struct.ap_ufixed<51, 24, AP_TRN, AP_WRAP, 0>"]* @_ZN19fourth_order_doubleL6sin_K1E, i64 0, i64 26), i8* getelementptr inbounds ([20 x i8], [20 x i8]* @.str.800.49525, i32 0, i32 0))
  call void @_ZN8ap_fixedILi51ELin1EL9ap_q_mode5EL9ap_o_mode3ELi0EEC2EPKc(%"struct.ap_ufixed<51, 24, AP_TRN, AP_WRAP, 0>"* getelementptr inbounds ([128 x %"struct.ap_ufixed<51, 24, AP_TRN, AP_WRAP, 0>"], [128 x %"struct.ap_ufixed<51, 24, AP_TRN, AP_WRAP, 0>"]* @_ZN19fourth_order_doubleL6sin_K1E, i64 0, i64 27), i8* getelementptr inbounds ([20 x i8], [20 x i8]* @.str.801.48770, i32 0, i32 0))
  call void @_ZN8ap_fixedILi51ELin1EL9ap_q_mode5EL9ap_o_mode3ELi0EEC2EPKc(%"struct.ap_ufixed<51, 24, AP_TRN, AP_WRAP, 0>"* getelementptr inbounds ([128 x %"struct.ap_ufixed<51, 24, AP_TRN, AP_WRAP, 0>"], [128 x %"struct.ap_ufixed<51, 24, AP_TRN, AP_WRAP, 0>"]* @_ZN19fourth_order_doubleL6sin_K1E, i64 0, i64 28), i8* getelementptr inbounds ([20 x i8], [20 x i8]* @.str.802.49526, i32 0, i32 0))
  call void @_ZN8ap_fixedILi51ELin1EL9ap_q_mode5EL9ap_o_mode3ELi0EEC2EPKc(%"struct.ap_ufixed<51, 24, AP_TRN, AP_WRAP, 0>"* getelementptr inbounds ([128 x %"struct.ap_ufixed<51, 24, AP_TRN, AP_WRAP, 0>"], [128 x %"struct.ap_ufixed<51, 24, AP_TRN, AP_WRAP, 0>"]* @_ZN19fourth_order_doubleL6sin_K1E, i64 0, i64 29), i8* getelementptr inbounds ([20 x i8], [20 x i8]* @.str.803.49527, i32 0, i32 0))
  call void @_ZN8ap_fixedILi51ELin1EL9ap_q_mode5EL9ap_o_mode3ELi0EEC2EPKc(%"struct.ap_ufixed<51, 24, AP_TRN, AP_WRAP, 0>"* getelementptr inbounds ([128 x %"struct.ap_ufixed<51, 24, AP_TRN, AP_WRAP, 0>"], [128 x %"struct.ap_ufixed<51, 24, AP_TRN, AP_WRAP, 0>"]* @_ZN19fourth_order_doubleL6sin_K1E, i64 0, i64 30), i8* getelementptr inbounds ([20 x i8], [20 x i8]* @.str.804.49528, i32 0, i32 0))
  call void @_ZN8ap_fixedILi51ELin1EL9ap_q_mode5EL9ap_o_mode3ELi0EEC2EPKc(%"struct.ap_ufixed<51, 24, AP_TRN, AP_WRAP, 0>"* getelementptr inbounds ([128 x %"struct.ap_ufixed<51, 24, AP_TRN, AP_WRAP, 0>"], [128 x %"struct.ap_ufixed<51, 24, AP_TRN, AP_WRAP, 0>"]* @_ZN19fourth_order_doubleL6sin_K1E, i64 0, i64 31), i8* getelementptr inbounds ([20 x i8], [20 x i8]* @.str.805.49529, i32 0, i32 0))
  call void @_ZN8ap_fixedILi51ELin1EL9ap_q_mode5EL9ap_o_mode3ELi0EEC2EPKc(%"struct.ap_ufixed<51, 24, AP_TRN, AP_WRAP, 0>"* getelementptr inbounds ([128 x %"struct.ap_ufixed<51, 24, AP_TRN, AP_WRAP, 0>"], [128 x %"struct.ap_ufixed<51, 24, AP_TRN, AP_WRAP, 0>"]* @_ZN19fourth_order_doubleL6sin_K1E, i64 0, i64 32), i8* getelementptr inbounds ([20 x i8], [20 x i8]* @.str.806.49530, i32 0, i32 0))
  call void @_ZN8ap_fixedILi51ELin1EL9ap_q_mode5EL9ap_o_mode3ELi0EEC2EPKc(%"struct.ap_ufixed<51, 24, AP_TRN, AP_WRAP, 0>"* getelementptr inbounds ([128 x %"struct.ap_ufixed<51, 24, AP_TRN, AP_WRAP, 0>"], [128 x %"struct.ap_ufixed<51, 24, AP_TRN, AP_WRAP, 0>"]* @_ZN19fourth_order_doubleL6sin_K1E, i64 0, i64 33), i8* getelementptr inbounds ([20 x i8], [20 x i8]* @.str.807.49531, i32 0, i32 0))
  call void @_ZN8ap_fixedILi51ELin1EL9ap_q_mode5EL9ap_o_mode3ELi0EEC2EPKc(%"struct.ap_ufixed<51, 24, AP_TRN, AP_WRAP, 0>"* getelementptr inbounds ([128 x %"struct.ap_ufixed<51, 24, AP_TRN, AP_WRAP, 0>"], [128 x %"struct.ap_ufixed<51, 24, AP_TRN, AP_WRAP, 0>"]* @_ZN19fourth_order_doubleL6sin_K1E, i64 0, i64 34), i8* getelementptr inbounds ([20 x i8], [20 x i8]* @.str.808.49532, i32 0, i32 0))
  call void @_ZN8ap_fixedILi51ELin1EL9ap_q_mode5EL9ap_o_mode3ELi0EEC2EPKc(%"struct.ap_ufixed<51, 24, AP_TRN, AP_WRAP, 0>"* getelementptr inbounds ([128 x %"struct.ap_ufixed<51, 24, AP_TRN, AP_WRAP, 0>"], [128 x %"struct.ap_ufixed<51, 24, AP_TRN, AP_WRAP, 0>"]* @_ZN19fourth_order_doubleL6sin_K1E, i64 0, i64 35), i8* getelementptr inbounds ([20 x i8], [20 x i8]* @.str.809.49533, i32 0, i32 0))
  call void @_ZN8ap_fixedILi51ELin1EL9ap_q_mode5EL9ap_o_mode3ELi0EEC2EPKc(%"struct.ap_ufixed<51, 24, AP_TRN, AP_WRAP, 0>"* getelementptr inbounds ([128 x %"struct.ap_ufixed<51, 24, AP_TRN, AP_WRAP, 0>"], [128 x %"struct.ap_ufixed<51, 24, AP_TRN, AP_WRAP, 0>"]* @_ZN19fourth_order_doubleL6sin_K1E, i64 0, i64 36), i8* getelementptr inbounds ([20 x i8], [20 x i8]* @.str.810.49534, i32 0, i32 0))
  call void @_ZN8ap_fixedILi51ELin1EL9ap_q_mode5EL9ap_o_mode3ELi0EEC2EPKc(%"struct.ap_ufixed<51, 24, AP_TRN, AP_WRAP, 0>"* getelementptr inbounds ([128 x %"struct.ap_ufixed<51, 24, AP_TRN, AP_WRAP, 0>"], [128 x %"struct.ap_ufixed<51, 24, AP_TRN, AP_WRAP, 0>"]* @_ZN19fourth_order_doubleL6sin_K1E, i64 0, i64 37), i8* getelementptr inbounds ([20 x i8], [20 x i8]* @.str.811.49535, i32 0, i32 0))
  call void @_ZN8ap_fixedILi51ELin1EL9ap_q_mode5EL9ap_o_mode3ELi0EEC2EPKc(%"struct.ap_ufixed<51, 24, AP_TRN, AP_WRAP, 0>"* getelementptr inbounds ([128 x %"struct.ap_ufixed<51, 24, AP_TRN, AP_WRAP, 0>"], [128 x %"struct.ap_ufixed<51, 24, AP_TRN, AP_WRAP, 0>"]* @_ZN19fourth_order_doubleL6sin_K1E, i64 0, i64 38), i8* getelementptr inbounds ([19 x i8], [19 x i8]* @.str.812.49536, i32 0, i32 0))
  call void @_ZN8ap_fixedILi51ELin1EL9ap_q_mode5EL9ap_o_mode3ELi0EEC2EPKc(%"struct.ap_ufixed<51, 24, AP_TRN, AP_WRAP, 0>"* getelementptr inbounds ([128 x %"struct.ap_ufixed<51, 24, AP_TRN, AP_WRAP, 0>"], [128 x %"struct.ap_ufixed<51, 24, AP_TRN, AP_WRAP, 0>"]* @_ZN19fourth_order_doubleL6sin_K1E, i64 0, i64 39), i8* getelementptr inbounds ([20 x i8], [20 x i8]* @.str.813.48782, i32 0, i32 0))
  call void @_ZN8ap_fixedILi51ELin1EL9ap_q_mode5EL9ap_o_mode3ELi0EEC2EPKc(%"struct.ap_ufixed<51, 24, AP_TRN, AP_WRAP, 0>"* getelementptr inbounds ([128 x %"struct.ap_ufixed<51, 24, AP_TRN, AP_WRAP, 0>"], [128 x %"struct.ap_ufixed<51, 24, AP_TRN, AP_WRAP, 0>"]* @_ZN19fourth_order_doubleL6sin_K1E, i64 0, i64 40), i8* getelementptr inbounds ([20 x i8], [20 x i8]* @.str.814.49537, i32 0, i32 0))
  call void @_ZN8ap_fixedILi51ELin1EL9ap_q_mode5EL9ap_o_mode3ELi0EEC2EPKc(%"struct.ap_ufixed<51, 24, AP_TRN, AP_WRAP, 0>"* getelementptr inbounds ([128 x %"struct.ap_ufixed<51, 24, AP_TRN, AP_WRAP, 0>"], [128 x %"struct.ap_ufixed<51, 24, AP_TRN, AP_WRAP, 0>"]* @_ZN19fourth_order_doubleL6sin_K1E, i64 0, i64 41), i8* getelementptr inbounds ([20 x i8], [20 x i8]* @.str.815.48784, i32 0, i32 0))
  call void @_ZN8ap_fixedILi51ELin1EL9ap_q_mode5EL9ap_o_mode3ELi0EEC2EPKc(%"struct.ap_ufixed<51, 24, AP_TRN, AP_WRAP, 0>"* getelementptr inbounds ([128 x %"struct.ap_ufixed<51, 24, AP_TRN, AP_WRAP, 0>"], [128 x %"struct.ap_ufixed<51, 24, AP_TRN, AP_WRAP, 0>"]* @_ZN19fourth_order_doubleL6sin_K1E, i64 0, i64 42), i8* getelementptr inbounds ([20 x i8], [20 x i8]* @.str.816.49538, i32 0, i32 0))
  call void @_ZN8ap_fixedILi51ELin1EL9ap_q_mode5EL9ap_o_mode3ELi0EEC2EPKc(%"struct.ap_ufixed<51, 24, AP_TRN, AP_WRAP, 0>"* getelementptr inbounds ([128 x %"struct.ap_ufixed<51, 24, AP_TRN, AP_WRAP, 0>"], [128 x %"struct.ap_ufixed<51, 24, AP_TRN, AP_WRAP, 0>"]* @_ZN19fourth_order_doubleL6sin_K1E, i64 0, i64 43), i8* getelementptr inbounds ([20 x i8], [20 x i8]* @.str.817.49539, i32 0, i32 0))
  call void @_ZN8ap_fixedILi51ELin1EL9ap_q_mode5EL9ap_o_mode3ELi0EEC2EPKc(%"struct.ap_ufixed<51, 24, AP_TRN, AP_WRAP, 0>"* getelementptr inbounds ([128 x %"struct.ap_ufixed<51, 24, AP_TRN, AP_WRAP, 0>"], [128 x %"struct.ap_ufixed<51, 24, AP_TRN, AP_WRAP, 0>"]* @_ZN19fourth_order_doubleL6sin_K1E, i64 0, i64 44), i8* getelementptr inbounds ([20 x i8], [20 x i8]* @.str.818.49540, i32 0, i32 0))
  call void @_ZN8ap_fixedILi51ELin1EL9ap_q_mode5EL9ap_o_mode3ELi0EEC2EPKc(%"struct.ap_ufixed<51, 24, AP_TRN, AP_WRAP, 0>"* getelementptr inbounds ([128 x %"struct.ap_ufixed<51, 24, AP_TRN, AP_WRAP, 0>"], [128 x %"struct.ap_ufixed<51, 24, AP_TRN, AP_WRAP, 0>"]* @_ZN19fourth_order_doubleL6sin_K1E, i64 0, i64 45), i8* getelementptr inbounds ([20 x i8], [20 x i8]* @.str.819.49541, i32 0, i32 0))
  call void @_ZN8ap_fixedILi51ELin1EL9ap_q_mode5EL9ap_o_mode3ELi0EEC2EPKc(%"struct.ap_ufixed<51, 24, AP_TRN, AP_WRAP, 0>"* getelementptr inbounds ([128 x %"struct.ap_ufixed<51, 24, AP_TRN, AP_WRAP, 0>"], [128 x %"struct.ap_ufixed<51, 24, AP_TRN, AP_WRAP, 0>"]* @_ZN19fourth_order_doubleL6sin_K1E, i64 0, i64 46), i8* getelementptr inbounds ([20 x i8], [20 x i8]* @.str.820.49542, i32 0, i32 0))
  call void @_ZN8ap_fixedILi51ELin1EL9ap_q_mode5EL9ap_o_mode3ELi0EEC2EPKc(%"struct.ap_ufixed<51, 24, AP_TRN, AP_WRAP, 0>"* getelementptr inbounds ([128 x %"struct.ap_ufixed<51, 24, AP_TRN, AP_WRAP, 0>"], [128 x %"struct.ap_ufixed<51, 24, AP_TRN, AP_WRAP, 0>"]* @_ZN19fourth_order_doubleL6sin_K1E, i64 0, i64 47), i8* getelementptr inbounds ([20 x i8], [20 x i8]* @.str.821.48790, i32 0, i32 0))
  call void @_ZN8ap_fixedILi51ELin1EL9ap_q_mode5EL9ap_o_mode3ELi0EEC2EPKc(%"struct.ap_ufixed<51, 24, AP_TRN, AP_WRAP, 0>"* getelementptr inbounds ([128 x %"struct.ap_ufixed<51, 24, AP_TRN, AP_WRAP, 0>"], [128 x %"struct.ap_ufixed<51, 24, AP_TRN, AP_WRAP, 0>"]* @_ZN19fourth_order_doubleL6sin_K1E, i64 0, i64 48), i8* getelementptr inbounds ([20 x i8], [20 x i8]* @.str.822.49543, i32 0, i32 0))
  call void @_ZN8ap_fixedILi51ELin1EL9ap_q_mode5EL9ap_o_mode3ELi0EEC2EPKc(%"struct.ap_ufixed<51, 24, AP_TRN, AP_WRAP, 0>"* getelementptr inbounds ([128 x %"struct.ap_ufixed<51, 24, AP_TRN, AP_WRAP, 0>"], [128 x %"struct.ap_ufixed<51, 24, AP_TRN, AP_WRAP, 0>"]* @_ZN19fourth_order_doubleL6sin_K1E, i64 0, i64 49), i8* getelementptr inbounds ([20 x i8], [20 x i8]* @.str.823.49544, i32 0, i32 0))
  call void @_ZN8ap_fixedILi51ELin1EL9ap_q_mode5EL9ap_o_mode3ELi0EEC2EPKc(%"struct.ap_ufixed<51, 24, AP_TRN, AP_WRAP, 0>"* getelementptr inbounds ([128 x %"struct.ap_ufixed<51, 24, AP_TRN, AP_WRAP, 0>"], [128 x %"struct.ap_ufixed<51, 24, AP_TRN, AP_WRAP, 0>"]* @_ZN19fourth_order_doubleL6sin_K1E, i64 0, i64 50), i8* getelementptr inbounds ([20 x i8], [20 x i8]* @.str.824.49545, i32 0, i32 0))
  call void @_ZN8ap_fixedILi51ELin1EL9ap_q_mode5EL9ap_o_mode3ELi0EEC2EPKc(%"struct.ap_ufixed<51, 24, AP_TRN, AP_WRAP, 0>"* getelementptr inbounds ([128 x %"struct.ap_ufixed<51, 24, AP_TRN, AP_WRAP, 0>"], [128 x %"struct.ap_ufixed<51, 24, AP_TRN, AP_WRAP, 0>"]* @_ZN19fourth_order_doubleL6sin_K1E, i64 0, i64 51), i8* getelementptr inbounds ([21 x i8], [21 x i8]* @.str.825.49546, i32 0, i32 0))
  call void @_ZN8ap_fixedILi51ELin1EL9ap_q_mode5EL9ap_o_mode3ELi0EEC2EPKc(%"struct.ap_ufixed<51, 24, AP_TRN, AP_WRAP, 0>"* getelementptr inbounds ([128 x %"struct.ap_ufixed<51, 24, AP_TRN, AP_WRAP, 0>"], [128 x %"struct.ap_ufixed<51, 24, AP_TRN, AP_WRAP, 0>"]* @_ZN19fourth_order_doubleL6sin_K1E, i64 0, i64 52), i8* getelementptr inbounds ([21 x i8], [21 x i8]* @.str.826.48795, i32 0, i32 0))
  call void @_ZN8ap_fixedILi51ELin1EL9ap_q_mode5EL9ap_o_mode3ELi0EEC2EPKc(%"struct.ap_ufixed<51, 24, AP_TRN, AP_WRAP, 0>"* getelementptr inbounds ([128 x %"struct.ap_ufixed<51, 24, AP_TRN, AP_WRAP, 0>"], [128 x %"struct.ap_ufixed<51, 24, AP_TRN, AP_WRAP, 0>"]* @_ZN19fourth_order_doubleL6sin_K1E, i64 0, i64 53), i8* getelementptr inbounds ([21 x i8], [21 x i8]* @.str.827.49547, i32 0, i32 0))
  call void @_ZN8ap_fixedILi51ELin1EL9ap_q_mode5EL9ap_o_mode3ELi0EEC2EPKc(%"struct.ap_ufixed<51, 24, AP_TRN, AP_WRAP, 0>"* getelementptr inbounds ([128 x %"struct.ap_ufixed<51, 24, AP_TRN, AP_WRAP, 0>"], [128 x %"struct.ap_ufixed<51, 24, AP_TRN, AP_WRAP, 0>"]* @_ZN19fourth_order_doubleL6sin_K1E, i64 0, i64 54), i8* getelementptr inbounds ([21 x i8], [21 x i8]* @.str.828.49548, i32 0, i32 0))
  call void @_ZN8ap_fixedILi51ELin1EL9ap_q_mode5EL9ap_o_mode3ELi0EEC2EPKc(%"struct.ap_ufixed<51, 24, AP_TRN, AP_WRAP, 0>"* getelementptr inbounds ([128 x %"struct.ap_ufixed<51, 24, AP_TRN, AP_WRAP, 0>"], [128 x %"struct.ap_ufixed<51, 24, AP_TRN, AP_WRAP, 0>"]* @_ZN19fourth_order_doubleL6sin_K1E, i64 0, i64 55), i8* getelementptr inbounds ([21 x i8], [21 x i8]* @.str.829.48798, i32 0, i32 0))
  call void @_ZN8ap_fixedILi51ELin1EL9ap_q_mode5EL9ap_o_mode3ELi0EEC2EPKc(%"struct.ap_ufixed<51, 24, AP_TRN, AP_WRAP, 0>"* getelementptr inbounds ([128 x %"struct.ap_ufixed<51, 24, AP_TRN, AP_WRAP, 0>"], [128 x %"struct.ap_ufixed<51, 24, AP_TRN, AP_WRAP, 0>"]* @_ZN19fourth_order_doubleL6sin_K1E, i64 0, i64 56), i8* getelementptr inbounds ([21 x i8], [21 x i8]* @.str.830.48799, i32 0, i32 0))
  call void @_ZN8ap_fixedILi51ELin1EL9ap_q_mode5EL9ap_o_mode3ELi0EEC2EPKc(%"struct.ap_ufixed<51, 24, AP_TRN, AP_WRAP, 0>"* getelementptr inbounds ([128 x %"struct.ap_ufixed<51, 24, AP_TRN, AP_WRAP, 0>"], [128 x %"struct.ap_ufixed<51, 24, AP_TRN, AP_WRAP, 0>"]* @_ZN19fourth_order_doubleL6sin_K1E, i64 0, i64 57), i8* getelementptr inbounds ([21 x i8], [21 x i8]* @.str.831.49549, i32 0, i32 0))
  call void @_ZN8ap_fixedILi51ELin1EL9ap_q_mode5EL9ap_o_mode3ELi0EEC2EPKc(%"struct.ap_ufixed<51, 24, AP_TRN, AP_WRAP, 0>"* getelementptr inbounds ([128 x %"struct.ap_ufixed<51, 24, AP_TRN, AP_WRAP, 0>"], [128 x %"struct.ap_ufixed<51, 24, AP_TRN, AP_WRAP, 0>"]* @_ZN19fourth_order_doubleL6sin_K1E, i64 0, i64 58), i8* getelementptr inbounds ([21 x i8], [21 x i8]* @.str.832.48801, i32 0, i32 0))
  call void @_ZN8ap_fixedILi51ELin1EL9ap_q_mode5EL9ap_o_mode3ELi0EEC2EPKc(%"struct.ap_ufixed<51, 24, AP_TRN, AP_WRAP, 0>"* getelementptr inbounds ([128 x %"struct.ap_ufixed<51, 24, AP_TRN, AP_WRAP, 0>"], [128 x %"struct.ap_ufixed<51, 24, AP_TRN, AP_WRAP, 0>"]* @_ZN19fourth_order_doubleL6sin_K1E, i64 0, i64 59), i8* getelementptr inbounds ([21 x i8], [21 x i8]* @.str.833.49550, i32 0, i32 0))
  call void @_ZN8ap_fixedILi51ELin1EL9ap_q_mode5EL9ap_o_mode3ELi0EEC2EPKc(%"struct.ap_ufixed<51, 24, AP_TRN, AP_WRAP, 0>"* getelementptr inbounds ([128 x %"struct.ap_ufixed<51, 24, AP_TRN, AP_WRAP, 0>"], [128 x %"struct.ap_ufixed<51, 24, AP_TRN, AP_WRAP, 0>"]* @_ZN19fourth_order_doubleL6sin_K1E, i64 0, i64 60), i8* getelementptr inbounds ([21 x i8], [21 x i8]* @.str.834.49551, i32 0, i32 0))
  call void @_ZN8ap_fixedILi51ELin1EL9ap_q_mode5EL9ap_o_mode3ELi0EEC2EPKc(%"struct.ap_ufixed<51, 24, AP_TRN, AP_WRAP, 0>"* getelementptr inbounds ([128 x %"struct.ap_ufixed<51, 24, AP_TRN, AP_WRAP, 0>"], [128 x %"struct.ap_ufixed<51, 24, AP_TRN, AP_WRAP, 0>"]* @_ZN19fourth_order_doubleL6sin_K1E, i64 0, i64 61), i8* getelementptr inbounds ([21 x i8], [21 x i8]* @.str.835.49552, i32 0, i32 0))
  call void @_ZN8ap_fixedILi51ELin1EL9ap_q_mode5EL9ap_o_mode3ELi0EEC2EPKc(%"struct.ap_ufixed<51, 24, AP_TRN, AP_WRAP, 0>"* getelementptr inbounds ([128 x %"struct.ap_ufixed<51, 24, AP_TRN, AP_WRAP, 0>"], [128 x %"struct.ap_ufixed<51, 24, AP_TRN, AP_WRAP, 0>"]* @_ZN19fourth_order_doubleL6sin_K1E, i64 0, i64 62), i8* getelementptr inbounds ([21 x i8], [21 x i8]* @.str.836.48805, i32 0, i32 0))
  call void @_ZN8ap_fixedILi51ELin1EL9ap_q_mode5EL9ap_o_mode3ELi0EEC2EPKc(%"struct.ap_ufixed<51, 24, AP_TRN, AP_WRAP, 0>"* getelementptr inbounds ([128 x %"struct.ap_ufixed<51, 24, AP_TRN, AP_WRAP, 0>"], [128 x %"struct.ap_ufixed<51, 24, AP_TRN, AP_WRAP, 0>"]* @_ZN19fourth_order_doubleL6sin_K1E, i64 0, i64 63), i8* getelementptr inbounds ([21 x i8], [21 x i8]* @.str.837.49553, i32 0, i32 0))
  call void @_ZN8ap_fixedILi51ELin1EL9ap_q_mode5EL9ap_o_mode3ELi0EEC2EPKc(%"struct.ap_ufixed<51, 24, AP_TRN, AP_WRAP, 0>"* getelementptr inbounds ([128 x %"struct.ap_ufixed<51, 24, AP_TRN, AP_WRAP, 0>"], [128 x %"struct.ap_ufixed<51, 24, AP_TRN, AP_WRAP, 0>"]* @_ZN19fourth_order_doubleL6sin_K1E, i64 0, i64 64), i8* getelementptr inbounds ([21 x i8], [21 x i8]* @.str.838.49554, i32 0, i32 0))
  call void @_ZN8ap_fixedILi51ELin1EL9ap_q_mode5EL9ap_o_mode3ELi0EEC2EPKc(%"struct.ap_ufixed<51, 24, AP_TRN, AP_WRAP, 0>"* getelementptr inbounds ([128 x %"struct.ap_ufixed<51, 24, AP_TRN, AP_WRAP, 0>"], [128 x %"struct.ap_ufixed<51, 24, AP_TRN, AP_WRAP, 0>"]* @_ZN19fourth_order_doubleL6sin_K1E, i64 0, i64 65), i8* getelementptr inbounds ([21 x i8], [21 x i8]* @.str.839.49555, i32 0, i32 0))
  call void @_ZN8ap_fixedILi51ELin1EL9ap_q_mode5EL9ap_o_mode3ELi0EEC2EPKc(%"struct.ap_ufixed<51, 24, AP_TRN, AP_WRAP, 0>"* getelementptr inbounds ([128 x %"struct.ap_ufixed<51, 24, AP_TRN, AP_WRAP, 0>"], [128 x %"struct.ap_ufixed<51, 24, AP_TRN, AP_WRAP, 0>"]* @_ZN19fourth_order_doubleL6sin_K1E, i64 0, i64 66), i8* getelementptr inbounds ([21 x i8], [21 x i8]* @.str.840.49556, i32 0, i32 0))
  call void @_ZN8ap_fixedILi51ELin1EL9ap_q_mode5EL9ap_o_mode3ELi0EEC2EPKc(%"struct.ap_ufixed<51, 24, AP_TRN, AP_WRAP, 0>"* getelementptr inbounds ([128 x %"struct.ap_ufixed<51, 24, AP_TRN, AP_WRAP, 0>"], [128 x %"struct.ap_ufixed<51, 24, AP_TRN, AP_WRAP, 0>"]* @_ZN19fourth_order_doubleL6sin_K1E, i64 0, i64 67), i8* getelementptr inbounds ([20 x i8], [20 x i8]* @.str.841.49557, i32 0, i32 0))
  call void @_ZN8ap_fixedILi51ELin1EL9ap_q_mode5EL9ap_o_mode3ELi0EEC2EPKc(%"struct.ap_ufixed<51, 24, AP_TRN, AP_WRAP, 0>"* getelementptr inbounds ([128 x %"struct.ap_ufixed<51, 24, AP_TRN, AP_WRAP, 0>"], [128 x %"struct.ap_ufixed<51, 24, AP_TRN, AP_WRAP, 0>"]* @_ZN19fourth_order_doubleL6sin_K1E, i64 0, i64 68), i8* getelementptr inbounds ([21 x i8], [21 x i8]* @.str.842.49558, i32 0, i32 0))
  call void @_ZN8ap_fixedILi51ELin1EL9ap_q_mode5EL9ap_o_mode3ELi0EEC2EPKc(%"struct.ap_ufixed<51, 24, AP_TRN, AP_WRAP, 0>"* getelementptr inbounds ([128 x %"struct.ap_ufixed<51, 24, AP_TRN, AP_WRAP, 0>"], [128 x %"struct.ap_ufixed<51, 24, AP_TRN, AP_WRAP, 0>"]* @_ZN19fourth_order_doubleL6sin_K1E, i64 0, i64 69), i8* getelementptr inbounds ([21 x i8], [21 x i8]* @.str.843.49559, i32 0, i32 0))
  call void @_ZN8ap_fixedILi51ELin1EL9ap_q_mode5EL9ap_o_mode3ELi0EEC2EPKc(%"struct.ap_ufixed<51, 24, AP_TRN, AP_WRAP, 0>"* getelementptr inbounds ([128 x %"struct.ap_ufixed<51, 24, AP_TRN, AP_WRAP, 0>"], [128 x %"struct.ap_ufixed<51, 24, AP_TRN, AP_WRAP, 0>"]* @_ZN19fourth_order_doubleL6sin_K1E, i64 0, i64 70), i8* getelementptr inbounds ([21 x i8], [21 x i8]* @.str.844.49560, i32 0, i32 0))
  call void @_ZN8ap_fixedILi51ELin1EL9ap_q_mode5EL9ap_o_mode3ELi0EEC2EPKc(%"struct.ap_ufixed<51, 24, AP_TRN, AP_WRAP, 0>"* getelementptr inbounds ([128 x %"struct.ap_ufixed<51, 24, AP_TRN, AP_WRAP, 0>"], [128 x %"struct.ap_ufixed<51, 24, AP_TRN, AP_WRAP, 0>"]* @_ZN19fourth_order_doubleL6sin_K1E, i64 0, i64 71), i8* getelementptr inbounds ([21 x i8], [21 x i8]* @.str.845.49561, i32 0, i32 0))
  call void @_ZN8ap_fixedILi51ELin1EL9ap_q_mode5EL9ap_o_mode3ELi0EEC2EPKc(%"struct.ap_ufixed<51, 24, AP_TRN, AP_WRAP, 0>"* getelementptr inbounds ([128 x %"struct.ap_ufixed<51, 24, AP_TRN, AP_WRAP, 0>"], [128 x %"struct.ap_ufixed<51, 24, AP_TRN, AP_WRAP, 0>"]* @_ZN19fourth_order_doubleL6sin_K1E, i64 0, i64 72), i8* getelementptr inbounds ([21 x i8], [21 x i8]* @.str.846.49562, i32 0, i32 0))
  call void @_ZN8ap_fixedILi51ELin1EL9ap_q_mode5EL9ap_o_mode3ELi0EEC2EPKc(%"struct.ap_ufixed<51, 24, AP_TRN, AP_WRAP, 0>"* getelementptr inbounds ([128 x %"struct.ap_ufixed<51, 24, AP_TRN, AP_WRAP, 0>"], [128 x %"struct.ap_ufixed<51, 24, AP_TRN, AP_WRAP, 0>"]* @_ZN19fourth_order_doubleL6sin_K1E, i64 0, i64 73), i8* getelementptr inbounds ([21 x i8], [21 x i8]* @.str.847.48816, i32 0, i32 0))
  call void @_ZN8ap_fixedILi51ELin1EL9ap_q_mode5EL9ap_o_mode3ELi0EEC2EPKc(%"struct.ap_ufixed<51, 24, AP_TRN, AP_WRAP, 0>"* getelementptr inbounds ([128 x %"struct.ap_ufixed<51, 24, AP_TRN, AP_WRAP, 0>"], [128 x %"struct.ap_ufixed<51, 24, AP_TRN, AP_WRAP, 0>"]* @_ZN19fourth_order_doubleL6sin_K1E, i64 0, i64 74), i8* getelementptr inbounds ([21 x i8], [21 x i8]* @.str.848.48817, i32 0, i32 0))
  call void @_ZN8ap_fixedILi51ELin1EL9ap_q_mode5EL9ap_o_mode3ELi0EEC2EPKc(%"struct.ap_ufixed<51, 24, AP_TRN, AP_WRAP, 0>"* getelementptr inbounds ([128 x %"struct.ap_ufixed<51, 24, AP_TRN, AP_WRAP, 0>"], [128 x %"struct.ap_ufixed<51, 24, AP_TRN, AP_WRAP, 0>"]* @_ZN19fourth_order_doubleL6sin_K1E, i64 0, i64 75), i8* getelementptr inbounds ([21 x i8], [21 x i8]* @.str.849.49563, i32 0, i32 0))
  call void @_ZN8ap_fixedILi51ELin1EL9ap_q_mode5EL9ap_o_mode3ELi0EEC2EPKc(%"struct.ap_ufixed<51, 24, AP_TRN, AP_WRAP, 0>"* getelementptr inbounds ([128 x %"struct.ap_ufixed<51, 24, AP_TRN, AP_WRAP, 0>"], [128 x %"struct.ap_ufixed<51, 24, AP_TRN, AP_WRAP, 0>"]* @_ZN19fourth_order_doubleL6sin_K1E, i64 0, i64 76), i8* getelementptr inbounds ([21 x i8], [21 x i8]* @.str.850.49564, i32 0, i32 0))
  call void @_ZN8ap_fixedILi51ELin1EL9ap_q_mode5EL9ap_o_mode3ELi0EEC2EPKc(%"struct.ap_ufixed<51, 24, AP_TRN, AP_WRAP, 0>"* getelementptr inbounds ([128 x %"struct.ap_ufixed<51, 24, AP_TRN, AP_WRAP, 0>"], [128 x %"struct.ap_ufixed<51, 24, AP_TRN, AP_WRAP, 0>"]* @_ZN19fourth_order_doubleL6sin_K1E, i64 0, i64 77), i8* getelementptr inbounds ([21 x i8], [21 x i8]* @.str.851.49565, i32 0, i32 0))
  call void @_ZN8ap_fixedILi51ELin1EL9ap_q_mode5EL9ap_o_mode3ELi0EEC2EPKc(%"struct.ap_ufixed<51, 24, AP_TRN, AP_WRAP, 0>"* getelementptr inbounds ([128 x %"struct.ap_ufixed<51, 24, AP_TRN, AP_WRAP, 0>"], [128 x %"struct.ap_ufixed<51, 24, AP_TRN, AP_WRAP, 0>"]* @_ZN19fourth_order_doubleL6sin_K1E, i64 0, i64 78), i8* getelementptr inbounds ([21 x i8], [21 x i8]* @.str.852.49566, i32 0, i32 0))
  call void @_ZN8ap_fixedILi51ELin1EL9ap_q_mode5EL9ap_o_mode3ELi0EEC2EPKc(%"struct.ap_ufixed<51, 24, AP_TRN, AP_WRAP, 0>"* getelementptr inbounds ([128 x %"struct.ap_ufixed<51, 24, AP_TRN, AP_WRAP, 0>"], [128 x %"struct.ap_ufixed<51, 24, AP_TRN, AP_WRAP, 0>"]* @_ZN19fourth_order_doubleL6sin_K1E, i64 0, i64 79), i8* getelementptr inbounds ([21 x i8], [21 x i8]* @.str.853.48822, i32 0, i32 0))
  call void @_ZN8ap_fixedILi51ELin1EL9ap_q_mode5EL9ap_o_mode3ELi0EEC2EPKc(%"struct.ap_ufixed<51, 24, AP_TRN, AP_WRAP, 0>"* getelementptr inbounds ([128 x %"struct.ap_ufixed<51, 24, AP_TRN, AP_WRAP, 0>"], [128 x %"struct.ap_ufixed<51, 24, AP_TRN, AP_WRAP, 0>"]* @_ZN19fourth_order_doubleL6sin_K1E, i64 0, i64 80), i8* getelementptr inbounds ([21 x i8], [21 x i8]* @.str.854.49567, i32 0, i32 0))
  call void @_ZN8ap_fixedILi51ELin1EL9ap_q_mode5EL9ap_o_mode3ELi0EEC2EPKc(%"struct.ap_ufixed<51, 24, AP_TRN, AP_WRAP, 0>"* getelementptr inbounds ([128 x %"struct.ap_ufixed<51, 24, AP_TRN, AP_WRAP, 0>"], [128 x %"struct.ap_ufixed<51, 24, AP_TRN, AP_WRAP, 0>"]* @_ZN19fourth_order_doubleL6sin_K1E, i64 0, i64 81), i8* getelementptr inbounds ([21 x i8], [21 x i8]* @.str.855.49568, i32 0, i32 0))
  call void @_ZN8ap_fixedILi51ELin1EL9ap_q_mode5EL9ap_o_mode3ELi0EEC2EPKc(%"struct.ap_ufixed<51, 24, AP_TRN, AP_WRAP, 0>"* getelementptr inbounds ([128 x %"struct.ap_ufixed<51, 24, AP_TRN, AP_WRAP, 0>"], [128 x %"struct.ap_ufixed<51, 24, AP_TRN, AP_WRAP, 0>"]* @_ZN19fourth_order_doubleL6sin_K1E, i64 0, i64 82), i8* getelementptr inbounds ([21 x i8], [21 x i8]* @.str.856.49569, i32 0, i32 0))
  call void @_ZN8ap_fixedILi51ELin1EL9ap_q_mode5EL9ap_o_mode3ELi0EEC2EPKc(%"struct.ap_ufixed<51, 24, AP_TRN, AP_WRAP, 0>"* getelementptr inbounds ([128 x %"struct.ap_ufixed<51, 24, AP_TRN, AP_WRAP, 0>"], [128 x %"struct.ap_ufixed<51, 24, AP_TRN, AP_WRAP, 0>"]* @_ZN19fourth_order_doubleL6sin_K1E, i64 0, i64 83), i8* getelementptr inbounds ([21 x i8], [21 x i8]* @.str.857.49570, i32 0, i32 0))
  call void @_ZN8ap_fixedILi51ELin1EL9ap_q_mode5EL9ap_o_mode3ELi0EEC2EPKc(%"struct.ap_ufixed<51, 24, AP_TRN, AP_WRAP, 0>"* getelementptr inbounds ([128 x %"struct.ap_ufixed<51, 24, AP_TRN, AP_WRAP, 0>"], [128 x %"struct.ap_ufixed<51, 24, AP_TRN, AP_WRAP, 0>"]* @_ZN19fourth_order_doubleL6sin_K1E, i64 0, i64 84), i8* getelementptr inbounds ([21 x i8], [21 x i8]* @.str.858.49571, i32 0, i32 0))
  call void @_ZN8ap_fixedILi51ELin1EL9ap_q_mode5EL9ap_o_mode3ELi0EEC2EPKc(%"struct.ap_ufixed<51, 24, AP_TRN, AP_WRAP, 0>"* getelementptr inbounds ([128 x %"struct.ap_ufixed<51, 24, AP_TRN, AP_WRAP, 0>"], [128 x %"struct.ap_ufixed<51, 24, AP_TRN, AP_WRAP, 0>"]* @_ZN19fourth_order_doubleL6sin_K1E, i64 0, i64 85), i8* getelementptr inbounds ([21 x i8], [21 x i8]* @.str.859.48828, i32 0, i32 0))
  call void @_ZN8ap_fixedILi51ELin1EL9ap_q_mode5EL9ap_o_mode3ELi0EEC2EPKc(%"struct.ap_ufixed<51, 24, AP_TRN, AP_WRAP, 0>"* getelementptr inbounds ([128 x %"struct.ap_ufixed<51, 24, AP_TRN, AP_WRAP, 0>"], [128 x %"struct.ap_ufixed<51, 24, AP_TRN, AP_WRAP, 0>"]* @_ZN19fourth_order_doubleL6sin_K1E, i64 0, i64 86), i8* getelementptr inbounds ([21 x i8], [21 x i8]* @.str.860.49572, i32 0, i32 0))
  call void @_ZN8ap_fixedILi51ELin1EL9ap_q_mode5EL9ap_o_mode3ELi0EEC2EPKc(%"struct.ap_ufixed<51, 24, AP_TRN, AP_WRAP, 0>"* getelementptr inbounds ([128 x %"struct.ap_ufixed<51, 24, AP_TRN, AP_WRAP, 0>"], [128 x %"struct.ap_ufixed<51, 24, AP_TRN, AP_WRAP, 0>"]* @_ZN19fourth_order_doubleL6sin_K1E, i64 0, i64 87), i8* getelementptr inbounds ([21 x i8], [21 x i8]* @.str.861.49573, i32 0, i32 0))
  call void @_ZN8ap_fixedILi51ELin1EL9ap_q_mode5EL9ap_o_mode3ELi0EEC2EPKc(%"struct.ap_ufixed<51, 24, AP_TRN, AP_WRAP, 0>"* getelementptr inbounds ([128 x %"struct.ap_ufixed<51, 24, AP_TRN, AP_WRAP, 0>"], [128 x %"struct.ap_ufixed<51, 24, AP_TRN, AP_WRAP, 0>"]* @_ZN19fourth_order_doubleL6sin_K1E, i64 0, i64 88), i8* getelementptr inbounds ([21 x i8], [21 x i8]* @.str.862.49574, i32 0, i32 0))
  call void @_ZN8ap_fixedILi51ELin1EL9ap_q_mode5EL9ap_o_mode3ELi0EEC2EPKc(%"struct.ap_ufixed<51, 24, AP_TRN, AP_WRAP, 0>"* getelementptr inbounds ([128 x %"struct.ap_ufixed<51, 24, AP_TRN, AP_WRAP, 0>"], [128 x %"struct.ap_ufixed<51, 24, AP_TRN, AP_WRAP, 0>"]* @_ZN19fourth_order_doubleL6sin_K1E, i64 0, i64 89), i8* getelementptr inbounds ([21 x i8], [21 x i8]* @.str.863.48832, i32 0, i32 0))
  call void @_ZN8ap_fixedILi51ELin1EL9ap_q_mode5EL9ap_o_mode3ELi0EEC2EPKc(%"struct.ap_ufixed<51, 24, AP_TRN, AP_WRAP, 0>"* getelementptr inbounds ([128 x %"struct.ap_ufixed<51, 24, AP_TRN, AP_WRAP, 0>"], [128 x %"struct.ap_ufixed<51, 24, AP_TRN, AP_WRAP, 0>"]* @_ZN19fourth_order_doubleL6sin_K1E, i64 0, i64 90), i8* getelementptr inbounds ([21 x i8], [21 x i8]* @.str.864.49575, i32 0, i32 0))
  call void @_ZN8ap_fixedILi51ELin1EL9ap_q_mode5EL9ap_o_mode3ELi0EEC2EPKc(%"struct.ap_ufixed<51, 24, AP_TRN, AP_WRAP, 0>"* getelementptr inbounds ([128 x %"struct.ap_ufixed<51, 24, AP_TRN, AP_WRAP, 0>"], [128 x %"struct.ap_ufixed<51, 24, AP_TRN, AP_WRAP, 0>"]* @_ZN19fourth_order_doubleL6sin_K1E, i64 0, i64 91), i8* getelementptr inbounds ([21 x i8], [21 x i8]* @.str.865.49576, i32 0, i32 0))
  call void @_ZN8ap_fixedILi51ELin1EL9ap_q_mode5EL9ap_o_mode3ELi0EEC2EPKc(%"struct.ap_ufixed<51, 24, AP_TRN, AP_WRAP, 0>"* getelementptr inbounds ([128 x %"struct.ap_ufixed<51, 24, AP_TRN, AP_WRAP, 0>"], [128 x %"struct.ap_ufixed<51, 24, AP_TRN, AP_WRAP, 0>"]* @_ZN19fourth_order_doubleL6sin_K1E, i64 0, i64 92), i8* getelementptr inbounds ([21 x i8], [21 x i8]* @.str.866.49577, i32 0, i32 0))
  call void @_ZN8ap_fixedILi51ELin1EL9ap_q_mode5EL9ap_o_mode3ELi0EEC2EPKc(%"struct.ap_ufixed<51, 24, AP_TRN, AP_WRAP, 0>"* getelementptr inbounds ([128 x %"struct.ap_ufixed<51, 24, AP_TRN, AP_WRAP, 0>"], [128 x %"struct.ap_ufixed<51, 24, AP_TRN, AP_WRAP, 0>"]* @_ZN19fourth_order_doubleL6sin_K1E, i64 0, i64 93), i8* getelementptr inbounds ([21 x i8], [21 x i8]* @.str.867.49578, i32 0, i32 0))
  call void @_ZN8ap_fixedILi51ELin1EL9ap_q_mode5EL9ap_o_mode3ELi0EEC2EPKc(%"struct.ap_ufixed<51, 24, AP_TRN, AP_WRAP, 0>"* getelementptr inbounds ([128 x %"struct.ap_ufixed<51, 24, AP_TRN, AP_WRAP, 0>"], [128 x %"struct.ap_ufixed<51, 24, AP_TRN, AP_WRAP, 0>"]* @_ZN19fourth_order_doubleL6sin_K1E, i64 0, i64 94), i8* getelementptr inbounds ([21 x i8], [21 x i8]* @.str.868.49579, i32 0, i32 0))
  call void @_ZN8ap_fixedILi51ELin1EL9ap_q_mode5EL9ap_o_mode3ELi0EEC2EPKc(%"struct.ap_ufixed<51, 24, AP_TRN, AP_WRAP, 0>"* getelementptr inbounds ([128 x %"struct.ap_ufixed<51, 24, AP_TRN, AP_WRAP, 0>"], [128 x %"struct.ap_ufixed<51, 24, AP_TRN, AP_WRAP, 0>"]* @_ZN19fourth_order_doubleL6sin_K1E, i64 0, i64 95), i8* getelementptr inbounds ([21 x i8], [21 x i8]* @.str.869.49580, i32 0, i32 0))
  call void @_ZN8ap_fixedILi51ELin1EL9ap_q_mode5EL9ap_o_mode3ELi0EEC2EPKc(%"struct.ap_ufixed<51, 24, AP_TRN, AP_WRAP, 0>"* getelementptr inbounds ([128 x %"struct.ap_ufixed<51, 24, AP_TRN, AP_WRAP, 0>"], [128 x %"struct.ap_ufixed<51, 24, AP_TRN, AP_WRAP, 0>"]* @_ZN19fourth_order_doubleL6sin_K1E, i64 0, i64 96), i8* getelementptr inbounds ([21 x i8], [21 x i8]* @.str.870.49581, i32 0, i32 0))
  call void @_ZN8ap_fixedILi51ELin1EL9ap_q_mode5EL9ap_o_mode3ELi0EEC2EPKc(%"struct.ap_ufixed<51, 24, AP_TRN, AP_WRAP, 0>"* getelementptr inbounds ([128 x %"struct.ap_ufixed<51, 24, AP_TRN, AP_WRAP, 0>"], [128 x %"struct.ap_ufixed<51, 24, AP_TRN, AP_WRAP, 0>"]* @_ZN19fourth_order_doubleL6sin_K1E, i64 0, i64 97), i8* getelementptr inbounds ([21 x i8], [21 x i8]* @.str.871.49582, i32 0, i32 0))
  call void @_ZN8ap_fixedILi51ELin1EL9ap_q_mode5EL9ap_o_mode3ELi0EEC2EPKc(%"struct.ap_ufixed<51, 24, AP_TRN, AP_WRAP, 0>"* getelementptr inbounds ([128 x %"struct.ap_ufixed<51, 24, AP_TRN, AP_WRAP, 0>"], [128 x %"struct.ap_ufixed<51, 24, AP_TRN, AP_WRAP, 0>"]* @_ZN19fourth_order_doubleL6sin_K1E, i64 0, i64 98), i8* getelementptr inbounds ([21 x i8], [21 x i8]* @.str.872.49583, i32 0, i32 0))
  call void @_ZN8ap_fixedILi51ELin1EL9ap_q_mode5EL9ap_o_mode3ELi0EEC2EPKc(%"struct.ap_ufixed<51, 24, AP_TRN, AP_WRAP, 0>"* getelementptr inbounds ([128 x %"struct.ap_ufixed<51, 24, AP_TRN, AP_WRAP, 0>"], [128 x %"struct.ap_ufixed<51, 24, AP_TRN, AP_WRAP, 0>"]* @_ZN19fourth_order_doubleL6sin_K1E, i64 0, i64 99), i8* getelementptr inbounds ([21 x i8], [21 x i8]* @.str.873.49584, i32 0, i32 0))
  call void @_ZN8ap_fixedILi51ELin1EL9ap_q_mode5EL9ap_o_mode3ELi0EEC2EPKc(%"struct.ap_ufixed<51, 24, AP_TRN, AP_WRAP, 0>"* getelementptr inbounds ([128 x %"struct.ap_ufixed<51, 24, AP_TRN, AP_WRAP, 0>"], [128 x %"struct.ap_ufixed<51, 24, AP_TRN, AP_WRAP, 0>"]* @_ZN19fourth_order_doubleL6sin_K1E, i64 0, i64 100), i8* getelementptr inbounds ([21 x i8], [21 x i8]* @.str.874.49585, i32 0, i32 0))
  call void @_ZN8ap_fixedILi51ELin1EL9ap_q_mode5EL9ap_o_mode3ELi0EEC2EPKc(%"struct.ap_ufixed<51, 24, AP_TRN, AP_WRAP, 0>"* getelementptr inbounds ([128 x %"struct.ap_ufixed<51, 24, AP_TRN, AP_WRAP, 0>"], [128 x %"struct.ap_ufixed<51, 24, AP_TRN, AP_WRAP, 0>"]* @_ZN19fourth_order_doubleL6sin_K1E, i64 0, i64 101), i8* getelementptr inbounds ([21 x i8], [21 x i8]* @.str.875.49586, i32 0, i32 0))
  call void @_ZN8ap_fixedILi51ELin1EL9ap_q_mode5EL9ap_o_mode3ELi0EEC2EPKc(%"struct.ap_ufixed<51, 24, AP_TRN, AP_WRAP, 0>"* getelementptr inbounds ([128 x %"struct.ap_ufixed<51, 24, AP_TRN, AP_WRAP, 0>"], [128 x %"struct.ap_ufixed<51, 24, AP_TRN, AP_WRAP, 0>"]* @_ZN19fourth_order_doubleL6sin_K1E, i64 0, i64 102), i8* getelementptr inbounds ([21 x i8], [21 x i8]* @.str.876.49587, i32 0, i32 0))
  call void @_ZN8ap_fixedILi51ELin1EL9ap_q_mode5EL9ap_o_mode3ELi0EEC2EPKc(%"struct.ap_ufixed<51, 24, AP_TRN, AP_WRAP, 0>"* getelementptr inbounds ([128 x %"struct.ap_ufixed<51, 24, AP_TRN, AP_WRAP, 0>"], [128 x %"struct.ap_ufixed<51, 24, AP_TRN, AP_WRAP, 0>"]* @_ZN19fourth_order_doubleL6sin_K1E, i64 0, i64 103), i8* getelementptr inbounds ([21 x i8], [21 x i8]* @.str.877.49588, i32 0, i32 0))
  call void @_ZN8ap_fixedILi51ELin1EL9ap_q_mode5EL9ap_o_mode3ELi0EEC2EPKc(%"struct.ap_ufixed<51, 24, AP_TRN, AP_WRAP, 0>"* getelementptr inbounds ([128 x %"struct.ap_ufixed<51, 24, AP_TRN, AP_WRAP, 0>"], [128 x %"struct.ap_ufixed<51, 24, AP_TRN, AP_WRAP, 0>"]* @_ZN19fourth_order_doubleL6sin_K1E, i64 0, i64 104), i8* getelementptr inbounds ([21 x i8], [21 x i8]* @.str.878.49589, i32 0, i32 0))
  call void @_ZN8ap_fixedILi51ELin1EL9ap_q_mode5EL9ap_o_mode3ELi0EEC2EPKc(%"struct.ap_ufixed<51, 24, AP_TRN, AP_WRAP, 0>"* getelementptr inbounds ([128 x %"struct.ap_ufixed<51, 24, AP_TRN, AP_WRAP, 0>"], [128 x %"struct.ap_ufixed<51, 24, AP_TRN, AP_WRAP, 0>"]* @_ZN19fourth_order_doubleL6sin_K1E, i64 0, i64 105), i8* getelementptr inbounds ([21 x i8], [21 x i8]* @.str.879.49590, i32 0, i32 0))
  call void @_ZN8ap_fixedILi51ELin1EL9ap_q_mode5EL9ap_o_mode3ELi0EEC2EPKc(%"struct.ap_ufixed<51, 24, AP_TRN, AP_WRAP, 0>"* getelementptr inbounds ([128 x %"struct.ap_ufixed<51, 24, AP_TRN, AP_WRAP, 0>"], [128 x %"struct.ap_ufixed<51, 24, AP_TRN, AP_WRAP, 0>"]* @_ZN19fourth_order_doubleL6sin_K1E, i64 0, i64 106), i8* getelementptr inbounds ([21 x i8], [21 x i8]* @.str.880.49591, i32 0, i32 0))
  call void @_ZN8ap_fixedILi51ELin1EL9ap_q_mode5EL9ap_o_mode3ELi0EEC2EPKc(%"struct.ap_ufixed<51, 24, AP_TRN, AP_WRAP, 0>"* getelementptr inbounds ([128 x %"struct.ap_ufixed<51, 24, AP_TRN, AP_WRAP, 0>"], [128 x %"struct.ap_ufixed<51, 24, AP_TRN, AP_WRAP, 0>"]* @_ZN19fourth_order_doubleL6sin_K1E, i64 0, i64 107), i8* getelementptr inbounds ([21 x i8], [21 x i8]* @.str.881.49592, i32 0, i32 0))
  call void @_ZN8ap_fixedILi51ELin1EL9ap_q_mode5EL9ap_o_mode3ELi0EEC2EPKc(%"struct.ap_ufixed<51, 24, AP_TRN, AP_WRAP, 0>"* getelementptr inbounds ([128 x %"struct.ap_ufixed<51, 24, AP_TRN, AP_WRAP, 0>"], [128 x %"struct.ap_ufixed<51, 24, AP_TRN, AP_WRAP, 0>"]* @_ZN19fourth_order_doubleL6sin_K1E, i64 0, i64 108), i8* getelementptr inbounds ([21 x i8], [21 x i8]* @.str.882.49593, i32 0, i32 0))
  call void @_ZN8ap_fixedILi51ELin1EL9ap_q_mode5EL9ap_o_mode3ELi0EEC2EPKc(%"struct.ap_ufixed<51, 24, AP_TRN, AP_WRAP, 0>"* getelementptr inbounds ([128 x %"struct.ap_ufixed<51, 24, AP_TRN, AP_WRAP, 0>"], [128 x %"struct.ap_ufixed<51, 24, AP_TRN, AP_WRAP, 0>"]* @_ZN19fourth_order_doubleL6sin_K1E, i64 0, i64 109), i8* getelementptr inbounds ([21 x i8], [21 x i8]* @.str.883.49594, i32 0, i32 0))
  call void @_ZN8ap_fixedILi51ELin1EL9ap_q_mode5EL9ap_o_mode3ELi0EEC2EPKc(%"struct.ap_ufixed<51, 24, AP_TRN, AP_WRAP, 0>"* getelementptr inbounds ([128 x %"struct.ap_ufixed<51, 24, AP_TRN, AP_WRAP, 0>"], [128 x %"struct.ap_ufixed<51, 24, AP_TRN, AP_WRAP, 0>"]* @_ZN19fourth_order_doubleL6sin_K1E, i64 0, i64 110), i8* getelementptr inbounds ([21 x i8], [21 x i8]* @.str.884.49595, i32 0, i32 0))
  call void @_ZN8ap_fixedILi51ELin1EL9ap_q_mode5EL9ap_o_mode3ELi0EEC2EPKc(%"struct.ap_ufixed<51, 24, AP_TRN, AP_WRAP, 0>"* getelementptr inbounds ([128 x %"struct.ap_ufixed<51, 24, AP_TRN, AP_WRAP, 0>"], [128 x %"struct.ap_ufixed<51, 24, AP_TRN, AP_WRAP, 0>"]* @_ZN19fourth_order_doubleL6sin_K1E, i64 0, i64 111), i8* getelementptr inbounds ([21 x i8], [21 x i8]* @.str.885.49596, i32 0, i32 0))
  call void @_ZN8ap_fixedILi51ELin1EL9ap_q_mode5EL9ap_o_mode3ELi0EEC2EPKc(%"struct.ap_ufixed<51, 24, AP_TRN, AP_WRAP, 0>"* getelementptr inbounds ([128 x %"struct.ap_ufixed<51, 24, AP_TRN, AP_WRAP, 0>"], [128 x %"struct.ap_ufixed<51, 24, AP_TRN, AP_WRAP, 0>"]* @_ZN19fourth_order_doubleL6sin_K1E, i64 0, i64 112), i8* getelementptr inbounds ([21 x i8], [21 x i8]* @.str.886.49597, i32 0, i32 0))
  call void @_ZN8ap_fixedILi51ELin1EL9ap_q_mode5EL9ap_o_mode3ELi0EEC2EPKc(%"struct.ap_ufixed<51, 24, AP_TRN, AP_WRAP, 0>"* getelementptr inbounds ([128 x %"struct.ap_ufixed<51, 24, AP_TRN, AP_WRAP, 0>"], [128 x %"struct.ap_ufixed<51, 24, AP_TRN, AP_WRAP, 0>"]* @_ZN19fourth_order_doubleL6sin_K1E, i64 0, i64 113), i8* getelementptr inbounds ([21 x i8], [21 x i8]* @.str.887.49598, i32 0, i32 0))
  call void @_ZN8ap_fixedILi51ELin1EL9ap_q_mode5EL9ap_o_mode3ELi0EEC2EPKc(%"struct.ap_ufixed<51, 24, AP_TRN, AP_WRAP, 0>"* getelementptr inbounds ([128 x %"struct.ap_ufixed<51, 24, AP_TRN, AP_WRAP, 0>"], [128 x %"struct.ap_ufixed<51, 24, AP_TRN, AP_WRAP, 0>"]* @_ZN19fourth_order_doubleL6sin_K1E, i64 0, i64 114), i8* getelementptr inbounds ([21 x i8], [21 x i8]* @.str.888.49599, i32 0, i32 0))
  call void @_ZN8ap_fixedILi51ELin1EL9ap_q_mode5EL9ap_o_mode3ELi0EEC2EPKc(%"struct.ap_ufixed<51, 24, AP_TRN, AP_WRAP, 0>"* getelementptr inbounds ([128 x %"struct.ap_ufixed<51, 24, AP_TRN, AP_WRAP, 0>"], [128 x %"struct.ap_ufixed<51, 24, AP_TRN, AP_WRAP, 0>"]* @_ZN19fourth_order_doubleL6sin_K1E, i64 0, i64 115), i8* getelementptr inbounds ([21 x i8], [21 x i8]* @.str.889.49600, i32 0, i32 0))
  call void @_ZN8ap_fixedILi51ELin1EL9ap_q_mode5EL9ap_o_mode3ELi0EEC2EPKc(%"struct.ap_ufixed<51, 24, AP_TRN, AP_WRAP, 0>"* getelementptr inbounds ([128 x %"struct.ap_ufixed<51, 24, AP_TRN, AP_WRAP, 0>"], [128 x %"struct.ap_ufixed<51, 24, AP_TRN, AP_WRAP, 0>"]* @_ZN19fourth_order_doubleL6sin_K1E, i64 0, i64 116), i8* getelementptr inbounds ([21 x i8], [21 x i8]* @.str.890.49601, i32 0, i32 0))
  call void @_ZN8ap_fixedILi51ELin1EL9ap_q_mode5EL9ap_o_mode3ELi0EEC2EPKc(%"struct.ap_ufixed<51, 24, AP_TRN, AP_WRAP, 0>"* getelementptr inbounds ([128 x %"struct.ap_ufixed<51, 24, AP_TRN, AP_WRAP, 0>"], [128 x %"struct.ap_ufixed<51, 24, AP_TRN, AP_WRAP, 0>"]* @_ZN19fourth_order_doubleL6sin_K1E, i64 0, i64 117), i8* getelementptr inbounds ([21 x i8], [21 x i8]* @.str.891.49602, i32 0, i32 0))
  call void @_ZN8ap_fixedILi51ELin1EL9ap_q_mode5EL9ap_o_mode3ELi0EEC2EPKc(%"struct.ap_ufixed<51, 24, AP_TRN, AP_WRAP, 0>"* getelementptr inbounds ([128 x %"struct.ap_ufixed<51, 24, AP_TRN, AP_WRAP, 0>"], [128 x %"struct.ap_ufixed<51, 24, AP_TRN, AP_WRAP, 0>"]* @_ZN19fourth_order_doubleL6sin_K1E, i64 0, i64 118), i8* getelementptr inbounds ([21 x i8], [21 x i8]* @.str.892.49603, i32 0, i32 0))
  call void @_ZN8ap_fixedILi51ELin1EL9ap_q_mode5EL9ap_o_mode3ELi0EEC2EPKc(%"struct.ap_ufixed<51, 24, AP_TRN, AP_WRAP, 0>"* getelementptr inbounds ([128 x %"struct.ap_ufixed<51, 24, AP_TRN, AP_WRAP, 0>"], [128 x %"struct.ap_ufixed<51, 24, AP_TRN, AP_WRAP, 0>"]* @_ZN19fourth_order_doubleL6sin_K1E, i64 0, i64 119), i8* getelementptr inbounds ([21 x i8], [21 x i8]* @.str.893.49604, i32 0, i32 0))
  call void @_ZN8ap_fixedILi51ELin1EL9ap_q_mode5EL9ap_o_mode3ELi0EEC2EPKc(%"struct.ap_ufixed<51, 24, AP_TRN, AP_WRAP, 0>"* getelementptr inbounds ([128 x %"struct.ap_ufixed<51, 24, AP_TRN, AP_WRAP, 0>"], [128 x %"struct.ap_ufixed<51, 24, AP_TRN, AP_WRAP, 0>"]* @_ZN19fourth_order_doubleL6sin_K1E, i64 0, i64 120), i8* getelementptr inbounds ([21 x i8], [21 x i8]* @.str.894.49605, i32 0, i32 0))
  call void @_ZN8ap_fixedILi51ELin1EL9ap_q_mode5EL9ap_o_mode3ELi0EEC2EPKc(%"struct.ap_ufixed<51, 24, AP_TRN, AP_WRAP, 0>"* getelementptr inbounds ([128 x %"struct.ap_ufixed<51, 24, AP_TRN, AP_WRAP, 0>"], [128 x %"struct.ap_ufixed<51, 24, AP_TRN, AP_WRAP, 0>"]* @_ZN19fourth_order_doubleL6sin_K1E, i64 0, i64 121), i8* getelementptr inbounds ([21 x i8], [21 x i8]* @.str.895.49606, i32 0, i32 0))
  call void @_ZN8ap_fixedILi51ELin1EL9ap_q_mode5EL9ap_o_mode3ELi0EEC2EPKc(%"struct.ap_ufixed<51, 24, AP_TRN, AP_WRAP, 0>"* getelementptr inbounds ([128 x %"struct.ap_ufixed<51, 24, AP_TRN, AP_WRAP, 0>"], [128 x %"struct.ap_ufixed<51, 24, AP_TRN, AP_WRAP, 0>"]* @_ZN19fourth_order_doubleL6sin_K1E, i64 0, i64 122), i8* getelementptr inbounds ([21 x i8], [21 x i8]* @.str.896.49607, i32 0, i32 0))
  call void @_ZN8ap_fixedILi51ELin1EL9ap_q_mode5EL9ap_o_mode3ELi0EEC2EPKc(%"struct.ap_ufixed<51, 24, AP_TRN, AP_WRAP, 0>"* getelementptr inbounds ([128 x %"struct.ap_ufixed<51, 24, AP_TRN, AP_WRAP, 0>"], [128 x %"struct.ap_ufixed<51, 24, AP_TRN, AP_WRAP, 0>"]* @_ZN19fourth_order_doubleL6sin_K1E, i64 0, i64 123), i8* getelementptr inbounds ([21 x i8], [21 x i8]* @.str.897.49608, i32 0, i32 0))
  call void @_ZN8ap_fixedILi51ELin1EL9ap_q_mode5EL9ap_o_mode3ELi0EEC2EPKc(%"struct.ap_ufixed<51, 24, AP_TRN, AP_WRAP, 0>"* getelementptr inbounds ([128 x %"struct.ap_ufixed<51, 24, AP_TRN, AP_WRAP, 0>"], [128 x %"struct.ap_ufixed<51, 24, AP_TRN, AP_WRAP, 0>"]* @_ZN19fourth_order_doubleL6sin_K1E, i64 0, i64 124), i8* getelementptr inbounds ([21 x i8], [21 x i8]* @.str.898.49609, i32 0, i32 0))
  call void @_ZN8ap_fixedILi51ELin1EL9ap_q_mode5EL9ap_o_mode3ELi0EEC2EPKc(%"struct.ap_ufixed<51, 24, AP_TRN, AP_WRAP, 0>"* getelementptr inbounds ([128 x %"struct.ap_ufixed<51, 24, AP_TRN, AP_WRAP, 0>"], [128 x %"struct.ap_ufixed<51, 24, AP_TRN, AP_WRAP, 0>"]* @_ZN19fourth_order_doubleL6sin_K1E, i64 0, i64 125), i8* getelementptr inbounds ([21 x i8], [21 x i8]* @.str.899.49610, i32 0, i32 0))
  call void @_ZN8ap_fixedILi51ELin1EL9ap_q_mode5EL9ap_o_mode3ELi0EEC2EPKc(%"struct.ap_ufixed<51, 24, AP_TRN, AP_WRAP, 0>"* getelementptr inbounds ([128 x %"struct.ap_ufixed<51, 24, AP_TRN, AP_WRAP, 0>"], [128 x %"struct.ap_ufixed<51, 24, AP_TRN, AP_WRAP, 0>"]* @_ZN19fourth_order_doubleL6sin_K1E, i64 0, i64 126), i8* getelementptr inbounds ([21 x i8], [21 x i8]* @.str.900.49611, i32 0, i32 0))
  call void @_ZN8ap_fixedILi51ELin1EL9ap_q_mode5EL9ap_o_mode3ELi0EEC2EPKc(%"struct.ap_ufixed<51, 24, AP_TRN, AP_WRAP, 0>"* getelementptr inbounds ([128 x %"struct.ap_ufixed<51, 24, AP_TRN, AP_WRAP, 0>"], [128 x %"struct.ap_ufixed<51, 24, AP_TRN, AP_WRAP, 0>"]* @_ZN19fourth_order_doubleL6sin_K1E, i64 0, i64 127), i8* getelementptr inbounds ([21 x i8], [21 x i8]* @.str.901.49612, i32 0, i32 0))
  ret void
}

; Function Attrs: nounwind
define internal void @__cxx_global_var_init.902() #0 section ".text.startup" {
entry:
  call void @_ZN8ap_fixedILi43ELin2EL9ap_q_mode5EL9ap_o_mode3ELi0EEC2EPKc(%"struct.ap_fixed<43, 4, AP_TRN, AP_WRAP, 0>"* getelementptr inbounds ([128 x %"struct.ap_fixed<43, 4, AP_TRN, AP_WRAP, 0>"], [128 x %"struct.ap_fixed<43, 4, AP_TRN, AP_WRAP, 0>"]* @_ZN19fourth_order_doubleL6sin_K2E, i64 0, i64 0), i8* getelementptr inbounds ([20 x i8], [20 x i8]* @.str.903.49379, i32 0, i32 0))
  call void @_ZN8ap_fixedILi43ELin2EL9ap_q_mode5EL9ap_o_mode3ELi0EEC2EPKc(%"struct.ap_fixed<43, 4, AP_TRN, AP_WRAP, 0>"* getelementptr inbounds ([128 x %"struct.ap_fixed<43, 4, AP_TRN, AP_WRAP, 0>"], [128 x %"struct.ap_fixed<43, 4, AP_TRN, AP_WRAP, 0>"]* @_ZN19fourth_order_doubleL6sin_K2E, i64 0, i64 1), i8* getelementptr inbounds ([20 x i8], [20 x i8]* @.str.904.49380, i32 0, i32 0))
  call void @_ZN8ap_fixedILi43ELin2EL9ap_q_mode5EL9ap_o_mode3ELi0EEC2EPKc(%"struct.ap_fixed<43, 4, AP_TRN, AP_WRAP, 0>"* getelementptr inbounds ([128 x %"struct.ap_fixed<43, 4, AP_TRN, AP_WRAP, 0>"], [128 x %"struct.ap_fixed<43, 4, AP_TRN, AP_WRAP, 0>"]* @_ZN19fourth_order_doubleL6sin_K2E, i64 0, i64 2), i8* getelementptr inbounds ([19 x i8], [19 x i8]* @.str.905.49381, i32 0, i32 0))
  call void @_ZN8ap_fixedILi43ELin2EL9ap_q_mode5EL9ap_o_mode3ELi0EEC2EPKc(%"struct.ap_fixed<43, 4, AP_TRN, AP_WRAP, 0>"* getelementptr inbounds ([128 x %"struct.ap_fixed<43, 4, AP_TRN, AP_WRAP, 0>"], [128 x %"struct.ap_fixed<43, 4, AP_TRN, AP_WRAP, 0>"]* @_ZN19fourth_order_doubleL6sin_K2E, i64 0, i64 3), i8* getelementptr inbounds ([20 x i8], [20 x i8]* @.str.906.49382, i32 0, i32 0))
  call void @_ZN8ap_fixedILi43ELin2EL9ap_q_mode5EL9ap_o_mode3ELi0EEC2EPKc(%"struct.ap_fixed<43, 4, AP_TRN, AP_WRAP, 0>"* getelementptr inbounds ([128 x %"struct.ap_fixed<43, 4, AP_TRN, AP_WRAP, 0>"], [128 x %"struct.ap_fixed<43, 4, AP_TRN, AP_WRAP, 0>"]* @_ZN19fourth_order_doubleL6sin_K2E, i64 0, i64 4), i8* getelementptr inbounds ([20 x i8], [20 x i8]* @.str.907.49383, i32 0, i32 0))
  call void @_ZN8ap_fixedILi43ELin2EL9ap_q_mode5EL9ap_o_mode3ELi0EEC2EPKc(%"struct.ap_fixed<43, 4, AP_TRN, AP_WRAP, 0>"* getelementptr inbounds ([128 x %"struct.ap_fixed<43, 4, AP_TRN, AP_WRAP, 0>"], [128 x %"struct.ap_fixed<43, 4, AP_TRN, AP_WRAP, 0>"]* @_ZN19fourth_order_doubleL6sin_K2E, i64 0, i64 5), i8* getelementptr inbounds ([20 x i8], [20 x i8]* @.str.908.49384, i32 0, i32 0))
  call void @_ZN8ap_fixedILi43ELin2EL9ap_q_mode5EL9ap_o_mode3ELi0EEC2EPKc(%"struct.ap_fixed<43, 4, AP_TRN, AP_WRAP, 0>"* getelementptr inbounds ([128 x %"struct.ap_fixed<43, 4, AP_TRN, AP_WRAP, 0>"], [128 x %"struct.ap_fixed<43, 4, AP_TRN, AP_WRAP, 0>"]* @_ZN19fourth_order_doubleL6sin_K2E, i64 0, i64 6), i8* getelementptr inbounds ([19 x i8], [19 x i8]* @.str.909.49385, i32 0, i32 0))
  call void @_ZN8ap_fixedILi43ELin2EL9ap_q_mode5EL9ap_o_mode3ELi0EEC2EPKc(%"struct.ap_fixed<43, 4, AP_TRN, AP_WRAP, 0>"* getelementptr inbounds ([128 x %"struct.ap_fixed<43, 4, AP_TRN, AP_WRAP, 0>"], [128 x %"struct.ap_fixed<43, 4, AP_TRN, AP_WRAP, 0>"]* @_ZN19fourth_order_doubleL6sin_K2E, i64 0, i64 7), i8* getelementptr inbounds ([19 x i8], [19 x i8]* @.str.910.49386, i32 0, i32 0))
  call void @_ZN8ap_fixedILi43ELin2EL9ap_q_mode5EL9ap_o_mode3ELi0EEC2EPKc(%"struct.ap_fixed<43, 4, AP_TRN, AP_WRAP, 0>"* getelementptr inbounds ([128 x %"struct.ap_fixed<43, 4, AP_TRN, AP_WRAP, 0>"], [128 x %"struct.ap_fixed<43, 4, AP_TRN, AP_WRAP, 0>"]* @_ZN19fourth_order_doubleL6sin_K2E, i64 0, i64 8), i8* getelementptr inbounds ([20 x i8], [20 x i8]* @.str.911.49387, i32 0, i32 0))
  call void @_ZN8ap_fixedILi43ELin2EL9ap_q_mode5EL9ap_o_mode3ELi0EEC2EPKc(%"struct.ap_fixed<43, 4, AP_TRN, AP_WRAP, 0>"* getelementptr inbounds ([128 x %"struct.ap_fixed<43, 4, AP_TRN, AP_WRAP, 0>"], [128 x %"struct.ap_fixed<43, 4, AP_TRN, AP_WRAP, 0>"]* @_ZN19fourth_order_doubleL6sin_K2E, i64 0, i64 9), i8* getelementptr inbounds ([20 x i8], [20 x i8]* @.str.912.49388, i32 0, i32 0))
  call void @_ZN8ap_fixedILi43ELin2EL9ap_q_mode5EL9ap_o_mode3ELi0EEC2EPKc(%"struct.ap_fixed<43, 4, AP_TRN, AP_WRAP, 0>"* getelementptr inbounds ([128 x %"struct.ap_fixed<43, 4, AP_TRN, AP_WRAP, 0>"], [128 x %"struct.ap_fixed<43, 4, AP_TRN, AP_WRAP, 0>"]* @_ZN19fourth_order_doubleL6sin_K2E, i64 0, i64 10), i8* getelementptr inbounds ([20 x i8], [20 x i8]* @.str.913.49389, i32 0, i32 0))
  call void @_ZN8ap_fixedILi43ELin2EL9ap_q_mode5EL9ap_o_mode3ELi0EEC2EPKc(%"struct.ap_fixed<43, 4, AP_TRN, AP_WRAP, 0>"* getelementptr inbounds ([128 x %"struct.ap_fixed<43, 4, AP_TRN, AP_WRAP, 0>"], [128 x %"struct.ap_fixed<43, 4, AP_TRN, AP_WRAP, 0>"]* @_ZN19fourth_order_doubleL6sin_K2E, i64 0, i64 11), i8* getelementptr inbounds ([20 x i8], [20 x i8]* @.str.914.49390, i32 0, i32 0))
  call void @_ZN8ap_fixedILi43ELin2EL9ap_q_mode5EL9ap_o_mode3ELi0EEC2EPKc(%"struct.ap_fixed<43, 4, AP_TRN, AP_WRAP, 0>"* getelementptr inbounds ([128 x %"struct.ap_fixed<43, 4, AP_TRN, AP_WRAP, 0>"], [128 x %"struct.ap_fixed<43, 4, AP_TRN, AP_WRAP, 0>"]* @_ZN19fourth_order_doubleL6sin_K2E, i64 0, i64 12), i8* getelementptr inbounds ([19 x i8], [19 x i8]* @.str.915.48499, i32 0, i32 0))
  call void @_ZN8ap_fixedILi43ELin2EL9ap_q_mode5EL9ap_o_mode3ELi0EEC2EPKc(%"struct.ap_fixed<43, 4, AP_TRN, AP_WRAP, 0>"* getelementptr inbounds ([128 x %"struct.ap_fixed<43, 4, AP_TRN, AP_WRAP, 0>"], [128 x %"struct.ap_fixed<43, 4, AP_TRN, AP_WRAP, 0>"]* @_ZN19fourth_order_doubleL6sin_K2E, i64 0, i64 13), i8* getelementptr inbounds ([19 x i8], [19 x i8]* @.str.916.49391, i32 0, i32 0))
  call void @_ZN8ap_fixedILi43ELin2EL9ap_q_mode5EL9ap_o_mode3ELi0EEC2EPKc(%"struct.ap_fixed<43, 4, AP_TRN, AP_WRAP, 0>"* getelementptr inbounds ([128 x %"struct.ap_fixed<43, 4, AP_TRN, AP_WRAP, 0>"], [128 x %"struct.ap_fixed<43, 4, AP_TRN, AP_WRAP, 0>"]* @_ZN19fourth_order_doubleL6sin_K2E, i64 0, i64 14), i8* getelementptr inbounds ([20 x i8], [20 x i8]* @.str.917.49392, i32 0, i32 0))
  call void @_ZN8ap_fixedILi43ELin2EL9ap_q_mode5EL9ap_o_mode3ELi0EEC2EPKc(%"struct.ap_fixed<43, 4, AP_TRN, AP_WRAP, 0>"* getelementptr inbounds ([128 x %"struct.ap_fixed<43, 4, AP_TRN, AP_WRAP, 0>"], [128 x %"struct.ap_fixed<43, 4, AP_TRN, AP_WRAP, 0>"]* @_ZN19fourth_order_doubleL6sin_K2E, i64 0, i64 15), i8* getelementptr inbounds ([20 x i8], [20 x i8]* @.str.918.49393, i32 0, i32 0))
  call void @_ZN8ap_fixedILi43ELin2EL9ap_q_mode5EL9ap_o_mode3ELi0EEC2EPKc(%"struct.ap_fixed<43, 4, AP_TRN, AP_WRAP, 0>"* getelementptr inbounds ([128 x %"struct.ap_fixed<43, 4, AP_TRN, AP_WRAP, 0>"], [128 x %"struct.ap_fixed<43, 4, AP_TRN, AP_WRAP, 0>"]* @_ZN19fourth_order_doubleL6sin_K2E, i64 0, i64 16), i8* getelementptr inbounds ([20 x i8], [20 x i8]* @.str.919.49394, i32 0, i32 0))
  call void @_ZN8ap_fixedILi43ELin2EL9ap_q_mode5EL9ap_o_mode3ELi0EEC2EPKc(%"struct.ap_fixed<43, 4, AP_TRN, AP_WRAP, 0>"* getelementptr inbounds ([128 x %"struct.ap_fixed<43, 4, AP_TRN, AP_WRAP, 0>"], [128 x %"struct.ap_fixed<43, 4, AP_TRN, AP_WRAP, 0>"]* @_ZN19fourth_order_doubleL6sin_K2E, i64 0, i64 17), i8* getelementptr inbounds ([19 x i8], [19 x i8]* @.str.920.49395, i32 0, i32 0))
  call void @_ZN8ap_fixedILi43ELin2EL9ap_q_mode5EL9ap_o_mode3ELi0EEC2EPKc(%"struct.ap_fixed<43, 4, AP_TRN, AP_WRAP, 0>"* getelementptr inbounds ([128 x %"struct.ap_fixed<43, 4, AP_TRN, AP_WRAP, 0>"], [128 x %"struct.ap_fixed<43, 4, AP_TRN, AP_WRAP, 0>"]* @_ZN19fourth_order_doubleL6sin_K2E, i64 0, i64 18), i8* getelementptr inbounds ([20 x i8], [20 x i8]* @.str.921.49396, i32 0, i32 0))
  call void @_ZN8ap_fixedILi43ELin2EL9ap_q_mode5EL9ap_o_mode3ELi0EEC2EPKc(%"struct.ap_fixed<43, 4, AP_TRN, AP_WRAP, 0>"* getelementptr inbounds ([128 x %"struct.ap_fixed<43, 4, AP_TRN, AP_WRAP, 0>"], [128 x %"struct.ap_fixed<43, 4, AP_TRN, AP_WRAP, 0>"]* @_ZN19fourth_order_doubleL6sin_K2E, i64 0, i64 19), i8* getelementptr inbounds ([19 x i8], [19 x i8]* @.str.922.48506, i32 0, i32 0))
  call void @_ZN8ap_fixedILi43ELin2EL9ap_q_mode5EL9ap_o_mode3ELi0EEC2EPKc(%"struct.ap_fixed<43, 4, AP_TRN, AP_WRAP, 0>"* getelementptr inbounds ([128 x %"struct.ap_fixed<43, 4, AP_TRN, AP_WRAP, 0>"], [128 x %"struct.ap_fixed<43, 4, AP_TRN, AP_WRAP, 0>"]* @_ZN19fourth_order_doubleL6sin_K2E, i64 0, i64 20), i8* getelementptr inbounds ([19 x i8], [19 x i8]* @.str.923.49397, i32 0, i32 0))
  call void @_ZN8ap_fixedILi43ELin2EL9ap_q_mode5EL9ap_o_mode3ELi0EEC2EPKc(%"struct.ap_fixed<43, 4, AP_TRN, AP_WRAP, 0>"* getelementptr inbounds ([128 x %"struct.ap_fixed<43, 4, AP_TRN, AP_WRAP, 0>"], [128 x %"struct.ap_fixed<43, 4, AP_TRN, AP_WRAP, 0>"]* @_ZN19fourth_order_doubleL6sin_K2E, i64 0, i64 21), i8* getelementptr inbounds ([18 x i8], [18 x i8]* @.str.924.49398, i32 0, i32 0))
  call void @_ZN8ap_fixedILi43ELin2EL9ap_q_mode5EL9ap_o_mode3ELi0EEC2EPKc(%"struct.ap_fixed<43, 4, AP_TRN, AP_WRAP, 0>"* getelementptr inbounds ([128 x %"struct.ap_fixed<43, 4, AP_TRN, AP_WRAP, 0>"], [128 x %"struct.ap_fixed<43, 4, AP_TRN, AP_WRAP, 0>"]* @_ZN19fourth_order_doubleL6sin_K2E, i64 0, i64 22), i8* getelementptr inbounds ([20 x i8], [20 x i8]* @.str.925.49399, i32 0, i32 0))
  call void @_ZN8ap_fixedILi43ELin2EL9ap_q_mode5EL9ap_o_mode3ELi0EEC2EPKc(%"struct.ap_fixed<43, 4, AP_TRN, AP_WRAP, 0>"* getelementptr inbounds ([128 x %"struct.ap_fixed<43, 4, AP_TRN, AP_WRAP, 0>"], [128 x %"struct.ap_fixed<43, 4, AP_TRN, AP_WRAP, 0>"]* @_ZN19fourth_order_doubleL6sin_K2E, i64 0, i64 23), i8* getelementptr inbounds ([20 x i8], [20 x i8]* @.str.926.49400, i32 0, i32 0))
  call void @_ZN8ap_fixedILi43ELin2EL9ap_q_mode5EL9ap_o_mode3ELi0EEC2EPKc(%"struct.ap_fixed<43, 4, AP_TRN, AP_WRAP, 0>"* getelementptr inbounds ([128 x %"struct.ap_fixed<43, 4, AP_TRN, AP_WRAP, 0>"], [128 x %"struct.ap_fixed<43, 4, AP_TRN, AP_WRAP, 0>"]* @_ZN19fourth_order_doubleL6sin_K2E, i64 0, i64 24), i8* getelementptr inbounds ([20 x i8], [20 x i8]* @.str.927.49401, i32 0, i32 0))
  call void @_ZN8ap_fixedILi43ELin2EL9ap_q_mode5EL9ap_o_mode3ELi0EEC2EPKc(%"struct.ap_fixed<43, 4, AP_TRN, AP_WRAP, 0>"* getelementptr inbounds ([128 x %"struct.ap_fixed<43, 4, AP_TRN, AP_WRAP, 0>"], [128 x %"struct.ap_fixed<43, 4, AP_TRN, AP_WRAP, 0>"]* @_ZN19fourth_order_doubleL6sin_K2E, i64 0, i64 25), i8* getelementptr inbounds ([19 x i8], [19 x i8]* @.str.928.49402, i32 0, i32 0))
  call void @_ZN8ap_fixedILi43ELin2EL9ap_q_mode5EL9ap_o_mode3ELi0EEC2EPKc(%"struct.ap_fixed<43, 4, AP_TRN, AP_WRAP, 0>"* getelementptr inbounds ([128 x %"struct.ap_fixed<43, 4, AP_TRN, AP_WRAP, 0>"], [128 x %"struct.ap_fixed<43, 4, AP_TRN, AP_WRAP, 0>"]* @_ZN19fourth_order_doubleL6sin_K2E, i64 0, i64 26), i8* getelementptr inbounds ([19 x i8], [19 x i8]* @.str.929.49403, i32 0, i32 0))
  call void @_ZN8ap_fixedILi43ELin2EL9ap_q_mode5EL9ap_o_mode3ELi0EEC2EPKc(%"struct.ap_fixed<43, 4, AP_TRN, AP_WRAP, 0>"* getelementptr inbounds ([128 x %"struct.ap_fixed<43, 4, AP_TRN, AP_WRAP, 0>"], [128 x %"struct.ap_fixed<43, 4, AP_TRN, AP_WRAP, 0>"]* @_ZN19fourth_order_doubleL6sin_K2E, i64 0, i64 27), i8* getelementptr inbounds ([19 x i8], [19 x i8]* @.str.930.49404, i32 0, i32 0))
  call void @_ZN8ap_fixedILi43ELin2EL9ap_q_mode5EL9ap_o_mode3ELi0EEC2EPKc(%"struct.ap_fixed<43, 4, AP_TRN, AP_WRAP, 0>"* getelementptr inbounds ([128 x %"struct.ap_fixed<43, 4, AP_TRN, AP_WRAP, 0>"], [128 x %"struct.ap_fixed<43, 4, AP_TRN, AP_WRAP, 0>"]* @_ZN19fourth_order_doubleL6sin_K2E, i64 0, i64 28), i8* getelementptr inbounds ([19 x i8], [19 x i8]* @.str.931.49405, i32 0, i32 0))
  call void @_ZN8ap_fixedILi43ELin2EL9ap_q_mode5EL9ap_o_mode3ELi0EEC2EPKc(%"struct.ap_fixed<43, 4, AP_TRN, AP_WRAP, 0>"* getelementptr inbounds ([128 x %"struct.ap_fixed<43, 4, AP_TRN, AP_WRAP, 0>"], [128 x %"struct.ap_fixed<43, 4, AP_TRN, AP_WRAP, 0>"]* @_ZN19fourth_order_doubleL6sin_K2E, i64 0, i64 29), i8* getelementptr inbounds ([19 x i8], [19 x i8]* @.str.932.49406, i32 0, i32 0))
  call void @_ZN8ap_fixedILi43ELin2EL9ap_q_mode5EL9ap_o_mode3ELi0EEC2EPKc(%"struct.ap_fixed<43, 4, AP_TRN, AP_WRAP, 0>"* getelementptr inbounds ([128 x %"struct.ap_fixed<43, 4, AP_TRN, AP_WRAP, 0>"], [128 x %"struct.ap_fixed<43, 4, AP_TRN, AP_WRAP, 0>"]* @_ZN19fourth_order_doubleL6sin_K2E, i64 0, i64 30), i8* getelementptr inbounds ([19 x i8], [19 x i8]* @.str.933.49407, i32 0, i32 0))
  call void @_ZN8ap_fixedILi43ELin2EL9ap_q_mode5EL9ap_o_mode3ELi0EEC2EPKc(%"struct.ap_fixed<43, 4, AP_TRN, AP_WRAP, 0>"* getelementptr inbounds ([128 x %"struct.ap_fixed<43, 4, AP_TRN, AP_WRAP, 0>"], [128 x %"struct.ap_fixed<43, 4, AP_TRN, AP_WRAP, 0>"]* @_ZN19fourth_order_doubleL6sin_K2E, i64 0, i64 31), i8* getelementptr inbounds ([19 x i8], [19 x i8]* @.str.934.49408, i32 0, i32 0))
  call void @_ZN8ap_fixedILi43ELin2EL9ap_q_mode5EL9ap_o_mode3ELi0EEC2EPKc(%"struct.ap_fixed<43, 4, AP_TRN, AP_WRAP, 0>"* getelementptr inbounds ([128 x %"struct.ap_fixed<43, 4, AP_TRN, AP_WRAP, 0>"], [128 x %"struct.ap_fixed<43, 4, AP_TRN, AP_WRAP, 0>"]* @_ZN19fourth_order_doubleL6sin_K2E, i64 0, i64 32), i8* getelementptr inbounds ([19 x i8], [19 x i8]* @.str.935.49409, i32 0, i32 0))
  call void @_ZN8ap_fixedILi43ELin2EL9ap_q_mode5EL9ap_o_mode3ELi0EEC2EPKc(%"struct.ap_fixed<43, 4, AP_TRN, AP_WRAP, 0>"* getelementptr inbounds ([128 x %"struct.ap_fixed<43, 4, AP_TRN, AP_WRAP, 0>"], [128 x %"struct.ap_fixed<43, 4, AP_TRN, AP_WRAP, 0>"]* @_ZN19fourth_order_doubleL6sin_K2E, i64 0, i64 33), i8* getelementptr inbounds ([19 x i8], [19 x i8]* @.str.936.49410, i32 0, i32 0))
  call void @_ZN8ap_fixedILi43ELin2EL9ap_q_mode5EL9ap_o_mode3ELi0EEC2EPKc(%"struct.ap_fixed<43, 4, AP_TRN, AP_WRAP, 0>"* getelementptr inbounds ([128 x %"struct.ap_fixed<43, 4, AP_TRN, AP_WRAP, 0>"], [128 x %"struct.ap_fixed<43, 4, AP_TRN, AP_WRAP, 0>"]* @_ZN19fourth_order_doubleL6sin_K2E, i64 0, i64 34), i8* getelementptr inbounds ([19 x i8], [19 x i8]* @.str.937.49411, i32 0, i32 0))
  call void @_ZN8ap_fixedILi43ELin2EL9ap_q_mode5EL9ap_o_mode3ELi0EEC2EPKc(%"struct.ap_fixed<43, 4, AP_TRN, AP_WRAP, 0>"* getelementptr inbounds ([128 x %"struct.ap_fixed<43, 4, AP_TRN, AP_WRAP, 0>"], [128 x %"struct.ap_fixed<43, 4, AP_TRN, AP_WRAP, 0>"]* @_ZN19fourth_order_doubleL6sin_K2E, i64 0, i64 35), i8* getelementptr inbounds ([19 x i8], [19 x i8]* @.str.938.49412, i32 0, i32 0))
  call void @_ZN8ap_fixedILi43ELin2EL9ap_q_mode5EL9ap_o_mode3ELi0EEC2EPKc(%"struct.ap_fixed<43, 4, AP_TRN, AP_WRAP, 0>"* getelementptr inbounds ([128 x %"struct.ap_fixed<43, 4, AP_TRN, AP_WRAP, 0>"], [128 x %"struct.ap_fixed<43, 4, AP_TRN, AP_WRAP, 0>"]* @_ZN19fourth_order_doubleL6sin_K2E, i64 0, i64 36), i8* getelementptr inbounds ([19 x i8], [19 x i8]* @.str.939.49413, i32 0, i32 0))
  call void @_ZN8ap_fixedILi43ELin2EL9ap_q_mode5EL9ap_o_mode3ELi0EEC2EPKc(%"struct.ap_fixed<43, 4, AP_TRN, AP_WRAP, 0>"* getelementptr inbounds ([128 x %"struct.ap_fixed<43, 4, AP_TRN, AP_WRAP, 0>"], [128 x %"struct.ap_fixed<43, 4, AP_TRN, AP_WRAP, 0>"]* @_ZN19fourth_order_doubleL6sin_K2E, i64 0, i64 37), i8* getelementptr inbounds ([19 x i8], [19 x i8]* @.str.940.49414, i32 0, i32 0))
  call void @_ZN8ap_fixedILi43ELin2EL9ap_q_mode5EL9ap_o_mode3ELi0EEC2EPKc(%"struct.ap_fixed<43, 4, AP_TRN, AP_WRAP, 0>"* getelementptr inbounds ([128 x %"struct.ap_fixed<43, 4, AP_TRN, AP_WRAP, 0>"], [128 x %"struct.ap_fixed<43, 4, AP_TRN, AP_WRAP, 0>"]* @_ZN19fourth_order_doubleL6sin_K2E, i64 0, i64 38), i8* getelementptr inbounds ([19 x i8], [19 x i8]* @.str.941.49415, i32 0, i32 0))
  call void @_ZN8ap_fixedILi43ELin2EL9ap_q_mode5EL9ap_o_mode3ELi0EEC2EPKc(%"struct.ap_fixed<43, 4, AP_TRN, AP_WRAP, 0>"* getelementptr inbounds ([128 x %"struct.ap_fixed<43, 4, AP_TRN, AP_WRAP, 0>"], [128 x %"struct.ap_fixed<43, 4, AP_TRN, AP_WRAP, 0>"]* @_ZN19fourth_order_doubleL6sin_K2E, i64 0, i64 39), i8* getelementptr inbounds ([20 x i8], [20 x i8]* @.str.942.49416, i32 0, i32 0))
  call void @_ZN8ap_fixedILi43ELin2EL9ap_q_mode5EL9ap_o_mode3ELi0EEC2EPKc(%"struct.ap_fixed<43, 4, AP_TRN, AP_WRAP, 0>"* getelementptr inbounds ([128 x %"struct.ap_fixed<43, 4, AP_TRN, AP_WRAP, 0>"], [128 x %"struct.ap_fixed<43, 4, AP_TRN, AP_WRAP, 0>"]* @_ZN19fourth_order_doubleL6sin_K2E, i64 0, i64 40), i8* getelementptr inbounds ([20 x i8], [20 x i8]* @.str.943.49417, i32 0, i32 0))
  call void @_ZN8ap_fixedILi43ELin2EL9ap_q_mode5EL9ap_o_mode3ELi0EEC2EPKc(%"struct.ap_fixed<43, 4, AP_TRN, AP_WRAP, 0>"* getelementptr inbounds ([128 x %"struct.ap_fixed<43, 4, AP_TRN, AP_WRAP, 0>"], [128 x %"struct.ap_fixed<43, 4, AP_TRN, AP_WRAP, 0>"]* @_ZN19fourth_order_doubleL6sin_K2E, i64 0, i64 41), i8* getelementptr inbounds ([19 x i8], [19 x i8]* @.str.944.49418, i32 0, i32 0))
  call void @_ZN8ap_fixedILi43ELin2EL9ap_q_mode5EL9ap_o_mode3ELi0EEC2EPKc(%"struct.ap_fixed<43, 4, AP_TRN, AP_WRAP, 0>"* getelementptr inbounds ([128 x %"struct.ap_fixed<43, 4, AP_TRN, AP_WRAP, 0>"], [128 x %"struct.ap_fixed<43, 4, AP_TRN, AP_WRAP, 0>"]* @_ZN19fourth_order_doubleL6sin_K2E, i64 0, i64 42), i8* getelementptr inbounds ([19 x i8], [19 x i8]* @.str.945.49419, i32 0, i32 0))
  call void @_ZN8ap_fixedILi43ELin2EL9ap_q_mode5EL9ap_o_mode3ELi0EEC2EPKc(%"struct.ap_fixed<43, 4, AP_TRN, AP_WRAP, 0>"* getelementptr inbounds ([128 x %"struct.ap_fixed<43, 4, AP_TRN, AP_WRAP, 0>"], [128 x %"struct.ap_fixed<43, 4, AP_TRN, AP_WRAP, 0>"]* @_ZN19fourth_order_doubleL6sin_K2E, i64 0, i64 43), i8* getelementptr inbounds ([19 x i8], [19 x i8]* @.str.946.49420, i32 0, i32 0))
  call void @_ZN8ap_fixedILi43ELin2EL9ap_q_mode5EL9ap_o_mode3ELi0EEC2EPKc(%"struct.ap_fixed<43, 4, AP_TRN, AP_WRAP, 0>"* getelementptr inbounds ([128 x %"struct.ap_fixed<43, 4, AP_TRN, AP_WRAP, 0>"], [128 x %"struct.ap_fixed<43, 4, AP_TRN, AP_WRAP, 0>"]* @_ZN19fourth_order_doubleL6sin_K2E, i64 0, i64 44), i8* getelementptr inbounds ([20 x i8], [20 x i8]* @.str.947.49421, i32 0, i32 0))
  call void @_ZN8ap_fixedILi43ELin2EL9ap_q_mode5EL9ap_o_mode3ELi0EEC2EPKc(%"struct.ap_fixed<43, 4, AP_TRN, AP_WRAP, 0>"* getelementptr inbounds ([128 x %"struct.ap_fixed<43, 4, AP_TRN, AP_WRAP, 0>"], [128 x %"struct.ap_fixed<43, 4, AP_TRN, AP_WRAP, 0>"]* @_ZN19fourth_order_doubleL6sin_K2E, i64 0, i64 45), i8* getelementptr inbounds ([20 x i8], [20 x i8]* @.str.948.49422, i32 0, i32 0))
  call void @_ZN8ap_fixedILi43ELin2EL9ap_q_mode5EL9ap_o_mode3ELi0EEC2EPKc(%"struct.ap_fixed<43, 4, AP_TRN, AP_WRAP, 0>"* getelementptr inbounds ([128 x %"struct.ap_fixed<43, 4, AP_TRN, AP_WRAP, 0>"], [128 x %"struct.ap_fixed<43, 4, AP_TRN, AP_WRAP, 0>"]* @_ZN19fourth_order_doubleL6sin_K2E, i64 0, i64 46), i8* getelementptr inbounds ([20 x i8], [20 x i8]* @.str.949.49423, i32 0, i32 0))
  call void @_ZN8ap_fixedILi43ELin2EL9ap_q_mode5EL9ap_o_mode3ELi0EEC2EPKc(%"struct.ap_fixed<43, 4, AP_TRN, AP_WRAP, 0>"* getelementptr inbounds ([128 x %"struct.ap_fixed<43, 4, AP_TRN, AP_WRAP, 0>"], [128 x %"struct.ap_fixed<43, 4, AP_TRN, AP_WRAP, 0>"]* @_ZN19fourth_order_doubleL6sin_K2E, i64 0, i64 47), i8* getelementptr inbounds ([20 x i8], [20 x i8]* @.str.950.49424, i32 0, i32 0))
  call void @_ZN8ap_fixedILi43ELin2EL9ap_q_mode5EL9ap_o_mode3ELi0EEC2EPKc(%"struct.ap_fixed<43, 4, AP_TRN, AP_WRAP, 0>"* getelementptr inbounds ([128 x %"struct.ap_fixed<43, 4, AP_TRN, AP_WRAP, 0>"], [128 x %"struct.ap_fixed<43, 4, AP_TRN, AP_WRAP, 0>"]* @_ZN19fourth_order_doubleL6sin_K2E, i64 0, i64 48), i8* getelementptr inbounds ([19 x i8], [19 x i8]* @.str.951.49425, i32 0, i32 0))
  call void @_ZN8ap_fixedILi43ELin2EL9ap_q_mode5EL9ap_o_mode3ELi0EEC2EPKc(%"struct.ap_fixed<43, 4, AP_TRN, AP_WRAP, 0>"* getelementptr inbounds ([128 x %"struct.ap_fixed<43, 4, AP_TRN, AP_WRAP, 0>"], [128 x %"struct.ap_fixed<43, 4, AP_TRN, AP_WRAP, 0>"]* @_ZN19fourth_order_doubleL6sin_K2E, i64 0, i64 49), i8* getelementptr inbounds ([19 x i8], [19 x i8]* @.str.952.49426, i32 0, i32 0))
  call void @_ZN8ap_fixedILi43ELin2EL9ap_q_mode5EL9ap_o_mode3ELi0EEC2EPKc(%"struct.ap_fixed<43, 4, AP_TRN, AP_WRAP, 0>"* getelementptr inbounds ([128 x %"struct.ap_fixed<43, 4, AP_TRN, AP_WRAP, 0>"], [128 x %"struct.ap_fixed<43, 4, AP_TRN, AP_WRAP, 0>"]* @_ZN19fourth_order_doubleL6sin_K2E, i64 0, i64 50), i8* getelementptr inbounds ([20 x i8], [20 x i8]* @.str.953.49427, i32 0, i32 0))
  call void @_ZN8ap_fixedILi43ELin2EL9ap_q_mode5EL9ap_o_mode3ELi0EEC2EPKc(%"struct.ap_fixed<43, 4, AP_TRN, AP_WRAP, 0>"* getelementptr inbounds ([128 x %"struct.ap_fixed<43, 4, AP_TRN, AP_WRAP, 0>"], [128 x %"struct.ap_fixed<43, 4, AP_TRN, AP_WRAP, 0>"]* @_ZN19fourth_order_doubleL6sin_K2E, i64 0, i64 51), i8* getelementptr inbounds ([20 x i8], [20 x i8]* @.str.954.49428, i32 0, i32 0))
  call void @_ZN8ap_fixedILi43ELin2EL9ap_q_mode5EL9ap_o_mode3ELi0EEC2EPKc(%"struct.ap_fixed<43, 4, AP_TRN, AP_WRAP, 0>"* getelementptr inbounds ([128 x %"struct.ap_fixed<43, 4, AP_TRN, AP_WRAP, 0>"], [128 x %"struct.ap_fixed<43, 4, AP_TRN, AP_WRAP, 0>"]* @_ZN19fourth_order_doubleL6sin_K2E, i64 0, i64 52), i8* getelementptr inbounds ([19 x i8], [19 x i8]* @.str.955.49429, i32 0, i32 0))
  call void @_ZN8ap_fixedILi43ELin2EL9ap_q_mode5EL9ap_o_mode3ELi0EEC2EPKc(%"struct.ap_fixed<43, 4, AP_TRN, AP_WRAP, 0>"* getelementptr inbounds ([128 x %"struct.ap_fixed<43, 4, AP_TRN, AP_WRAP, 0>"], [128 x %"struct.ap_fixed<43, 4, AP_TRN, AP_WRAP, 0>"]* @_ZN19fourth_order_doubleL6sin_K2E, i64 0, i64 53), i8* getelementptr inbounds ([19 x i8], [19 x i8]* @.str.956.49430, i32 0, i32 0))
  call void @_ZN8ap_fixedILi43ELin2EL9ap_q_mode5EL9ap_o_mode3ELi0EEC2EPKc(%"struct.ap_fixed<43, 4, AP_TRN, AP_WRAP, 0>"* getelementptr inbounds ([128 x %"struct.ap_fixed<43, 4, AP_TRN, AP_WRAP, 0>"], [128 x %"struct.ap_fixed<43, 4, AP_TRN, AP_WRAP, 0>"]* @_ZN19fourth_order_doubleL6sin_K2E, i64 0, i64 54), i8* getelementptr inbounds ([19 x i8], [19 x i8]* @.str.957.49431, i32 0, i32 0))
  call void @_ZN8ap_fixedILi43ELin2EL9ap_q_mode5EL9ap_o_mode3ELi0EEC2EPKc(%"struct.ap_fixed<43, 4, AP_TRN, AP_WRAP, 0>"* getelementptr inbounds ([128 x %"struct.ap_fixed<43, 4, AP_TRN, AP_WRAP, 0>"], [128 x %"struct.ap_fixed<43, 4, AP_TRN, AP_WRAP, 0>"]* @_ZN19fourth_order_doubleL6sin_K2E, i64 0, i64 55), i8* getelementptr inbounds ([19 x i8], [19 x i8]* @.str.958.49432, i32 0, i32 0))
  call void @_ZN8ap_fixedILi43ELin2EL9ap_q_mode5EL9ap_o_mode3ELi0EEC2EPKc(%"struct.ap_fixed<43, 4, AP_TRN, AP_WRAP, 0>"* getelementptr inbounds ([128 x %"struct.ap_fixed<43, 4, AP_TRN, AP_WRAP, 0>"], [128 x %"struct.ap_fixed<43, 4, AP_TRN, AP_WRAP, 0>"]* @_ZN19fourth_order_doubleL6sin_K2E, i64 0, i64 56), i8* getelementptr inbounds ([19 x i8], [19 x i8]* @.str.959.49433, i32 0, i32 0))
  call void @_ZN8ap_fixedILi43ELin2EL9ap_q_mode5EL9ap_o_mode3ELi0EEC2EPKc(%"struct.ap_fixed<43, 4, AP_TRN, AP_WRAP, 0>"* getelementptr inbounds ([128 x %"struct.ap_fixed<43, 4, AP_TRN, AP_WRAP, 0>"], [128 x %"struct.ap_fixed<43, 4, AP_TRN, AP_WRAP, 0>"]* @_ZN19fourth_order_doubleL6sin_K2E, i64 0, i64 57), i8* getelementptr inbounds ([19 x i8], [19 x i8]* @.str.960.49434, i32 0, i32 0))
  call void @_ZN8ap_fixedILi43ELin2EL9ap_q_mode5EL9ap_o_mode3ELi0EEC2EPKc(%"struct.ap_fixed<43, 4, AP_TRN, AP_WRAP, 0>"* getelementptr inbounds ([128 x %"struct.ap_fixed<43, 4, AP_TRN, AP_WRAP, 0>"], [128 x %"struct.ap_fixed<43, 4, AP_TRN, AP_WRAP, 0>"]* @_ZN19fourth_order_doubleL6sin_K2E, i64 0, i64 58), i8* getelementptr inbounds ([20 x i8], [20 x i8]* @.str.961.49435, i32 0, i32 0))
  call void @_ZN8ap_fixedILi43ELin2EL9ap_q_mode5EL9ap_o_mode3ELi0EEC2EPKc(%"struct.ap_fixed<43, 4, AP_TRN, AP_WRAP, 0>"* getelementptr inbounds ([128 x %"struct.ap_fixed<43, 4, AP_TRN, AP_WRAP, 0>"], [128 x %"struct.ap_fixed<43, 4, AP_TRN, AP_WRAP, 0>"]* @_ZN19fourth_order_doubleL6sin_K2E, i64 0, i64 59), i8* getelementptr inbounds ([20 x i8], [20 x i8]* @.str.962.49436, i32 0, i32 0))
  call void @_ZN8ap_fixedILi43ELin2EL9ap_q_mode5EL9ap_o_mode3ELi0EEC2EPKc(%"struct.ap_fixed<43, 4, AP_TRN, AP_WRAP, 0>"* getelementptr inbounds ([128 x %"struct.ap_fixed<43, 4, AP_TRN, AP_WRAP, 0>"], [128 x %"struct.ap_fixed<43, 4, AP_TRN, AP_WRAP, 0>"]* @_ZN19fourth_order_doubleL6sin_K2E, i64 0, i64 60), i8* getelementptr inbounds ([19 x i8], [19 x i8]* @.str.963.49437, i32 0, i32 0))
  call void @_ZN8ap_fixedILi43ELin2EL9ap_q_mode5EL9ap_o_mode3ELi0EEC2EPKc(%"struct.ap_fixed<43, 4, AP_TRN, AP_WRAP, 0>"* getelementptr inbounds ([128 x %"struct.ap_fixed<43, 4, AP_TRN, AP_WRAP, 0>"], [128 x %"struct.ap_fixed<43, 4, AP_TRN, AP_WRAP, 0>"]* @_ZN19fourth_order_doubleL6sin_K2E, i64 0, i64 61), i8* getelementptr inbounds ([19 x i8], [19 x i8]* @.str.964.49438, i32 0, i32 0))
  call void @_ZN8ap_fixedILi43ELin2EL9ap_q_mode5EL9ap_o_mode3ELi0EEC2EPKc(%"struct.ap_fixed<43, 4, AP_TRN, AP_WRAP, 0>"* getelementptr inbounds ([128 x %"struct.ap_fixed<43, 4, AP_TRN, AP_WRAP, 0>"], [128 x %"struct.ap_fixed<43, 4, AP_TRN, AP_WRAP, 0>"]* @_ZN19fourth_order_doubleL6sin_K2E, i64 0, i64 62), i8* getelementptr inbounds ([20 x i8], [20 x i8]* @.str.965.49439, i32 0, i32 0))
  call void @_ZN8ap_fixedILi43ELin2EL9ap_q_mode5EL9ap_o_mode3ELi0EEC2EPKc(%"struct.ap_fixed<43, 4, AP_TRN, AP_WRAP, 0>"* getelementptr inbounds ([128 x %"struct.ap_fixed<43, 4, AP_TRN, AP_WRAP, 0>"], [128 x %"struct.ap_fixed<43, 4, AP_TRN, AP_WRAP, 0>"]* @_ZN19fourth_order_doubleL6sin_K2E, i64 0, i64 63), i8* getelementptr inbounds ([18 x i8], [18 x i8]* @.str.966.49440, i32 0, i32 0))
  call void @_ZN8ap_fixedILi43ELin2EL9ap_q_mode5EL9ap_o_mode3ELi0EEC2EPKc(%"struct.ap_fixed<43, 4, AP_TRN, AP_WRAP, 0>"* getelementptr inbounds ([128 x %"struct.ap_fixed<43, 4, AP_TRN, AP_WRAP, 0>"], [128 x %"struct.ap_fixed<43, 4, AP_TRN, AP_WRAP, 0>"]* @_ZN19fourth_order_doubleL6sin_K2E, i64 0, i64 64), i8* getelementptr inbounds ([20 x i8], [20 x i8]* @.str.967.49441, i32 0, i32 0))
  call void @_ZN8ap_fixedILi43ELin2EL9ap_q_mode5EL9ap_o_mode3ELi0EEC2EPKc(%"struct.ap_fixed<43, 4, AP_TRN, AP_WRAP, 0>"* getelementptr inbounds ([128 x %"struct.ap_fixed<43, 4, AP_TRN, AP_WRAP, 0>"], [128 x %"struct.ap_fixed<43, 4, AP_TRN, AP_WRAP, 0>"]* @_ZN19fourth_order_doubleL6sin_K2E, i64 0, i64 65), i8* getelementptr inbounds ([20 x i8], [20 x i8]* @.str.968.49442, i32 0, i32 0))
  call void @_ZN8ap_fixedILi43ELin2EL9ap_q_mode5EL9ap_o_mode3ELi0EEC2EPKc(%"struct.ap_fixed<43, 4, AP_TRN, AP_WRAP, 0>"* getelementptr inbounds ([128 x %"struct.ap_fixed<43, 4, AP_TRN, AP_WRAP, 0>"], [128 x %"struct.ap_fixed<43, 4, AP_TRN, AP_WRAP, 0>"]* @_ZN19fourth_order_doubleL6sin_K2E, i64 0, i64 66), i8* getelementptr inbounds ([20 x i8], [20 x i8]* @.str.969.49443, i32 0, i32 0))
  call void @_ZN8ap_fixedILi43ELin2EL9ap_q_mode5EL9ap_o_mode3ELi0EEC2EPKc(%"struct.ap_fixed<43, 4, AP_TRN, AP_WRAP, 0>"* getelementptr inbounds ([128 x %"struct.ap_fixed<43, 4, AP_TRN, AP_WRAP, 0>"], [128 x %"struct.ap_fixed<43, 4, AP_TRN, AP_WRAP, 0>"]* @_ZN19fourth_order_doubleL6sin_K2E, i64 0, i64 67), i8* getelementptr inbounds ([20 x i8], [20 x i8]* @.str.970.49444, i32 0, i32 0))
  call void @_ZN8ap_fixedILi43ELin2EL9ap_q_mode5EL9ap_o_mode3ELi0EEC2EPKc(%"struct.ap_fixed<43, 4, AP_TRN, AP_WRAP, 0>"* getelementptr inbounds ([128 x %"struct.ap_fixed<43, 4, AP_TRN, AP_WRAP, 0>"], [128 x %"struct.ap_fixed<43, 4, AP_TRN, AP_WRAP, 0>"]* @_ZN19fourth_order_doubleL6sin_K2E, i64 0, i64 68), i8* getelementptr inbounds ([20 x i8], [20 x i8]* @.str.971.49445, i32 0, i32 0))
  call void @_ZN8ap_fixedILi43ELin2EL9ap_q_mode5EL9ap_o_mode3ELi0EEC2EPKc(%"struct.ap_fixed<43, 4, AP_TRN, AP_WRAP, 0>"* getelementptr inbounds ([128 x %"struct.ap_fixed<43, 4, AP_TRN, AP_WRAP, 0>"], [128 x %"struct.ap_fixed<43, 4, AP_TRN, AP_WRAP, 0>"]* @_ZN19fourth_order_doubleL6sin_K2E, i64 0, i64 69), i8* getelementptr inbounds ([20 x i8], [20 x i8]* @.str.972.49446, i32 0, i32 0))
  call void @_ZN8ap_fixedILi43ELin2EL9ap_q_mode5EL9ap_o_mode3ELi0EEC2EPKc(%"struct.ap_fixed<43, 4, AP_TRN, AP_WRAP, 0>"* getelementptr inbounds ([128 x %"struct.ap_fixed<43, 4, AP_TRN, AP_WRAP, 0>"], [128 x %"struct.ap_fixed<43, 4, AP_TRN, AP_WRAP, 0>"]* @_ZN19fourth_order_doubleL6sin_K2E, i64 0, i64 70), i8* getelementptr inbounds ([20 x i8], [20 x i8]* @.str.973.49447, i32 0, i32 0))
  call void @_ZN8ap_fixedILi43ELin2EL9ap_q_mode5EL9ap_o_mode3ELi0EEC2EPKc(%"struct.ap_fixed<43, 4, AP_TRN, AP_WRAP, 0>"* getelementptr inbounds ([128 x %"struct.ap_fixed<43, 4, AP_TRN, AP_WRAP, 0>"], [128 x %"struct.ap_fixed<43, 4, AP_TRN, AP_WRAP, 0>"]* @_ZN19fourth_order_doubleL6sin_K2E, i64 0, i64 71), i8* getelementptr inbounds ([19 x i8], [19 x i8]* @.str.974.49448, i32 0, i32 0))
  call void @_ZN8ap_fixedILi43ELin2EL9ap_q_mode5EL9ap_o_mode3ELi0EEC2EPKc(%"struct.ap_fixed<43, 4, AP_TRN, AP_WRAP, 0>"* getelementptr inbounds ([128 x %"struct.ap_fixed<43, 4, AP_TRN, AP_WRAP, 0>"], [128 x %"struct.ap_fixed<43, 4, AP_TRN, AP_WRAP, 0>"]* @_ZN19fourth_order_doubleL6sin_K2E, i64 0, i64 72), i8* getelementptr inbounds ([20 x i8], [20 x i8]* @.str.975.49449, i32 0, i32 0))
  call void @_ZN8ap_fixedILi43ELin2EL9ap_q_mode5EL9ap_o_mode3ELi0EEC2EPKc(%"struct.ap_fixed<43, 4, AP_TRN, AP_WRAP, 0>"* getelementptr inbounds ([128 x %"struct.ap_fixed<43, 4, AP_TRN, AP_WRAP, 0>"], [128 x %"struct.ap_fixed<43, 4, AP_TRN, AP_WRAP, 0>"]* @_ZN19fourth_order_doubleL6sin_K2E, i64 0, i64 73), i8* getelementptr inbounds ([18 x i8], [18 x i8]* @.str.976.49450, i32 0, i32 0))
  call void @_ZN8ap_fixedILi43ELin2EL9ap_q_mode5EL9ap_o_mode3ELi0EEC2EPKc(%"struct.ap_fixed<43, 4, AP_TRN, AP_WRAP, 0>"* getelementptr inbounds ([128 x %"struct.ap_fixed<43, 4, AP_TRN, AP_WRAP, 0>"], [128 x %"struct.ap_fixed<43, 4, AP_TRN, AP_WRAP, 0>"]* @_ZN19fourth_order_doubleL6sin_K2E, i64 0, i64 74), i8* getelementptr inbounds ([20 x i8], [20 x i8]* @.str.977.49451, i32 0, i32 0))
  call void @_ZN8ap_fixedILi43ELin2EL9ap_q_mode5EL9ap_o_mode3ELi0EEC2EPKc(%"struct.ap_fixed<43, 4, AP_TRN, AP_WRAP, 0>"* getelementptr inbounds ([128 x %"struct.ap_fixed<43, 4, AP_TRN, AP_WRAP, 0>"], [128 x %"struct.ap_fixed<43, 4, AP_TRN, AP_WRAP, 0>"]* @_ZN19fourth_order_doubleL6sin_K2E, i64 0, i64 75), i8* getelementptr inbounds ([20 x i8], [20 x i8]* @.str.978.49452, i32 0, i32 0))
  call void @_ZN8ap_fixedILi43ELin2EL9ap_q_mode5EL9ap_o_mode3ELi0EEC2EPKc(%"struct.ap_fixed<43, 4, AP_TRN, AP_WRAP, 0>"* getelementptr inbounds ([128 x %"struct.ap_fixed<43, 4, AP_TRN, AP_WRAP, 0>"], [128 x %"struct.ap_fixed<43, 4, AP_TRN, AP_WRAP, 0>"]* @_ZN19fourth_order_doubleL6sin_K2E, i64 0, i64 76), i8* getelementptr inbounds ([20 x i8], [20 x i8]* @.str.979.49453, i32 0, i32 0))
  call void @_ZN8ap_fixedILi43ELin2EL9ap_q_mode5EL9ap_o_mode3ELi0EEC2EPKc(%"struct.ap_fixed<43, 4, AP_TRN, AP_WRAP, 0>"* getelementptr inbounds ([128 x %"struct.ap_fixed<43, 4, AP_TRN, AP_WRAP, 0>"], [128 x %"struct.ap_fixed<43, 4, AP_TRN, AP_WRAP, 0>"]* @_ZN19fourth_order_doubleL6sin_K2E, i64 0, i64 77), i8* getelementptr inbounds ([20 x i8], [20 x i8]* @.str.980.49454, i32 0, i32 0))
  call void @_ZN8ap_fixedILi43ELin2EL9ap_q_mode5EL9ap_o_mode3ELi0EEC2EPKc(%"struct.ap_fixed<43, 4, AP_TRN, AP_WRAP, 0>"* getelementptr inbounds ([128 x %"struct.ap_fixed<43, 4, AP_TRN, AP_WRAP, 0>"], [128 x %"struct.ap_fixed<43, 4, AP_TRN, AP_WRAP, 0>"]* @_ZN19fourth_order_doubleL6sin_K2E, i64 0, i64 78), i8* getelementptr inbounds ([19 x i8], [19 x i8]* @.str.981.49455, i32 0, i32 0))
  call void @_ZN8ap_fixedILi43ELin2EL9ap_q_mode5EL9ap_o_mode3ELi0EEC2EPKc(%"struct.ap_fixed<43, 4, AP_TRN, AP_WRAP, 0>"* getelementptr inbounds ([128 x %"struct.ap_fixed<43, 4, AP_TRN, AP_WRAP, 0>"], [128 x %"struct.ap_fixed<43, 4, AP_TRN, AP_WRAP, 0>"]* @_ZN19fourth_order_doubleL6sin_K2E, i64 0, i64 79), i8* getelementptr inbounds ([20 x i8], [20 x i8]* @.str.982.49456, i32 0, i32 0))
  call void @_ZN8ap_fixedILi43ELin2EL9ap_q_mode5EL9ap_o_mode3ELi0EEC2EPKc(%"struct.ap_fixed<43, 4, AP_TRN, AP_WRAP, 0>"* getelementptr inbounds ([128 x %"struct.ap_fixed<43, 4, AP_TRN, AP_WRAP, 0>"], [128 x %"struct.ap_fixed<43, 4, AP_TRN, AP_WRAP, 0>"]* @_ZN19fourth_order_doubleL6sin_K2E, i64 0, i64 80), i8* getelementptr inbounds ([20 x i8], [20 x i8]* @.str.983.49457, i32 0, i32 0))
  call void @_ZN8ap_fixedILi43ELin2EL9ap_q_mode5EL9ap_o_mode3ELi0EEC2EPKc(%"struct.ap_fixed<43, 4, AP_TRN, AP_WRAP, 0>"* getelementptr inbounds ([128 x %"struct.ap_fixed<43, 4, AP_TRN, AP_WRAP, 0>"], [128 x %"struct.ap_fixed<43, 4, AP_TRN, AP_WRAP, 0>"]* @_ZN19fourth_order_doubleL6sin_K2E, i64 0, i64 81), i8* getelementptr inbounds ([19 x i8], [19 x i8]* @.str.984.49458, i32 0, i32 0))
  call void @_ZN8ap_fixedILi43ELin2EL9ap_q_mode5EL9ap_o_mode3ELi0EEC2EPKc(%"struct.ap_fixed<43, 4, AP_TRN, AP_WRAP, 0>"* getelementptr inbounds ([128 x %"struct.ap_fixed<43, 4, AP_TRN, AP_WRAP, 0>"], [128 x %"struct.ap_fixed<43, 4, AP_TRN, AP_WRAP, 0>"]* @_ZN19fourth_order_doubleL6sin_K2E, i64 0, i64 82), i8* getelementptr inbounds ([19 x i8], [19 x i8]* @.str.985.49459, i32 0, i32 0))
  call void @_ZN8ap_fixedILi43ELin2EL9ap_q_mode5EL9ap_o_mode3ELi0EEC2EPKc(%"struct.ap_fixed<43, 4, AP_TRN, AP_WRAP, 0>"* getelementptr inbounds ([128 x %"struct.ap_fixed<43, 4, AP_TRN, AP_WRAP, 0>"], [128 x %"struct.ap_fixed<43, 4, AP_TRN, AP_WRAP, 0>"]* @_ZN19fourth_order_doubleL6sin_K2E, i64 0, i64 83), i8* getelementptr inbounds ([20 x i8], [20 x i8]* @.str.986.49460, i32 0, i32 0))
  call void @_ZN8ap_fixedILi43ELin2EL9ap_q_mode5EL9ap_o_mode3ELi0EEC2EPKc(%"struct.ap_fixed<43, 4, AP_TRN, AP_WRAP, 0>"* getelementptr inbounds ([128 x %"struct.ap_fixed<43, 4, AP_TRN, AP_WRAP, 0>"], [128 x %"struct.ap_fixed<43, 4, AP_TRN, AP_WRAP, 0>"]* @_ZN19fourth_order_doubleL6sin_K2E, i64 0, i64 84), i8* getelementptr inbounds ([20 x i8], [20 x i8]* @.str.987.49461, i32 0, i32 0))
  call void @_ZN8ap_fixedILi43ELin2EL9ap_q_mode5EL9ap_o_mode3ELi0EEC2EPKc(%"struct.ap_fixed<43, 4, AP_TRN, AP_WRAP, 0>"* getelementptr inbounds ([128 x %"struct.ap_fixed<43, 4, AP_TRN, AP_WRAP, 0>"], [128 x %"struct.ap_fixed<43, 4, AP_TRN, AP_WRAP, 0>"]* @_ZN19fourth_order_doubleL6sin_K2E, i64 0, i64 85), i8* getelementptr inbounds ([20 x i8], [20 x i8]* @.str.988.49462, i32 0, i32 0))
  call void @_ZN8ap_fixedILi43ELin2EL9ap_q_mode5EL9ap_o_mode3ELi0EEC2EPKc(%"struct.ap_fixed<43, 4, AP_TRN, AP_WRAP, 0>"* getelementptr inbounds ([128 x %"struct.ap_fixed<43, 4, AP_TRN, AP_WRAP, 0>"], [128 x %"struct.ap_fixed<43, 4, AP_TRN, AP_WRAP, 0>"]* @_ZN19fourth_order_doubleL6sin_K2E, i64 0, i64 86), i8* getelementptr inbounds ([19 x i8], [19 x i8]* @.str.989.49463, i32 0, i32 0))
  call void @_ZN8ap_fixedILi43ELin2EL9ap_q_mode5EL9ap_o_mode3ELi0EEC2EPKc(%"struct.ap_fixed<43, 4, AP_TRN, AP_WRAP, 0>"* getelementptr inbounds ([128 x %"struct.ap_fixed<43, 4, AP_TRN, AP_WRAP, 0>"], [128 x %"struct.ap_fixed<43, 4, AP_TRN, AP_WRAP, 0>"]* @_ZN19fourth_order_doubleL6sin_K2E, i64 0, i64 87), i8* getelementptr inbounds ([20 x i8], [20 x i8]* @.str.990.49464, i32 0, i32 0))
  call void @_ZN8ap_fixedILi43ELin2EL9ap_q_mode5EL9ap_o_mode3ELi0EEC2EPKc(%"struct.ap_fixed<43, 4, AP_TRN, AP_WRAP, 0>"* getelementptr inbounds ([128 x %"struct.ap_fixed<43, 4, AP_TRN, AP_WRAP, 0>"], [128 x %"struct.ap_fixed<43, 4, AP_TRN, AP_WRAP, 0>"]* @_ZN19fourth_order_doubleL6sin_K2E, i64 0, i64 88), i8* getelementptr inbounds ([20 x i8], [20 x i8]* @.str.991.49465, i32 0, i32 0))
  call void @_ZN8ap_fixedILi43ELin2EL9ap_q_mode5EL9ap_o_mode3ELi0EEC2EPKc(%"struct.ap_fixed<43, 4, AP_TRN, AP_WRAP, 0>"* getelementptr inbounds ([128 x %"struct.ap_fixed<43, 4, AP_TRN, AP_WRAP, 0>"], [128 x %"struct.ap_fixed<43, 4, AP_TRN, AP_WRAP, 0>"]* @_ZN19fourth_order_doubleL6sin_K2E, i64 0, i64 89), i8* getelementptr inbounds ([20 x i8], [20 x i8]* @.str.992.49466, i32 0, i32 0))
  call void @_ZN8ap_fixedILi43ELin2EL9ap_q_mode5EL9ap_o_mode3ELi0EEC2EPKc(%"struct.ap_fixed<43, 4, AP_TRN, AP_WRAP, 0>"* getelementptr inbounds ([128 x %"struct.ap_fixed<43, 4, AP_TRN, AP_WRAP, 0>"], [128 x %"struct.ap_fixed<43, 4, AP_TRN, AP_WRAP, 0>"]* @_ZN19fourth_order_doubleL6sin_K2E, i64 0, i64 90), i8* getelementptr inbounds ([19 x i8], [19 x i8]* @.str.993.49467, i32 0, i32 0))
  call void @_ZN8ap_fixedILi43ELin2EL9ap_q_mode5EL9ap_o_mode3ELi0EEC2EPKc(%"struct.ap_fixed<43, 4, AP_TRN, AP_WRAP, 0>"* getelementptr inbounds ([128 x %"struct.ap_fixed<43, 4, AP_TRN, AP_WRAP, 0>"], [128 x %"struct.ap_fixed<43, 4, AP_TRN, AP_WRAP, 0>"]* @_ZN19fourth_order_doubleL6sin_K2E, i64 0, i64 91), i8* getelementptr inbounds ([20 x i8], [20 x i8]* @.str.994.49468, i32 0, i32 0))
  call void @_ZN8ap_fixedILi43ELin2EL9ap_q_mode5EL9ap_o_mode3ELi0EEC2EPKc(%"struct.ap_fixed<43, 4, AP_TRN, AP_WRAP, 0>"* getelementptr inbounds ([128 x %"struct.ap_fixed<43, 4, AP_TRN, AP_WRAP, 0>"], [128 x %"struct.ap_fixed<43, 4, AP_TRN, AP_WRAP, 0>"]* @_ZN19fourth_order_doubleL6sin_K2E, i64 0, i64 92), i8* getelementptr inbounds ([20 x i8], [20 x i8]* @.str.995.49469, i32 0, i32 0))
  call void @_ZN8ap_fixedILi43ELin2EL9ap_q_mode5EL9ap_o_mode3ELi0EEC2EPKc(%"struct.ap_fixed<43, 4, AP_TRN, AP_WRAP, 0>"* getelementptr inbounds ([128 x %"struct.ap_fixed<43, 4, AP_TRN, AP_WRAP, 0>"], [128 x %"struct.ap_fixed<43, 4, AP_TRN, AP_WRAP, 0>"]* @_ZN19fourth_order_doubleL6sin_K2E, i64 0, i64 93), i8* getelementptr inbounds ([19 x i8], [19 x i8]* @.str.996.49470, i32 0, i32 0))
  call void @_ZN8ap_fixedILi43ELin2EL9ap_q_mode5EL9ap_o_mode3ELi0EEC2EPKc(%"struct.ap_fixed<43, 4, AP_TRN, AP_WRAP, 0>"* getelementptr inbounds ([128 x %"struct.ap_fixed<43, 4, AP_TRN, AP_WRAP, 0>"], [128 x %"struct.ap_fixed<43, 4, AP_TRN, AP_WRAP, 0>"]* @_ZN19fourth_order_doubleL6sin_K2E, i64 0, i64 94), i8* getelementptr inbounds ([20 x i8], [20 x i8]* @.str.997.49471, i32 0, i32 0))
  call void @_ZN8ap_fixedILi43ELin2EL9ap_q_mode5EL9ap_o_mode3ELi0EEC2EPKc(%"struct.ap_fixed<43, 4, AP_TRN, AP_WRAP, 0>"* getelementptr inbounds ([128 x %"struct.ap_fixed<43, 4, AP_TRN, AP_WRAP, 0>"], [128 x %"struct.ap_fixed<43, 4, AP_TRN, AP_WRAP, 0>"]* @_ZN19fourth_order_doubleL6sin_K2E, i64 0, i64 95), i8* getelementptr inbounds ([20 x i8], [20 x i8]* @.str.998.49472, i32 0, i32 0))
  call void @_ZN8ap_fixedILi43ELin2EL9ap_q_mode5EL9ap_o_mode3ELi0EEC2EPKc(%"struct.ap_fixed<43, 4, AP_TRN, AP_WRAP, 0>"* getelementptr inbounds ([128 x %"struct.ap_fixed<43, 4, AP_TRN, AP_WRAP, 0>"], [128 x %"struct.ap_fixed<43, 4, AP_TRN, AP_WRAP, 0>"]* @_ZN19fourth_order_doubleL6sin_K2E, i64 0, i64 96), i8* getelementptr inbounds ([19 x i8], [19 x i8]* @.str.999.49473, i32 0, i32 0))
  call void @_ZN8ap_fixedILi43ELin2EL9ap_q_mode5EL9ap_o_mode3ELi0EEC2EPKc(%"struct.ap_fixed<43, 4, AP_TRN, AP_WRAP, 0>"* getelementptr inbounds ([128 x %"struct.ap_fixed<43, 4, AP_TRN, AP_WRAP, 0>"], [128 x %"struct.ap_fixed<43, 4, AP_TRN, AP_WRAP, 0>"]* @_ZN19fourth_order_doubleL6sin_K2E, i64 0, i64 97), i8* getelementptr inbounds ([19 x i8], [19 x i8]* @.str.1000.49474, i32 0, i32 0))
  call void @_ZN8ap_fixedILi43ELin2EL9ap_q_mode5EL9ap_o_mode3ELi0EEC2EPKc(%"struct.ap_fixed<43, 4, AP_TRN, AP_WRAP, 0>"* getelementptr inbounds ([128 x %"struct.ap_fixed<43, 4, AP_TRN, AP_WRAP, 0>"], [128 x %"struct.ap_fixed<43, 4, AP_TRN, AP_WRAP, 0>"]* @_ZN19fourth_order_doubleL6sin_K2E, i64 0, i64 98), i8* getelementptr inbounds ([20 x i8], [20 x i8]* @.str.1001.49475, i32 0, i32 0))
  call void @_ZN8ap_fixedILi43ELin2EL9ap_q_mode5EL9ap_o_mode3ELi0EEC2EPKc(%"struct.ap_fixed<43, 4, AP_TRN, AP_WRAP, 0>"* getelementptr inbounds ([128 x %"struct.ap_fixed<43, 4, AP_TRN, AP_WRAP, 0>"], [128 x %"struct.ap_fixed<43, 4, AP_TRN, AP_WRAP, 0>"]* @_ZN19fourth_order_doubleL6sin_K2E, i64 0, i64 99), i8* getelementptr inbounds ([19 x i8], [19 x i8]* @.str.1002.49476, i32 0, i32 0))
  call void @_ZN8ap_fixedILi43ELin2EL9ap_q_mode5EL9ap_o_mode3ELi0EEC2EPKc(%"struct.ap_fixed<43, 4, AP_TRN, AP_WRAP, 0>"* getelementptr inbounds ([128 x %"struct.ap_fixed<43, 4, AP_TRN, AP_WRAP, 0>"], [128 x %"struct.ap_fixed<43, 4, AP_TRN, AP_WRAP, 0>"]* @_ZN19fourth_order_doubleL6sin_K2E, i64 0, i64 100), i8* getelementptr inbounds ([20 x i8], [20 x i8]* @.str.1003.49477, i32 0, i32 0))
  call void @_ZN8ap_fixedILi43ELin2EL9ap_q_mode5EL9ap_o_mode3ELi0EEC2EPKc(%"struct.ap_fixed<43, 4, AP_TRN, AP_WRAP, 0>"* getelementptr inbounds ([128 x %"struct.ap_fixed<43, 4, AP_TRN, AP_WRAP, 0>"], [128 x %"struct.ap_fixed<43, 4, AP_TRN, AP_WRAP, 0>"]* @_ZN19fourth_order_doubleL6sin_K2E, i64 0, i64 101), i8* getelementptr inbounds ([20 x i8], [20 x i8]* @.str.1004.49478, i32 0, i32 0))
  call void @_ZN8ap_fixedILi43ELin2EL9ap_q_mode5EL9ap_o_mode3ELi0EEC2EPKc(%"struct.ap_fixed<43, 4, AP_TRN, AP_WRAP, 0>"* getelementptr inbounds ([128 x %"struct.ap_fixed<43, 4, AP_TRN, AP_WRAP, 0>"], [128 x %"struct.ap_fixed<43, 4, AP_TRN, AP_WRAP, 0>"]* @_ZN19fourth_order_doubleL6sin_K2E, i64 0, i64 102), i8* getelementptr inbounds ([19 x i8], [19 x i8]* @.str.1005.49479, i32 0, i32 0))
  call void @_ZN8ap_fixedILi43ELin2EL9ap_q_mode5EL9ap_o_mode3ELi0EEC2EPKc(%"struct.ap_fixed<43, 4, AP_TRN, AP_WRAP, 0>"* getelementptr inbounds ([128 x %"struct.ap_fixed<43, 4, AP_TRN, AP_WRAP, 0>"], [128 x %"struct.ap_fixed<43, 4, AP_TRN, AP_WRAP, 0>"]* @_ZN19fourth_order_doubleL6sin_K2E, i64 0, i64 103), i8* getelementptr inbounds ([19 x i8], [19 x i8]* @.str.1006.49480, i32 0, i32 0))
  call void @_ZN8ap_fixedILi43ELin2EL9ap_q_mode5EL9ap_o_mode3ELi0EEC2EPKc(%"struct.ap_fixed<43, 4, AP_TRN, AP_WRAP, 0>"* getelementptr inbounds ([128 x %"struct.ap_fixed<43, 4, AP_TRN, AP_WRAP, 0>"], [128 x %"struct.ap_fixed<43, 4, AP_TRN, AP_WRAP, 0>"]* @_ZN19fourth_order_doubleL6sin_K2E, i64 0, i64 104), i8* getelementptr inbounds ([19 x i8], [19 x i8]* @.str.1007.49481, i32 0, i32 0))
  call void @_ZN8ap_fixedILi43ELin2EL9ap_q_mode5EL9ap_o_mode3ELi0EEC2EPKc(%"struct.ap_fixed<43, 4, AP_TRN, AP_WRAP, 0>"* getelementptr inbounds ([128 x %"struct.ap_fixed<43, 4, AP_TRN, AP_WRAP, 0>"], [128 x %"struct.ap_fixed<43, 4, AP_TRN, AP_WRAP, 0>"]* @_ZN19fourth_order_doubleL6sin_K2E, i64 0, i64 105), i8* getelementptr inbounds ([20 x i8], [20 x i8]* @.str.1008.49482, i32 0, i32 0))
  call void @_ZN8ap_fixedILi43ELin2EL9ap_q_mode5EL9ap_o_mode3ELi0EEC2EPKc(%"struct.ap_fixed<43, 4, AP_TRN, AP_WRAP, 0>"* getelementptr inbounds ([128 x %"struct.ap_fixed<43, 4, AP_TRN, AP_WRAP, 0>"], [128 x %"struct.ap_fixed<43, 4, AP_TRN, AP_WRAP, 0>"]* @_ZN19fourth_order_doubleL6sin_K2E, i64 0, i64 106), i8* getelementptr inbounds ([19 x i8], [19 x i8]* @.str.1009.49483, i32 0, i32 0))
  call void @_ZN8ap_fixedILi43ELin2EL9ap_q_mode5EL9ap_o_mode3ELi0EEC2EPKc(%"struct.ap_fixed<43, 4, AP_TRN, AP_WRAP, 0>"* getelementptr inbounds ([128 x %"struct.ap_fixed<43, 4, AP_TRN, AP_WRAP, 0>"], [128 x %"struct.ap_fixed<43, 4, AP_TRN, AP_WRAP, 0>"]* @_ZN19fourth_order_doubleL6sin_K2E, i64 0, i64 107), i8* getelementptr inbounds ([20 x i8], [20 x i8]* @.str.1010.49484, i32 0, i32 0))
  call void @_ZN8ap_fixedILi43ELin2EL9ap_q_mode5EL9ap_o_mode3ELi0EEC2EPKc(%"struct.ap_fixed<43, 4, AP_TRN, AP_WRAP, 0>"* getelementptr inbounds ([128 x %"struct.ap_fixed<43, 4, AP_TRN, AP_WRAP, 0>"], [128 x %"struct.ap_fixed<43, 4, AP_TRN, AP_WRAP, 0>"]* @_ZN19fourth_order_doubleL6sin_K2E, i64 0, i64 108), i8* getelementptr inbounds ([20 x i8], [20 x i8]* @.str.1011.49485, i32 0, i32 0))
  call void @_ZN8ap_fixedILi43ELin2EL9ap_q_mode5EL9ap_o_mode3ELi0EEC2EPKc(%"struct.ap_fixed<43, 4, AP_TRN, AP_WRAP, 0>"* getelementptr inbounds ([128 x %"struct.ap_fixed<43, 4, AP_TRN, AP_WRAP, 0>"], [128 x %"struct.ap_fixed<43, 4, AP_TRN, AP_WRAP, 0>"]* @_ZN19fourth_order_doubleL6sin_K2E, i64 0, i64 109), i8* getelementptr inbounds ([20 x i8], [20 x i8]* @.str.1012.49486, i32 0, i32 0))
  call void @_ZN8ap_fixedILi43ELin2EL9ap_q_mode5EL9ap_o_mode3ELi0EEC2EPKc(%"struct.ap_fixed<43, 4, AP_TRN, AP_WRAP, 0>"* getelementptr inbounds ([128 x %"struct.ap_fixed<43, 4, AP_TRN, AP_WRAP, 0>"], [128 x %"struct.ap_fixed<43, 4, AP_TRN, AP_WRAP, 0>"]* @_ZN19fourth_order_doubleL6sin_K2E, i64 0, i64 110), i8* getelementptr inbounds ([20 x i8], [20 x i8]* @.str.1013.49487, i32 0, i32 0))
  call void @_ZN8ap_fixedILi43ELin2EL9ap_q_mode5EL9ap_o_mode3ELi0EEC2EPKc(%"struct.ap_fixed<43, 4, AP_TRN, AP_WRAP, 0>"* getelementptr inbounds ([128 x %"struct.ap_fixed<43, 4, AP_TRN, AP_WRAP, 0>"], [128 x %"struct.ap_fixed<43, 4, AP_TRN, AP_WRAP, 0>"]* @_ZN19fourth_order_doubleL6sin_K2E, i64 0, i64 111), i8* getelementptr inbounds ([20 x i8], [20 x i8]* @.str.1014.49488, i32 0, i32 0))
  call void @_ZN8ap_fixedILi43ELin2EL9ap_q_mode5EL9ap_o_mode3ELi0EEC2EPKc(%"struct.ap_fixed<43, 4, AP_TRN, AP_WRAP, 0>"* getelementptr inbounds ([128 x %"struct.ap_fixed<43, 4, AP_TRN, AP_WRAP, 0>"], [128 x %"struct.ap_fixed<43, 4, AP_TRN, AP_WRAP, 0>"]* @_ZN19fourth_order_doubleL6sin_K2E, i64 0, i64 112), i8* getelementptr inbounds ([20 x i8], [20 x i8]* @.str.1015.49489, i32 0, i32 0))
  call void @_ZN8ap_fixedILi43ELin2EL9ap_q_mode5EL9ap_o_mode3ELi0EEC2EPKc(%"struct.ap_fixed<43, 4, AP_TRN, AP_WRAP, 0>"* getelementptr inbounds ([128 x %"struct.ap_fixed<43, 4, AP_TRN, AP_WRAP, 0>"], [128 x %"struct.ap_fixed<43, 4, AP_TRN, AP_WRAP, 0>"]* @_ZN19fourth_order_doubleL6sin_K2E, i64 0, i64 113), i8* getelementptr inbounds ([19 x i8], [19 x i8]* @.str.1016.49490, i32 0, i32 0))
  call void @_ZN8ap_fixedILi43ELin2EL9ap_q_mode5EL9ap_o_mode3ELi0EEC2EPKc(%"struct.ap_fixed<43, 4, AP_TRN, AP_WRAP, 0>"* getelementptr inbounds ([128 x %"struct.ap_fixed<43, 4, AP_TRN, AP_WRAP, 0>"], [128 x %"struct.ap_fixed<43, 4, AP_TRN, AP_WRAP, 0>"]* @_ZN19fourth_order_doubleL6sin_K2E, i64 0, i64 114), i8* getelementptr inbounds ([19 x i8], [19 x i8]* @.str.1017.49491, i32 0, i32 0))
  call void @_ZN8ap_fixedILi43ELin2EL9ap_q_mode5EL9ap_o_mode3ELi0EEC2EPKc(%"struct.ap_fixed<43, 4, AP_TRN, AP_WRAP, 0>"* getelementptr inbounds ([128 x %"struct.ap_fixed<43, 4, AP_TRN, AP_WRAP, 0>"], [128 x %"struct.ap_fixed<43, 4, AP_TRN, AP_WRAP, 0>"]* @_ZN19fourth_order_doubleL6sin_K2E, i64 0, i64 115), i8* getelementptr inbounds ([19 x i8], [19 x i8]* @.str.1018.49492, i32 0, i32 0))
  call void @_ZN8ap_fixedILi43ELin2EL9ap_q_mode5EL9ap_o_mode3ELi0EEC2EPKc(%"struct.ap_fixed<43, 4, AP_TRN, AP_WRAP, 0>"* getelementptr inbounds ([128 x %"struct.ap_fixed<43, 4, AP_TRN, AP_WRAP, 0>"], [128 x %"struct.ap_fixed<43, 4, AP_TRN, AP_WRAP, 0>"]* @_ZN19fourth_order_doubleL6sin_K2E, i64 0, i64 116), i8* getelementptr inbounds ([19 x i8], [19 x i8]* @.str.1019.49493, i32 0, i32 0))
  call void @_ZN8ap_fixedILi43ELin2EL9ap_q_mode5EL9ap_o_mode3ELi0EEC2EPKc(%"struct.ap_fixed<43, 4, AP_TRN, AP_WRAP, 0>"* getelementptr inbounds ([128 x %"struct.ap_fixed<43, 4, AP_TRN, AP_WRAP, 0>"], [128 x %"struct.ap_fixed<43, 4, AP_TRN, AP_WRAP, 0>"]* @_ZN19fourth_order_doubleL6sin_K2E, i64 0, i64 117), i8* getelementptr inbounds ([20 x i8], [20 x i8]* @.str.1020.49494, i32 0, i32 0))
  call void @_ZN8ap_fixedILi43ELin2EL9ap_q_mode5EL9ap_o_mode3ELi0EEC2EPKc(%"struct.ap_fixed<43, 4, AP_TRN, AP_WRAP, 0>"* getelementptr inbounds ([128 x %"struct.ap_fixed<43, 4, AP_TRN, AP_WRAP, 0>"], [128 x %"struct.ap_fixed<43, 4, AP_TRN, AP_WRAP, 0>"]* @_ZN19fourth_order_doubleL6sin_K2E, i64 0, i64 118), i8* getelementptr inbounds ([20 x i8], [20 x i8]* @.str.1021.49495, i32 0, i32 0))
  call void @_ZN8ap_fixedILi43ELin2EL9ap_q_mode5EL9ap_o_mode3ELi0EEC2EPKc(%"struct.ap_fixed<43, 4, AP_TRN, AP_WRAP, 0>"* getelementptr inbounds ([128 x %"struct.ap_fixed<43, 4, AP_TRN, AP_WRAP, 0>"], [128 x %"struct.ap_fixed<43, 4, AP_TRN, AP_WRAP, 0>"]* @_ZN19fourth_order_doubleL6sin_K2E, i64 0, i64 119), i8* getelementptr inbounds ([20 x i8], [20 x i8]* @.str.1022.49496, i32 0, i32 0))
  call void @_ZN8ap_fixedILi43ELin2EL9ap_q_mode5EL9ap_o_mode3ELi0EEC2EPKc(%"struct.ap_fixed<43, 4, AP_TRN, AP_WRAP, 0>"* getelementptr inbounds ([128 x %"struct.ap_fixed<43, 4, AP_TRN, AP_WRAP, 0>"], [128 x %"struct.ap_fixed<43, 4, AP_TRN, AP_WRAP, 0>"]* @_ZN19fourth_order_doubleL6sin_K2E, i64 0, i64 120), i8* getelementptr inbounds ([20 x i8], [20 x i8]* @.str.1023.49497, i32 0, i32 0))
  call void @_ZN8ap_fixedILi43ELin2EL9ap_q_mode5EL9ap_o_mode3ELi0EEC2EPKc(%"struct.ap_fixed<43, 4, AP_TRN, AP_WRAP, 0>"* getelementptr inbounds ([128 x %"struct.ap_fixed<43, 4, AP_TRN, AP_WRAP, 0>"], [128 x %"struct.ap_fixed<43, 4, AP_TRN, AP_WRAP, 0>"]* @_ZN19fourth_order_doubleL6sin_K2E, i64 0, i64 121), i8* getelementptr inbounds ([20 x i8], [20 x i8]* @.str.1024.49498, i32 0, i32 0))
  call void @_ZN8ap_fixedILi43ELin2EL9ap_q_mode5EL9ap_o_mode3ELi0EEC2EPKc(%"struct.ap_fixed<43, 4, AP_TRN, AP_WRAP, 0>"* getelementptr inbounds ([128 x %"struct.ap_fixed<43, 4, AP_TRN, AP_WRAP, 0>"], [128 x %"struct.ap_fixed<43, 4, AP_TRN, AP_WRAP, 0>"]* @_ZN19fourth_order_doubleL6sin_K2E, i64 0, i64 122), i8* getelementptr inbounds ([19 x i8], [19 x i8]* @.str.1025.49499, i32 0, i32 0))
  call void @_ZN8ap_fixedILi43ELin2EL9ap_q_mode5EL9ap_o_mode3ELi0EEC2EPKc(%"struct.ap_fixed<43, 4, AP_TRN, AP_WRAP, 0>"* getelementptr inbounds ([128 x %"struct.ap_fixed<43, 4, AP_TRN, AP_WRAP, 0>"], [128 x %"struct.ap_fixed<43, 4, AP_TRN, AP_WRAP, 0>"]* @_ZN19fourth_order_doubleL6sin_K2E, i64 0, i64 123), i8* getelementptr inbounds ([18 x i8], [18 x i8]* @.str.1026.49500, i32 0, i32 0))
  call void @_ZN8ap_fixedILi43ELin2EL9ap_q_mode5EL9ap_o_mode3ELi0EEC2EPKc(%"struct.ap_fixed<43, 4, AP_TRN, AP_WRAP, 0>"* getelementptr inbounds ([128 x %"struct.ap_fixed<43, 4, AP_TRN, AP_WRAP, 0>"], [128 x %"struct.ap_fixed<43, 4, AP_TRN, AP_WRAP, 0>"]* @_ZN19fourth_order_doubleL6sin_K2E, i64 0, i64 124), i8* getelementptr inbounds ([20 x i8], [20 x i8]* @.str.1027.49501, i32 0, i32 0))
  call void @_ZN8ap_fixedILi43ELin2EL9ap_q_mode5EL9ap_o_mode3ELi0EEC2EPKc(%"struct.ap_fixed<43, 4, AP_TRN, AP_WRAP, 0>"* getelementptr inbounds ([128 x %"struct.ap_fixed<43, 4, AP_TRN, AP_WRAP, 0>"], [128 x %"struct.ap_fixed<43, 4, AP_TRN, AP_WRAP, 0>"]* @_ZN19fourth_order_doubleL6sin_K2E, i64 0, i64 125), i8* getelementptr inbounds ([20 x i8], [20 x i8]* @.str.1028.49502, i32 0, i32 0))
  call void @_ZN8ap_fixedILi43ELin2EL9ap_q_mode5EL9ap_o_mode3ELi0EEC2EPKc(%"struct.ap_fixed<43, 4, AP_TRN, AP_WRAP, 0>"* getelementptr inbounds ([128 x %"struct.ap_fixed<43, 4, AP_TRN, AP_WRAP, 0>"], [128 x %"struct.ap_fixed<43, 4, AP_TRN, AP_WRAP, 0>"]* @_ZN19fourth_order_doubleL6sin_K2E, i64 0, i64 126), i8* getelementptr inbounds ([19 x i8], [19 x i8]* @.str.1029.49503, i32 0, i32 0))
  call void @_ZN8ap_fixedILi43ELin2EL9ap_q_mode5EL9ap_o_mode3ELi0EEC2EPKc(%"struct.ap_fixed<43, 4, AP_TRN, AP_WRAP, 0>"* getelementptr inbounds ([128 x %"struct.ap_fixed<43, 4, AP_TRN, AP_WRAP, 0>"], [128 x %"struct.ap_fixed<43, 4, AP_TRN, AP_WRAP, 0>"]* @_ZN19fourth_order_doubleL6sin_K2E, i64 0, i64 127), i8* getelementptr inbounds ([19 x i8], [19 x i8]* @.str.1030.49504, i32 0, i32 0))
  ret void
}

; Function Attrs: nounwind
define internal void @__cxx_global_var_init.1031() #0 section ".text.startup" {
entry:
  call void @_ZN8ap_fixedILi33ELin5EL9ap_q_mode5EL9ap_o_mode3ELi0EEC2EPKc(%"struct.ap_int<33>.94"* getelementptr inbounds ([128 x %"struct.ap_int<33>.94"], [128 x %"struct.ap_int<33>.94"]* @_ZN19fourth_order_doubleL6sin_K3E, i64 0, i64 0), i8* getelementptr inbounds ([10 x i8], [10 x i8]* @.str.1032.49253, i32 0, i32 0))
  call void @_ZN8ap_fixedILi33ELin5EL9ap_q_mode5EL9ap_o_mode3ELi0EEC2EPKc(%"struct.ap_int<33>.94"* getelementptr inbounds ([128 x %"struct.ap_int<33>.94"], [128 x %"struct.ap_int<33>.94"]* @_ZN19fourth_order_doubleL6sin_K3E, i64 0, i64 1), i8* getelementptr inbounds ([14 x i8], [14 x i8]* @.str.1033.49254, i32 0, i32 0))
  call void @_ZN8ap_fixedILi33ELin5EL9ap_q_mode5EL9ap_o_mode3ELi0EEC2EPKc(%"struct.ap_int<33>.94"* getelementptr inbounds ([128 x %"struct.ap_int<33>.94"], [128 x %"struct.ap_int<33>.94"]* @_ZN19fourth_order_doubleL6sin_K3E, i64 0, i64 2), i8* getelementptr inbounds ([15 x i8], [15 x i8]* @.str.1034.49255, i32 0, i32 0))
  call void @_ZN8ap_fixedILi33ELin5EL9ap_q_mode5EL9ap_o_mode3ELi0EEC2EPKc(%"struct.ap_int<33>.94"* getelementptr inbounds ([128 x %"struct.ap_int<33>.94"], [128 x %"struct.ap_int<33>.94"]* @_ZN19fourth_order_doubleL6sin_K3E, i64 0, i64 3), i8* getelementptr inbounds ([15 x i8], [15 x i8]* @.str.1035.49256, i32 0, i32 0))
  call void @_ZN8ap_fixedILi33ELin5EL9ap_q_mode5EL9ap_o_mode3ELi0EEC2EPKc(%"struct.ap_int<33>.94"* getelementptr inbounds ([128 x %"struct.ap_int<33>.94"], [128 x %"struct.ap_int<33>.94"]* @_ZN19fourth_order_doubleL6sin_K3E, i64 0, i64 4), i8* getelementptr inbounds ([16 x i8], [16 x i8]* @.str.1036.49257, i32 0, i32 0))
  call void @_ZN8ap_fixedILi33ELin5EL9ap_q_mode5EL9ap_o_mode3ELi0EEC2EPKc(%"struct.ap_int<33>.94"* getelementptr inbounds ([128 x %"struct.ap_int<33>.94"], [128 x %"struct.ap_int<33>.94"]* @_ZN19fourth_order_doubleL6sin_K3E, i64 0, i64 5), i8* getelementptr inbounds ([16 x i8], [16 x i8]* @.str.1037.49258, i32 0, i32 0))
  call void @_ZN8ap_fixedILi33ELin5EL9ap_q_mode5EL9ap_o_mode3ELi0EEC2EPKc(%"struct.ap_int<33>.94"* getelementptr inbounds ([128 x %"struct.ap_int<33>.94"], [128 x %"struct.ap_int<33>.94"]* @_ZN19fourth_order_doubleL6sin_K3E, i64 0, i64 6), i8* getelementptr inbounds ([16 x i8], [16 x i8]* @.str.1038.49259, i32 0, i32 0))
  call void @_ZN8ap_fixedILi33ELin5EL9ap_q_mode5EL9ap_o_mode3ELi0EEC2EPKc(%"struct.ap_int<33>.94"* getelementptr inbounds ([128 x %"struct.ap_int<33>.94"], [128 x %"struct.ap_int<33>.94"]* @_ZN19fourth_order_doubleL6sin_K3E, i64 0, i64 7), i8* getelementptr inbounds ([16 x i8], [16 x i8]* @.str.1039.49260, i32 0, i32 0))
  call void @_ZN8ap_fixedILi33ELin5EL9ap_q_mode5EL9ap_o_mode3ELi0EEC2EPKc(%"struct.ap_int<33>.94"* getelementptr inbounds ([128 x %"struct.ap_int<33>.94"], [128 x %"struct.ap_int<33>.94"]* @_ZN19fourth_order_doubleL6sin_K3E, i64 0, i64 8), i8* getelementptr inbounds ([16 x i8], [16 x i8]* @.str.1040.49261, i32 0, i32 0))
  call void @_ZN8ap_fixedILi33ELin5EL9ap_q_mode5EL9ap_o_mode3ELi0EEC2EPKc(%"struct.ap_int<33>.94"* getelementptr inbounds ([128 x %"struct.ap_int<33>.94"], [128 x %"struct.ap_int<33>.94"]* @_ZN19fourth_order_doubleL6sin_K3E, i64 0, i64 9), i8* getelementptr inbounds ([16 x i8], [16 x i8]* @.str.1041.49262, i32 0, i32 0))
  call void @_ZN8ap_fixedILi33ELin5EL9ap_q_mode5EL9ap_o_mode3ELi0EEC2EPKc(%"struct.ap_int<33>.94"* getelementptr inbounds ([128 x %"struct.ap_int<33>.94"], [128 x %"struct.ap_int<33>.94"]* @_ZN19fourth_order_doubleL6sin_K3E, i64 0, i64 10), i8* getelementptr inbounds ([16 x i8], [16 x i8]* @.str.1042.49263, i32 0, i32 0))
  call void @_ZN8ap_fixedILi33ELin5EL9ap_q_mode5EL9ap_o_mode3ELi0EEC2EPKc(%"struct.ap_int<33>.94"* getelementptr inbounds ([128 x %"struct.ap_int<33>.94"], [128 x %"struct.ap_int<33>.94"]* @_ZN19fourth_order_doubleL6sin_K3E, i64 0, i64 11), i8* getelementptr inbounds ([15 x i8], [15 x i8]* @.str.1043.49264, i32 0, i32 0))
  call void @_ZN8ap_fixedILi33ELin5EL9ap_q_mode5EL9ap_o_mode3ELi0EEC2EPKc(%"struct.ap_int<33>.94"* getelementptr inbounds ([128 x %"struct.ap_int<33>.94"], [128 x %"struct.ap_int<33>.94"]* @_ZN19fourth_order_doubleL6sin_K3E, i64 0, i64 12), i8* getelementptr inbounds ([15 x i8], [15 x i8]* @.str.1044.48302, i32 0, i32 0))
  call void @_ZN8ap_fixedILi33ELin5EL9ap_q_mode5EL9ap_o_mode3ELi0EEC2EPKc(%"struct.ap_int<33>.94"* getelementptr inbounds ([128 x %"struct.ap_int<33>.94"], [128 x %"struct.ap_int<33>.94"]* @_ZN19fourth_order_doubleL6sin_K3E, i64 0, i64 13), i8* getelementptr inbounds ([15 x i8], [15 x i8]* @.str.1045.49265, i32 0, i32 0))
  call void @_ZN8ap_fixedILi33ELin5EL9ap_q_mode5EL9ap_o_mode3ELi0EEC2EPKc(%"struct.ap_int<33>.94"* getelementptr inbounds ([128 x %"struct.ap_int<33>.94"], [128 x %"struct.ap_int<33>.94"]* @_ZN19fourth_order_doubleL6sin_K3E, i64 0, i64 14), i8* getelementptr inbounds ([16 x i8], [16 x i8]* @.str.1046.49266, i32 0, i32 0))
  call void @_ZN8ap_fixedILi33ELin5EL9ap_q_mode5EL9ap_o_mode3ELi0EEC2EPKc(%"struct.ap_int<33>.94"* getelementptr inbounds ([128 x %"struct.ap_int<33>.94"], [128 x %"struct.ap_int<33>.94"]* @_ZN19fourth_order_doubleL6sin_K3E, i64 0, i64 15), i8* getelementptr inbounds ([16 x i8], [16 x i8]* @.str.1047.49267, i32 0, i32 0))
  call void @_ZN8ap_fixedILi33ELin5EL9ap_q_mode5EL9ap_o_mode3ELi0EEC2EPKc(%"struct.ap_int<33>.94"* getelementptr inbounds ([128 x %"struct.ap_int<33>.94"], [128 x %"struct.ap_int<33>.94"]* @_ZN19fourth_order_doubleL6sin_K3E, i64 0, i64 16), i8* getelementptr inbounds ([16 x i8], [16 x i8]* @.str.1048.49268, i32 0, i32 0))
  call void @_ZN8ap_fixedILi33ELin5EL9ap_q_mode5EL9ap_o_mode3ELi0EEC2EPKc(%"struct.ap_int<33>.94"* getelementptr inbounds ([128 x %"struct.ap_int<33>.94"], [128 x %"struct.ap_int<33>.94"]* @_ZN19fourth_order_doubleL6sin_K3E, i64 0, i64 17), i8* getelementptr inbounds ([16 x i8], [16 x i8]* @.str.1049.49269, i32 0, i32 0))
  call void @_ZN8ap_fixedILi33ELin5EL9ap_q_mode5EL9ap_o_mode3ELi0EEC2EPKc(%"struct.ap_int<33>.94"* getelementptr inbounds ([128 x %"struct.ap_int<33>.94"], [128 x %"struct.ap_int<33>.94"]* @_ZN19fourth_order_doubleL6sin_K3E, i64 0, i64 18), i8* getelementptr inbounds ([16 x i8], [16 x i8]* @.str.1050.49270, i32 0, i32 0))
  call void @_ZN8ap_fixedILi33ELin5EL9ap_q_mode5EL9ap_o_mode3ELi0EEC2EPKc(%"struct.ap_int<33>.94"* getelementptr inbounds ([128 x %"struct.ap_int<33>.94"], [128 x %"struct.ap_int<33>.94"]* @_ZN19fourth_order_doubleL6sin_K3E, i64 0, i64 19), i8* getelementptr inbounds ([15 x i8], [15 x i8]* @.str.1051.48309, i32 0, i32 0))
  call void @_ZN8ap_fixedILi33ELin5EL9ap_q_mode5EL9ap_o_mode3ELi0EEC2EPKc(%"struct.ap_int<33>.94"* getelementptr inbounds ([128 x %"struct.ap_int<33>.94"], [128 x %"struct.ap_int<33>.94"]* @_ZN19fourth_order_doubleL6sin_K3E, i64 0, i64 20), i8* getelementptr inbounds ([16 x i8], [16 x i8]* @.str.1052.49271, i32 0, i32 0))
  call void @_ZN8ap_fixedILi33ELin5EL9ap_q_mode5EL9ap_o_mode3ELi0EEC2EPKc(%"struct.ap_int<33>.94"* getelementptr inbounds ([128 x %"struct.ap_int<33>.94"], [128 x %"struct.ap_int<33>.94"]* @_ZN19fourth_order_doubleL6sin_K3E, i64 0, i64 21), i8* getelementptr inbounds ([16 x i8], [16 x i8]* @.str.1053.49272, i32 0, i32 0))
  call void @_ZN8ap_fixedILi33ELin5EL9ap_q_mode5EL9ap_o_mode3ELi0EEC2EPKc(%"struct.ap_int<33>.94"* getelementptr inbounds ([128 x %"struct.ap_int<33>.94"], [128 x %"struct.ap_int<33>.94"]* @_ZN19fourth_order_doubleL6sin_K3E, i64 0, i64 22), i8* getelementptr inbounds ([15 x i8], [15 x i8]* @.str.1054.49273, i32 0, i32 0))
  call void @_ZN8ap_fixedILi33ELin5EL9ap_q_mode5EL9ap_o_mode3ELi0EEC2EPKc(%"struct.ap_int<33>.94"* getelementptr inbounds ([128 x %"struct.ap_int<33>.94"], [128 x %"struct.ap_int<33>.94"]* @_ZN19fourth_order_doubleL6sin_K3E, i64 0, i64 23), i8* getelementptr inbounds ([16 x i8], [16 x i8]* @.str.1055.49274, i32 0, i32 0))
  call void @_ZN8ap_fixedILi33ELin5EL9ap_q_mode5EL9ap_o_mode3ELi0EEC2EPKc(%"struct.ap_int<33>.94"* getelementptr inbounds ([128 x %"struct.ap_int<33>.94"], [128 x %"struct.ap_int<33>.94"]* @_ZN19fourth_order_doubleL6sin_K3E, i64 0, i64 24), i8* getelementptr inbounds ([15 x i8], [15 x i8]* @.str.1056.49275, i32 0, i32 0))
  call void @_ZN8ap_fixedILi33ELin5EL9ap_q_mode5EL9ap_o_mode3ELi0EEC2EPKc(%"struct.ap_int<33>.94"* getelementptr inbounds ([128 x %"struct.ap_int<33>.94"], [128 x %"struct.ap_int<33>.94"]* @_ZN19fourth_order_doubleL6sin_K3E, i64 0, i64 25), i8* getelementptr inbounds ([16 x i8], [16 x i8]* @.str.1057.49276, i32 0, i32 0))
  call void @_ZN8ap_fixedILi33ELin5EL9ap_q_mode5EL9ap_o_mode3ELi0EEC2EPKc(%"struct.ap_int<33>.94"* getelementptr inbounds ([128 x %"struct.ap_int<33>.94"], [128 x %"struct.ap_int<33>.94"]* @_ZN19fourth_order_doubleL6sin_K3E, i64 0, i64 26), i8* getelementptr inbounds ([15 x i8], [15 x i8]* @.str.1058.49277, i32 0, i32 0))
  call void @_ZN8ap_fixedILi33ELin5EL9ap_q_mode5EL9ap_o_mode3ELi0EEC2EPKc(%"struct.ap_int<33>.94"* getelementptr inbounds ([128 x %"struct.ap_int<33>.94"], [128 x %"struct.ap_int<33>.94"]* @_ZN19fourth_order_doubleL6sin_K3E, i64 0, i64 27), i8* getelementptr inbounds ([16 x i8], [16 x i8]* @.str.1059.49278, i32 0, i32 0))
  call void @_ZN8ap_fixedILi33ELin5EL9ap_q_mode5EL9ap_o_mode3ELi0EEC2EPKc(%"struct.ap_int<33>.94"* getelementptr inbounds ([128 x %"struct.ap_int<33>.94"], [128 x %"struct.ap_int<33>.94"]* @_ZN19fourth_order_doubleL6sin_K3E, i64 0, i64 28), i8* getelementptr inbounds ([16 x i8], [16 x i8]* @.str.1060.49279, i32 0, i32 0))
  call void @_ZN8ap_fixedILi33ELin5EL9ap_q_mode5EL9ap_o_mode3ELi0EEC2EPKc(%"struct.ap_int<33>.94"* getelementptr inbounds ([128 x %"struct.ap_int<33>.94"], [128 x %"struct.ap_int<33>.94"]* @_ZN19fourth_order_doubleL6sin_K3E, i64 0, i64 29), i8* getelementptr inbounds ([16 x i8], [16 x i8]* @.str.1061.49280, i32 0, i32 0))
  call void @_ZN8ap_fixedILi33ELin5EL9ap_q_mode5EL9ap_o_mode3ELi0EEC2EPKc(%"struct.ap_int<33>.94"* getelementptr inbounds ([128 x %"struct.ap_int<33>.94"], [128 x %"struct.ap_int<33>.94"]* @_ZN19fourth_order_doubleL6sin_K3E, i64 0, i64 30), i8* getelementptr inbounds ([16 x i8], [16 x i8]* @.str.1062.49281, i32 0, i32 0))
  call void @_ZN8ap_fixedILi33ELin5EL9ap_q_mode5EL9ap_o_mode3ELi0EEC2EPKc(%"struct.ap_int<33>.94"* getelementptr inbounds ([128 x %"struct.ap_int<33>.94"], [128 x %"struct.ap_int<33>.94"]* @_ZN19fourth_order_doubleL6sin_K3E, i64 0, i64 31), i8* getelementptr inbounds ([16 x i8], [16 x i8]* @.str.1063.49282, i32 0, i32 0))
  call void @_ZN8ap_fixedILi33ELin5EL9ap_q_mode5EL9ap_o_mode3ELi0EEC2EPKc(%"struct.ap_int<33>.94"* getelementptr inbounds ([128 x %"struct.ap_int<33>.94"], [128 x %"struct.ap_int<33>.94"]* @_ZN19fourth_order_doubleL6sin_K3E, i64 0, i64 32), i8* getelementptr inbounds ([15 x i8], [15 x i8]* @.str.1064.49283, i32 0, i32 0))
  call void @_ZN8ap_fixedILi33ELin5EL9ap_q_mode5EL9ap_o_mode3ELi0EEC2EPKc(%"struct.ap_int<33>.94"* getelementptr inbounds ([128 x %"struct.ap_int<33>.94"], [128 x %"struct.ap_int<33>.94"]* @_ZN19fourth_order_doubleL6sin_K3E, i64 0, i64 33), i8* getelementptr inbounds ([16 x i8], [16 x i8]* @.str.1065.49284, i32 0, i32 0))
  call void @_ZN8ap_fixedILi33ELin5EL9ap_q_mode5EL9ap_o_mode3ELi0EEC2EPKc(%"struct.ap_int<33>.94"* getelementptr inbounds ([128 x %"struct.ap_int<33>.94"], [128 x %"struct.ap_int<33>.94"]* @_ZN19fourth_order_doubleL6sin_K3E, i64 0, i64 34), i8* getelementptr inbounds ([15 x i8], [15 x i8]* @.str.1066.49285, i32 0, i32 0))
  call void @_ZN8ap_fixedILi33ELin5EL9ap_q_mode5EL9ap_o_mode3ELi0EEC2EPKc(%"struct.ap_int<33>.94"* getelementptr inbounds ([128 x %"struct.ap_int<33>.94"], [128 x %"struct.ap_int<33>.94"]* @_ZN19fourth_order_doubleL6sin_K3E, i64 0, i64 35), i8* getelementptr inbounds ([16 x i8], [16 x i8]* @.str.1067.49286, i32 0, i32 0))
  call void @_ZN8ap_fixedILi33ELin5EL9ap_q_mode5EL9ap_o_mode3ELi0EEC2EPKc(%"struct.ap_int<33>.94"* getelementptr inbounds ([128 x %"struct.ap_int<33>.94"], [128 x %"struct.ap_int<33>.94"]* @_ZN19fourth_order_doubleL6sin_K3E, i64 0, i64 36), i8* getelementptr inbounds ([16 x i8], [16 x i8]* @.str.1068.49287, i32 0, i32 0))
  call void @_ZN8ap_fixedILi33ELin5EL9ap_q_mode5EL9ap_o_mode3ELi0EEC2EPKc(%"struct.ap_int<33>.94"* getelementptr inbounds ([128 x %"struct.ap_int<33>.94"], [128 x %"struct.ap_int<33>.94"]* @_ZN19fourth_order_doubleL6sin_K3E, i64 0, i64 37), i8* getelementptr inbounds ([16 x i8], [16 x i8]* @.str.1069.49288, i32 0, i32 0))
  call void @_ZN8ap_fixedILi33ELin5EL9ap_q_mode5EL9ap_o_mode3ELi0EEC2EPKc(%"struct.ap_int<33>.94"* getelementptr inbounds ([128 x %"struct.ap_int<33>.94"], [128 x %"struct.ap_int<33>.94"]* @_ZN19fourth_order_doubleL6sin_K3E, i64 0, i64 38), i8* getelementptr inbounds ([15 x i8], [15 x i8]* @.str.1070.49289, i32 0, i32 0))
  call void @_ZN8ap_fixedILi33ELin5EL9ap_q_mode5EL9ap_o_mode3ELi0EEC2EPKc(%"struct.ap_int<33>.94"* getelementptr inbounds ([128 x %"struct.ap_int<33>.94"], [128 x %"struct.ap_int<33>.94"]* @_ZN19fourth_order_doubleL6sin_K3E, i64 0, i64 39), i8* getelementptr inbounds ([16 x i8], [16 x i8]* @.str.1071.49290, i32 0, i32 0))
  call void @_ZN8ap_fixedILi33ELin5EL9ap_q_mode5EL9ap_o_mode3ELi0EEC2EPKc(%"struct.ap_int<33>.94"* getelementptr inbounds ([128 x %"struct.ap_int<33>.94"], [128 x %"struct.ap_int<33>.94"]* @_ZN19fourth_order_doubleL6sin_K3E, i64 0, i64 40), i8* getelementptr inbounds ([15 x i8], [15 x i8]* @.str.1072.49291, i32 0, i32 0))
  call void @_ZN8ap_fixedILi33ELin5EL9ap_q_mode5EL9ap_o_mode3ELi0EEC2EPKc(%"struct.ap_int<33>.94"* getelementptr inbounds ([128 x %"struct.ap_int<33>.94"], [128 x %"struct.ap_int<33>.94"]* @_ZN19fourth_order_doubleL6sin_K3E, i64 0, i64 41), i8* getelementptr inbounds ([16 x i8], [16 x i8]* @.str.1073.49292, i32 0, i32 0))
  call void @_ZN8ap_fixedILi33ELin5EL9ap_q_mode5EL9ap_o_mode3ELi0EEC2EPKc(%"struct.ap_int<33>.94"* getelementptr inbounds ([128 x %"struct.ap_int<33>.94"], [128 x %"struct.ap_int<33>.94"]* @_ZN19fourth_order_doubleL6sin_K3E, i64 0, i64 42), i8* getelementptr inbounds ([15 x i8], [15 x i8]* @.str.1074.49293, i32 0, i32 0))
  call void @_ZN8ap_fixedILi33ELin5EL9ap_q_mode5EL9ap_o_mode3ELi0EEC2EPKc(%"struct.ap_int<33>.94"* getelementptr inbounds ([128 x %"struct.ap_int<33>.94"], [128 x %"struct.ap_int<33>.94"]* @_ZN19fourth_order_doubleL6sin_K3E, i64 0, i64 43), i8* getelementptr inbounds ([16 x i8], [16 x i8]* @.str.1075.49294, i32 0, i32 0))
  call void @_ZN8ap_fixedILi33ELin5EL9ap_q_mode5EL9ap_o_mode3ELi0EEC2EPKc(%"struct.ap_int<33>.94"* getelementptr inbounds ([128 x %"struct.ap_int<33>.94"], [128 x %"struct.ap_int<33>.94"]* @_ZN19fourth_order_doubleL6sin_K3E, i64 0, i64 44), i8* getelementptr inbounds ([16 x i8], [16 x i8]* @.str.1076.49295, i32 0, i32 0))
  call void @_ZN8ap_fixedILi33ELin5EL9ap_q_mode5EL9ap_o_mode3ELi0EEC2EPKc(%"struct.ap_int<33>.94"* getelementptr inbounds ([128 x %"struct.ap_int<33>.94"], [128 x %"struct.ap_int<33>.94"]* @_ZN19fourth_order_doubleL6sin_K3E, i64 0, i64 45), i8* getelementptr inbounds ([16 x i8], [16 x i8]* @.str.1077.49296, i32 0, i32 0))
  call void @_ZN8ap_fixedILi33ELin5EL9ap_q_mode5EL9ap_o_mode3ELi0EEC2EPKc(%"struct.ap_int<33>.94"* getelementptr inbounds ([128 x %"struct.ap_int<33>.94"], [128 x %"struct.ap_int<33>.94"]* @_ZN19fourth_order_doubleL6sin_K3E, i64 0, i64 46), i8* getelementptr inbounds ([16 x i8], [16 x i8]* @.str.1078.49297, i32 0, i32 0))
  call void @_ZN8ap_fixedILi33ELin5EL9ap_q_mode5EL9ap_o_mode3ELi0EEC2EPKc(%"struct.ap_int<33>.94"* getelementptr inbounds ([128 x %"struct.ap_int<33>.94"], [128 x %"struct.ap_int<33>.94"]* @_ZN19fourth_order_doubleL6sin_K3E, i64 0, i64 47), i8* getelementptr inbounds ([16 x i8], [16 x i8]* @.str.1079.49298, i32 0, i32 0))
  call void @_ZN8ap_fixedILi33ELin5EL9ap_q_mode5EL9ap_o_mode3ELi0EEC2EPKc(%"struct.ap_int<33>.94"* getelementptr inbounds ([128 x %"struct.ap_int<33>.94"], [128 x %"struct.ap_int<33>.94"]* @_ZN19fourth_order_doubleL6sin_K3E, i64 0, i64 48), i8* getelementptr inbounds ([16 x i8], [16 x i8]* @.str.1080.49299, i32 0, i32 0))
  call void @_ZN8ap_fixedILi33ELin5EL9ap_q_mode5EL9ap_o_mode3ELi0EEC2EPKc(%"struct.ap_int<33>.94"* getelementptr inbounds ([128 x %"struct.ap_int<33>.94"], [128 x %"struct.ap_int<33>.94"]* @_ZN19fourth_order_doubleL6sin_K3E, i64 0, i64 49), i8* getelementptr inbounds ([16 x i8], [16 x i8]* @.str.1081.49300, i32 0, i32 0))
  call void @_ZN8ap_fixedILi33ELin5EL9ap_q_mode5EL9ap_o_mode3ELi0EEC2EPKc(%"struct.ap_int<33>.94"* getelementptr inbounds ([128 x %"struct.ap_int<33>.94"], [128 x %"struct.ap_int<33>.94"]* @_ZN19fourth_order_doubleL6sin_K3E, i64 0, i64 50), i8* getelementptr inbounds ([16 x i8], [16 x i8]* @.str.1082.49301, i32 0, i32 0))
  call void @_ZN8ap_fixedILi33ELin5EL9ap_q_mode5EL9ap_o_mode3ELi0EEC2EPKc(%"struct.ap_int<33>.94"* getelementptr inbounds ([128 x %"struct.ap_int<33>.94"], [128 x %"struct.ap_int<33>.94"]* @_ZN19fourth_order_doubleL6sin_K3E, i64 0, i64 51), i8* getelementptr inbounds ([16 x i8], [16 x i8]* @.str.1083.49302, i32 0, i32 0))
  call void @_ZN8ap_fixedILi33ELin5EL9ap_q_mode5EL9ap_o_mode3ELi0EEC2EPKc(%"struct.ap_int<33>.94"* getelementptr inbounds ([128 x %"struct.ap_int<33>.94"], [128 x %"struct.ap_int<33>.94"]* @_ZN19fourth_order_doubleL6sin_K3E, i64 0, i64 52), i8* getelementptr inbounds ([16 x i8], [16 x i8]* @.str.1084.49303, i32 0, i32 0))
  call void @_ZN8ap_fixedILi33ELin5EL9ap_q_mode5EL9ap_o_mode3ELi0EEC2EPKc(%"struct.ap_int<33>.94"* getelementptr inbounds ([128 x %"struct.ap_int<33>.94"], [128 x %"struct.ap_int<33>.94"]* @_ZN19fourth_order_doubleL6sin_K3E, i64 0, i64 53), i8* getelementptr inbounds ([15 x i8], [15 x i8]* @.str.1085.49304, i32 0, i32 0))
  call void @_ZN8ap_fixedILi33ELin5EL9ap_q_mode5EL9ap_o_mode3ELi0EEC2EPKc(%"struct.ap_int<33>.94"* getelementptr inbounds ([128 x %"struct.ap_int<33>.94"], [128 x %"struct.ap_int<33>.94"]* @_ZN19fourth_order_doubleL6sin_K3E, i64 0, i64 54), i8* getelementptr inbounds ([16 x i8], [16 x i8]* @.str.1086.49305, i32 0, i32 0))
  call void @_ZN8ap_fixedILi33ELin5EL9ap_q_mode5EL9ap_o_mode3ELi0EEC2EPKc(%"struct.ap_int<33>.94"* getelementptr inbounds ([128 x %"struct.ap_int<33>.94"], [128 x %"struct.ap_int<33>.94"]* @_ZN19fourth_order_doubleL6sin_K3E, i64 0, i64 55), i8* getelementptr inbounds ([16 x i8], [16 x i8]* @.str.1087.49306, i32 0, i32 0))
  call void @_ZN8ap_fixedILi33ELin5EL9ap_q_mode5EL9ap_o_mode3ELi0EEC2EPKc(%"struct.ap_int<33>.94"* getelementptr inbounds ([128 x %"struct.ap_int<33>.94"], [128 x %"struct.ap_int<33>.94"]* @_ZN19fourth_order_doubleL6sin_K3E, i64 0, i64 56), i8* getelementptr inbounds ([16 x i8], [16 x i8]* @.str.1088.49307, i32 0, i32 0))
  call void @_ZN8ap_fixedILi33ELin5EL9ap_q_mode5EL9ap_o_mode3ELi0EEC2EPKc(%"struct.ap_int<33>.94"* getelementptr inbounds ([128 x %"struct.ap_int<33>.94"], [128 x %"struct.ap_int<33>.94"]* @_ZN19fourth_order_doubleL6sin_K3E, i64 0, i64 57), i8* getelementptr inbounds ([16 x i8], [16 x i8]* @.str.1089.49308, i32 0, i32 0))
  call void @_ZN8ap_fixedILi33ELin5EL9ap_q_mode5EL9ap_o_mode3ELi0EEC2EPKc(%"struct.ap_int<33>.94"* getelementptr inbounds ([128 x %"struct.ap_int<33>.94"], [128 x %"struct.ap_int<33>.94"]* @_ZN19fourth_order_doubleL6sin_K3E, i64 0, i64 58), i8* getelementptr inbounds ([16 x i8], [16 x i8]* @.str.1090.49309, i32 0, i32 0))
  call void @_ZN8ap_fixedILi33ELin5EL9ap_q_mode5EL9ap_o_mode3ELi0EEC2EPKc(%"struct.ap_int<33>.94"* getelementptr inbounds ([128 x %"struct.ap_int<33>.94"], [128 x %"struct.ap_int<33>.94"]* @_ZN19fourth_order_doubleL6sin_K3E, i64 0, i64 59), i8* getelementptr inbounds ([16 x i8], [16 x i8]* @.str.1091.49310, i32 0, i32 0))
  call void @_ZN8ap_fixedILi33ELin5EL9ap_q_mode5EL9ap_o_mode3ELi0EEC2EPKc(%"struct.ap_int<33>.94"* getelementptr inbounds ([128 x %"struct.ap_int<33>.94"], [128 x %"struct.ap_int<33>.94"]* @_ZN19fourth_order_doubleL6sin_K3E, i64 0, i64 60), i8* getelementptr inbounds ([15 x i8], [15 x i8]* @.str.1092.49311, i32 0, i32 0))
  call void @_ZN8ap_fixedILi33ELin5EL9ap_q_mode5EL9ap_o_mode3ELi0EEC2EPKc(%"struct.ap_int<33>.94"* getelementptr inbounds ([128 x %"struct.ap_int<33>.94"], [128 x %"struct.ap_int<33>.94"]* @_ZN19fourth_order_doubleL6sin_K3E, i64 0, i64 61), i8* getelementptr inbounds ([16 x i8], [16 x i8]* @.str.1093.49312, i32 0, i32 0))
  call void @_ZN8ap_fixedILi33ELin5EL9ap_q_mode5EL9ap_o_mode3ELi0EEC2EPKc(%"struct.ap_int<33>.94"* getelementptr inbounds ([128 x %"struct.ap_int<33>.94"], [128 x %"struct.ap_int<33>.94"]* @_ZN19fourth_order_doubleL6sin_K3E, i64 0, i64 62), i8* getelementptr inbounds ([16 x i8], [16 x i8]* @.str.1094.49313, i32 0, i32 0))
  call void @_ZN8ap_fixedILi33ELin5EL9ap_q_mode5EL9ap_o_mode3ELi0EEC2EPKc(%"struct.ap_int<33>.94"* getelementptr inbounds ([128 x %"struct.ap_int<33>.94"], [128 x %"struct.ap_int<33>.94"]* @_ZN19fourth_order_doubleL6sin_K3E, i64 0, i64 63), i8* getelementptr inbounds ([14 x i8], [14 x i8]* @.str.1095.49314, i32 0, i32 0))
  call void @_ZN8ap_fixedILi33ELin5EL9ap_q_mode5EL9ap_o_mode3ELi0EEC2EPKc(%"struct.ap_int<33>.94"* getelementptr inbounds ([128 x %"struct.ap_int<33>.94"], [128 x %"struct.ap_int<33>.94"]* @_ZN19fourth_order_doubleL6sin_K3E, i64 0, i64 64), i8* getelementptr inbounds ([16 x i8], [16 x i8]* @.str.1096.49315, i32 0, i32 0))
  call void @_ZN8ap_fixedILi33ELin5EL9ap_q_mode5EL9ap_o_mode3ELi0EEC2EPKc(%"struct.ap_int<33>.94"* getelementptr inbounds ([128 x %"struct.ap_int<33>.94"], [128 x %"struct.ap_int<33>.94"]* @_ZN19fourth_order_doubleL6sin_K3E, i64 0, i64 65), i8* getelementptr inbounds ([15 x i8], [15 x i8]* @.str.1097.49316, i32 0, i32 0))
  call void @_ZN8ap_fixedILi33ELin5EL9ap_q_mode5EL9ap_o_mode3ELi0EEC2EPKc(%"struct.ap_int<33>.94"* getelementptr inbounds ([128 x %"struct.ap_int<33>.94"], [128 x %"struct.ap_int<33>.94"]* @_ZN19fourth_order_doubleL6sin_K3E, i64 0, i64 66), i8* getelementptr inbounds ([14 x i8], [14 x i8]* @.str.1098.49317, i32 0, i32 0))
  call void @_ZN8ap_fixedILi33ELin5EL9ap_q_mode5EL9ap_o_mode3ELi0EEC2EPKc(%"struct.ap_int<33>.94"* getelementptr inbounds ([128 x %"struct.ap_int<33>.94"], [128 x %"struct.ap_int<33>.94"]* @_ZN19fourth_order_doubleL6sin_K3E, i64 0, i64 67), i8* getelementptr inbounds ([16 x i8], [16 x i8]* @.str.1099.49318, i32 0, i32 0))
  call void @_ZN8ap_fixedILi33ELin5EL9ap_q_mode5EL9ap_o_mode3ELi0EEC2EPKc(%"struct.ap_int<33>.94"* getelementptr inbounds ([128 x %"struct.ap_int<33>.94"], [128 x %"struct.ap_int<33>.94"]* @_ZN19fourth_order_doubleL6sin_K3E, i64 0, i64 68), i8* getelementptr inbounds ([16 x i8], [16 x i8]* @.str.1100.49319, i32 0, i32 0))
  call void @_ZN8ap_fixedILi33ELin5EL9ap_q_mode5EL9ap_o_mode3ELi0EEC2EPKc(%"struct.ap_int<33>.94"* getelementptr inbounds ([128 x %"struct.ap_int<33>.94"], [128 x %"struct.ap_int<33>.94"]* @_ZN19fourth_order_doubleL6sin_K3E, i64 0, i64 69), i8* getelementptr inbounds ([15 x i8], [15 x i8]* @.str.1101.49320, i32 0, i32 0))
  call void @_ZN8ap_fixedILi33ELin5EL9ap_q_mode5EL9ap_o_mode3ELi0EEC2EPKc(%"struct.ap_int<33>.94"* getelementptr inbounds ([128 x %"struct.ap_int<33>.94"], [128 x %"struct.ap_int<33>.94"]* @_ZN19fourth_order_doubleL6sin_K3E, i64 0, i64 70), i8* getelementptr inbounds ([16 x i8], [16 x i8]* @.str.1102.49321, i32 0, i32 0))
  call void @_ZN8ap_fixedILi33ELin5EL9ap_q_mode5EL9ap_o_mode3ELi0EEC2EPKc(%"struct.ap_int<33>.94"* getelementptr inbounds ([128 x %"struct.ap_int<33>.94"], [128 x %"struct.ap_int<33>.94"]* @_ZN19fourth_order_doubleL6sin_K3E, i64 0, i64 71), i8* getelementptr inbounds ([16 x i8], [16 x i8]* @.str.1103.49322, i32 0, i32 0))
  call void @_ZN8ap_fixedILi33ELin5EL9ap_q_mode5EL9ap_o_mode3ELi0EEC2EPKc(%"struct.ap_int<33>.94"* getelementptr inbounds ([128 x %"struct.ap_int<33>.94"], [128 x %"struct.ap_int<33>.94"]* @_ZN19fourth_order_doubleL6sin_K3E, i64 0, i64 72), i8* getelementptr inbounds ([16 x i8], [16 x i8]* @.str.1104.49323, i32 0, i32 0))
  call void @_ZN8ap_fixedILi33ELin5EL9ap_q_mode5EL9ap_o_mode3ELi0EEC2EPKc(%"struct.ap_int<33>.94"* getelementptr inbounds ([128 x %"struct.ap_int<33>.94"], [128 x %"struct.ap_int<33>.94"]* @_ZN19fourth_order_doubleL6sin_K3E, i64 0, i64 73), i8* getelementptr inbounds ([16 x i8], [16 x i8]* @.str.1105.49324, i32 0, i32 0))
  call void @_ZN8ap_fixedILi33ELin5EL9ap_q_mode5EL9ap_o_mode3ELi0EEC2EPKc(%"struct.ap_int<33>.94"* getelementptr inbounds ([128 x %"struct.ap_int<33>.94"], [128 x %"struct.ap_int<33>.94"]* @_ZN19fourth_order_doubleL6sin_K3E, i64 0, i64 74), i8* getelementptr inbounds ([16 x i8], [16 x i8]* @.str.1106.49325, i32 0, i32 0))
  call void @_ZN8ap_fixedILi33ELin5EL9ap_q_mode5EL9ap_o_mode3ELi0EEC2EPKc(%"struct.ap_int<33>.94"* getelementptr inbounds ([128 x %"struct.ap_int<33>.94"], [128 x %"struct.ap_int<33>.94"]* @_ZN19fourth_order_doubleL6sin_K3E, i64 0, i64 75), i8* getelementptr inbounds ([16 x i8], [16 x i8]* @.str.1107.49326, i32 0, i32 0))
  call void @_ZN8ap_fixedILi33ELin5EL9ap_q_mode5EL9ap_o_mode3ELi0EEC2EPKc(%"struct.ap_int<33>.94"* getelementptr inbounds ([128 x %"struct.ap_int<33>.94"], [128 x %"struct.ap_int<33>.94"]* @_ZN19fourth_order_doubleL6sin_K3E, i64 0, i64 76), i8* getelementptr inbounds ([16 x i8], [16 x i8]* @.str.1108.49327, i32 0, i32 0))
  call void @_ZN8ap_fixedILi33ELin5EL9ap_q_mode5EL9ap_o_mode3ELi0EEC2EPKc(%"struct.ap_int<33>.94"* getelementptr inbounds ([128 x %"struct.ap_int<33>.94"], [128 x %"struct.ap_int<33>.94"]* @_ZN19fourth_order_doubleL6sin_K3E, i64 0, i64 77), i8* getelementptr inbounds ([15 x i8], [15 x i8]* @.str.1109.49328, i32 0, i32 0))
  call void @_ZN8ap_fixedILi33ELin5EL9ap_q_mode5EL9ap_o_mode3ELi0EEC2EPKc(%"struct.ap_int<33>.94"* getelementptr inbounds ([128 x %"struct.ap_int<33>.94"], [128 x %"struct.ap_int<33>.94"]* @_ZN19fourth_order_doubleL6sin_K3E, i64 0, i64 78), i8* getelementptr inbounds ([16 x i8], [16 x i8]* @.str.1110.49329, i32 0, i32 0))
  call void @_ZN8ap_fixedILi33ELin5EL9ap_q_mode5EL9ap_o_mode3ELi0EEC2EPKc(%"struct.ap_int<33>.94"* getelementptr inbounds ([128 x %"struct.ap_int<33>.94"], [128 x %"struct.ap_int<33>.94"]* @_ZN19fourth_order_doubleL6sin_K3E, i64 0, i64 79), i8* getelementptr inbounds ([16 x i8], [16 x i8]* @.str.1111.49330, i32 0, i32 0))
  call void @_ZN8ap_fixedILi33ELin5EL9ap_q_mode5EL9ap_o_mode3ELi0EEC2EPKc(%"struct.ap_int<33>.94"* getelementptr inbounds ([128 x %"struct.ap_int<33>.94"], [128 x %"struct.ap_int<33>.94"]* @_ZN19fourth_order_doubleL6sin_K3E, i64 0, i64 80), i8* getelementptr inbounds ([16 x i8], [16 x i8]* @.str.1112.49331, i32 0, i32 0))
  call void @_ZN8ap_fixedILi33ELin5EL9ap_q_mode5EL9ap_o_mode3ELi0EEC2EPKc(%"struct.ap_int<33>.94"* getelementptr inbounds ([128 x %"struct.ap_int<33>.94"], [128 x %"struct.ap_int<33>.94"]* @_ZN19fourth_order_doubleL6sin_K3E, i64 0, i64 81), i8* getelementptr inbounds ([16 x i8], [16 x i8]* @.str.1113.49332, i32 0, i32 0))
  call void @_ZN8ap_fixedILi33ELin5EL9ap_q_mode5EL9ap_o_mode3ELi0EEC2EPKc(%"struct.ap_int<33>.94"* getelementptr inbounds ([128 x %"struct.ap_int<33>.94"], [128 x %"struct.ap_int<33>.94"]* @_ZN19fourth_order_doubleL6sin_K3E, i64 0, i64 82), i8* getelementptr inbounds ([16 x i8], [16 x i8]* @.str.1114.49333, i32 0, i32 0))
  call void @_ZN8ap_fixedILi33ELin5EL9ap_q_mode5EL9ap_o_mode3ELi0EEC2EPKc(%"struct.ap_int<33>.94"* getelementptr inbounds ([128 x %"struct.ap_int<33>.94"], [128 x %"struct.ap_int<33>.94"]* @_ZN19fourth_order_doubleL6sin_K3E, i64 0, i64 83), i8* getelementptr inbounds ([16 x i8], [16 x i8]* @.str.1115.49334, i32 0, i32 0))
  call void @_ZN8ap_fixedILi33ELin5EL9ap_q_mode5EL9ap_o_mode3ELi0EEC2EPKc(%"struct.ap_int<33>.94"* getelementptr inbounds ([128 x %"struct.ap_int<33>.94"], [128 x %"struct.ap_int<33>.94"]* @_ZN19fourth_order_doubleL6sin_K3E, i64 0, i64 84), i8* getelementptr inbounds ([16 x i8], [16 x i8]* @.str.1116.49335, i32 0, i32 0))
  call void @_ZN8ap_fixedILi33ELin5EL9ap_q_mode5EL9ap_o_mode3ELi0EEC2EPKc(%"struct.ap_int<33>.94"* getelementptr inbounds ([128 x %"struct.ap_int<33>.94"], [128 x %"struct.ap_int<33>.94"]* @_ZN19fourth_order_doubleL6sin_K3E, i64 0, i64 85), i8* getelementptr inbounds ([16 x i8], [16 x i8]* @.str.1117.49336, i32 0, i32 0))
  call void @_ZN8ap_fixedILi33ELin5EL9ap_q_mode5EL9ap_o_mode3ELi0EEC2EPKc(%"struct.ap_int<33>.94"* getelementptr inbounds ([128 x %"struct.ap_int<33>.94"], [128 x %"struct.ap_int<33>.94"]* @_ZN19fourth_order_doubleL6sin_K3E, i64 0, i64 86), i8* getelementptr inbounds ([15 x i8], [15 x i8]* @.str.1118.49337, i32 0, i32 0))
  call void @_ZN8ap_fixedILi33ELin5EL9ap_q_mode5EL9ap_o_mode3ELi0EEC2EPKc(%"struct.ap_int<33>.94"* getelementptr inbounds ([128 x %"struct.ap_int<33>.94"], [128 x %"struct.ap_int<33>.94"]* @_ZN19fourth_order_doubleL6sin_K3E, i64 0, i64 87), i8* getelementptr inbounds ([16 x i8], [16 x i8]* @.str.1119.49338, i32 0, i32 0))
  call void @_ZN8ap_fixedILi33ELin5EL9ap_q_mode5EL9ap_o_mode3ELi0EEC2EPKc(%"struct.ap_int<33>.94"* getelementptr inbounds ([128 x %"struct.ap_int<33>.94"], [128 x %"struct.ap_int<33>.94"]* @_ZN19fourth_order_doubleL6sin_K3E, i64 0, i64 88), i8* getelementptr inbounds ([16 x i8], [16 x i8]* @.str.1120.49339, i32 0, i32 0))
  call void @_ZN8ap_fixedILi33ELin5EL9ap_q_mode5EL9ap_o_mode3ELi0EEC2EPKc(%"struct.ap_int<33>.94"* getelementptr inbounds ([128 x %"struct.ap_int<33>.94"], [128 x %"struct.ap_int<33>.94"]* @_ZN19fourth_order_doubleL6sin_K3E, i64 0, i64 89), i8* getelementptr inbounds ([16 x i8], [16 x i8]* @.str.1121.49340, i32 0, i32 0))
  call void @_ZN8ap_fixedILi33ELin5EL9ap_q_mode5EL9ap_o_mode3ELi0EEC2EPKc(%"struct.ap_int<33>.94"* getelementptr inbounds ([128 x %"struct.ap_int<33>.94"], [128 x %"struct.ap_int<33>.94"]* @_ZN19fourth_order_doubleL6sin_K3E, i64 0, i64 90), i8* getelementptr inbounds ([16 x i8], [16 x i8]* @.str.1122.49341, i32 0, i32 0))
  call void @_ZN8ap_fixedILi33ELin5EL9ap_q_mode5EL9ap_o_mode3ELi0EEC2EPKc(%"struct.ap_int<33>.94"* getelementptr inbounds ([128 x %"struct.ap_int<33>.94"], [128 x %"struct.ap_int<33>.94"]* @_ZN19fourth_order_doubleL6sin_K3E, i64 0, i64 91), i8* getelementptr inbounds ([16 x i8], [16 x i8]* @.str.1123.49342, i32 0, i32 0))
  call void @_ZN8ap_fixedILi33ELin5EL9ap_q_mode5EL9ap_o_mode3ELi0EEC2EPKc(%"struct.ap_int<33>.94"* getelementptr inbounds ([128 x %"struct.ap_int<33>.94"], [128 x %"struct.ap_int<33>.94"]* @_ZN19fourth_order_doubleL6sin_K3E, i64 0, i64 92), i8* getelementptr inbounds ([16 x i8], [16 x i8]* @.str.1124.49343, i32 0, i32 0))
  call void @_ZN8ap_fixedILi33ELin5EL9ap_q_mode5EL9ap_o_mode3ELi0EEC2EPKc(%"struct.ap_int<33>.94"* getelementptr inbounds ([128 x %"struct.ap_int<33>.94"], [128 x %"struct.ap_int<33>.94"]* @_ZN19fourth_order_doubleL6sin_K3E, i64 0, i64 93), i8* getelementptr inbounds ([16 x i8], [16 x i8]* @.str.1125.49344, i32 0, i32 0))
  call void @_ZN8ap_fixedILi33ELin5EL9ap_q_mode5EL9ap_o_mode3ELi0EEC2EPKc(%"struct.ap_int<33>.94"* getelementptr inbounds ([128 x %"struct.ap_int<33>.94"], [128 x %"struct.ap_int<33>.94"]* @_ZN19fourth_order_doubleL6sin_K3E, i64 0, i64 94), i8* getelementptr inbounds ([16 x i8], [16 x i8]* @.str.1126.49345, i32 0, i32 0))
  call void @_ZN8ap_fixedILi33ELin5EL9ap_q_mode5EL9ap_o_mode3ELi0EEC2EPKc(%"struct.ap_int<33>.94"* getelementptr inbounds ([128 x %"struct.ap_int<33>.94"], [128 x %"struct.ap_int<33>.94"]* @_ZN19fourth_order_doubleL6sin_K3E, i64 0, i64 95), i8* getelementptr inbounds ([16 x i8], [16 x i8]* @.str.1127.49346, i32 0, i32 0))
  call void @_ZN8ap_fixedILi33ELin5EL9ap_q_mode5EL9ap_o_mode3ELi0EEC2EPKc(%"struct.ap_int<33>.94"* getelementptr inbounds ([128 x %"struct.ap_int<33>.94"], [128 x %"struct.ap_int<33>.94"]* @_ZN19fourth_order_doubleL6sin_K3E, i64 0, i64 96), i8* getelementptr inbounds ([15 x i8], [15 x i8]* @.str.1128.49347, i32 0, i32 0))
  call void @_ZN8ap_fixedILi33ELin5EL9ap_q_mode5EL9ap_o_mode3ELi0EEC2EPKc(%"struct.ap_int<33>.94"* getelementptr inbounds ([128 x %"struct.ap_int<33>.94"], [128 x %"struct.ap_int<33>.94"]* @_ZN19fourth_order_doubleL6sin_K3E, i64 0, i64 97), i8* getelementptr inbounds ([15 x i8], [15 x i8]* @.str.1129.49348, i32 0, i32 0))
  call void @_ZN8ap_fixedILi33ELin5EL9ap_q_mode5EL9ap_o_mode3ELi0EEC2EPKc(%"struct.ap_int<33>.94"* getelementptr inbounds ([128 x %"struct.ap_int<33>.94"], [128 x %"struct.ap_int<33>.94"]* @_ZN19fourth_order_doubleL6sin_K3E, i64 0, i64 98), i8* getelementptr inbounds ([16 x i8], [16 x i8]* @.str.1130.49349, i32 0, i32 0))
  call void @_ZN8ap_fixedILi33ELin5EL9ap_q_mode5EL9ap_o_mode3ELi0EEC2EPKc(%"struct.ap_int<33>.94"* getelementptr inbounds ([128 x %"struct.ap_int<33>.94"], [128 x %"struct.ap_int<33>.94"]* @_ZN19fourth_order_doubleL6sin_K3E, i64 0, i64 99), i8* getelementptr inbounds ([16 x i8], [16 x i8]* @.str.1131.49350, i32 0, i32 0))
  call void @_ZN8ap_fixedILi33ELin5EL9ap_q_mode5EL9ap_o_mode3ELi0EEC2EPKc(%"struct.ap_int<33>.94"* getelementptr inbounds ([128 x %"struct.ap_int<33>.94"], [128 x %"struct.ap_int<33>.94"]* @_ZN19fourth_order_doubleL6sin_K3E, i64 0, i64 100), i8* getelementptr inbounds ([15 x i8], [15 x i8]* @.str.1132.49351, i32 0, i32 0))
  call void @_ZN8ap_fixedILi33ELin5EL9ap_q_mode5EL9ap_o_mode3ELi0EEC2EPKc(%"struct.ap_int<33>.94"* getelementptr inbounds ([128 x %"struct.ap_int<33>.94"], [128 x %"struct.ap_int<33>.94"]* @_ZN19fourth_order_doubleL6sin_K3E, i64 0, i64 101), i8* getelementptr inbounds ([16 x i8], [16 x i8]* @.str.1133.49352, i32 0, i32 0))
  call void @_ZN8ap_fixedILi33ELin5EL9ap_q_mode5EL9ap_o_mode3ELi0EEC2EPKc(%"struct.ap_int<33>.94"* getelementptr inbounds ([128 x %"struct.ap_int<33>.94"], [128 x %"struct.ap_int<33>.94"]* @_ZN19fourth_order_doubleL6sin_K3E, i64 0, i64 102), i8* getelementptr inbounds ([16 x i8], [16 x i8]* @.str.1134.49353, i32 0, i32 0))
  call void @_ZN8ap_fixedILi33ELin5EL9ap_q_mode5EL9ap_o_mode3ELi0EEC2EPKc(%"struct.ap_int<33>.94"* getelementptr inbounds ([128 x %"struct.ap_int<33>.94"], [128 x %"struct.ap_int<33>.94"]* @_ZN19fourth_order_doubleL6sin_K3E, i64 0, i64 103), i8* getelementptr inbounds ([16 x i8], [16 x i8]* @.str.1135.49354, i32 0, i32 0))
  call void @_ZN8ap_fixedILi33ELin5EL9ap_q_mode5EL9ap_o_mode3ELi0EEC2EPKc(%"struct.ap_int<33>.94"* getelementptr inbounds ([128 x %"struct.ap_int<33>.94"], [128 x %"struct.ap_int<33>.94"]* @_ZN19fourth_order_doubleL6sin_K3E, i64 0, i64 104), i8* getelementptr inbounds ([16 x i8], [16 x i8]* @.str.1136.49355, i32 0, i32 0))
  call void @_ZN8ap_fixedILi33ELin5EL9ap_q_mode5EL9ap_o_mode3ELi0EEC2EPKc(%"struct.ap_int<33>.94"* getelementptr inbounds ([128 x %"struct.ap_int<33>.94"], [128 x %"struct.ap_int<33>.94"]* @_ZN19fourth_order_doubleL6sin_K3E, i64 0, i64 105), i8* getelementptr inbounds ([16 x i8], [16 x i8]* @.str.1137.49356, i32 0, i32 0))
  call void @_ZN8ap_fixedILi33ELin5EL9ap_q_mode5EL9ap_o_mode3ELi0EEC2EPKc(%"struct.ap_int<33>.94"* getelementptr inbounds ([128 x %"struct.ap_int<33>.94"], [128 x %"struct.ap_int<33>.94"]* @_ZN19fourth_order_doubleL6sin_K3E, i64 0, i64 106), i8* getelementptr inbounds ([16 x i8], [16 x i8]* @.str.1138.49357, i32 0, i32 0))
  call void @_ZN8ap_fixedILi33ELin5EL9ap_q_mode5EL9ap_o_mode3ELi0EEC2EPKc(%"struct.ap_int<33>.94"* getelementptr inbounds ([128 x %"struct.ap_int<33>.94"], [128 x %"struct.ap_int<33>.94"]* @_ZN19fourth_order_doubleL6sin_K3E, i64 0, i64 107), i8* getelementptr inbounds ([15 x i8], [15 x i8]* @.str.1139.49358, i32 0, i32 0))
  call void @_ZN8ap_fixedILi33ELin5EL9ap_q_mode5EL9ap_o_mode3ELi0EEC2EPKc(%"struct.ap_int<33>.94"* getelementptr inbounds ([128 x %"struct.ap_int<33>.94"], [128 x %"struct.ap_int<33>.94"]* @_ZN19fourth_order_doubleL6sin_K3E, i64 0, i64 108), i8* getelementptr inbounds ([16 x i8], [16 x i8]* @.str.1140.49359, i32 0, i32 0))
  call void @_ZN8ap_fixedILi33ELin5EL9ap_q_mode5EL9ap_o_mode3ELi0EEC2EPKc(%"struct.ap_int<33>.94"* getelementptr inbounds ([128 x %"struct.ap_int<33>.94"], [128 x %"struct.ap_int<33>.94"]* @_ZN19fourth_order_doubleL6sin_K3E, i64 0, i64 109), i8* getelementptr inbounds ([16 x i8], [16 x i8]* @.str.1141.49360, i32 0, i32 0))
  call void @_ZN8ap_fixedILi33ELin5EL9ap_q_mode5EL9ap_o_mode3ELi0EEC2EPKc(%"struct.ap_int<33>.94"* getelementptr inbounds ([128 x %"struct.ap_int<33>.94"], [128 x %"struct.ap_int<33>.94"]* @_ZN19fourth_order_doubleL6sin_K3E, i64 0, i64 110), i8* getelementptr inbounds ([16 x i8], [16 x i8]* @.str.1142.49361, i32 0, i32 0))
  call void @_ZN8ap_fixedILi33ELin5EL9ap_q_mode5EL9ap_o_mode3ELi0EEC2EPKc(%"struct.ap_int<33>.94"* getelementptr inbounds ([128 x %"struct.ap_int<33>.94"], [128 x %"struct.ap_int<33>.94"]* @_ZN19fourth_order_doubleL6sin_K3E, i64 0, i64 111), i8* getelementptr inbounds ([16 x i8], [16 x i8]* @.str.1143.49362, i32 0, i32 0))
  call void @_ZN8ap_fixedILi33ELin5EL9ap_q_mode5EL9ap_o_mode3ELi0EEC2EPKc(%"struct.ap_int<33>.94"* getelementptr inbounds ([128 x %"struct.ap_int<33>.94"], [128 x %"struct.ap_int<33>.94"]* @_ZN19fourth_order_doubleL6sin_K3E, i64 0, i64 112), i8* getelementptr inbounds ([16 x i8], [16 x i8]* @.str.1144.49363, i32 0, i32 0))
  call void @_ZN8ap_fixedILi33ELin5EL9ap_q_mode5EL9ap_o_mode3ELi0EEC2EPKc(%"struct.ap_int<33>.94"* getelementptr inbounds ([128 x %"struct.ap_int<33>.94"], [128 x %"struct.ap_int<33>.94"]* @_ZN19fourth_order_doubleL6sin_K3E, i64 0, i64 113), i8* getelementptr inbounds ([15 x i8], [15 x i8]* @.str.1145.49364, i32 0, i32 0))
  call void @_ZN8ap_fixedILi33ELin5EL9ap_q_mode5EL9ap_o_mode3ELi0EEC2EPKc(%"struct.ap_int<33>.94"* getelementptr inbounds ([128 x %"struct.ap_int<33>.94"], [128 x %"struct.ap_int<33>.94"]* @_ZN19fourth_order_doubleL6sin_K3E, i64 0, i64 114), i8* getelementptr inbounds ([16 x i8], [16 x i8]* @.str.1146.49365, i32 0, i32 0))
  call void @_ZN8ap_fixedILi33ELin5EL9ap_q_mode5EL9ap_o_mode3ELi0EEC2EPKc(%"struct.ap_int<33>.94"* getelementptr inbounds ([128 x %"struct.ap_int<33>.94"], [128 x %"struct.ap_int<33>.94"]* @_ZN19fourth_order_doubleL6sin_K3E, i64 0, i64 115), i8* getelementptr inbounds ([16 x i8], [16 x i8]* @.str.1147.49366, i32 0, i32 0))
  call void @_ZN8ap_fixedILi33ELin5EL9ap_q_mode5EL9ap_o_mode3ELi0EEC2EPKc(%"struct.ap_int<33>.94"* getelementptr inbounds ([128 x %"struct.ap_int<33>.94"], [128 x %"struct.ap_int<33>.94"]* @_ZN19fourth_order_doubleL6sin_K3E, i64 0, i64 116), i8* getelementptr inbounds ([15 x i8], [15 x i8]* @.str.1148.49367, i32 0, i32 0))
  call void @_ZN8ap_fixedILi33ELin5EL9ap_q_mode5EL9ap_o_mode3ELi0EEC2EPKc(%"struct.ap_int<33>.94"* getelementptr inbounds ([128 x %"struct.ap_int<33>.94"], [128 x %"struct.ap_int<33>.94"]* @_ZN19fourth_order_doubleL6sin_K3E, i64 0, i64 117), i8* getelementptr inbounds ([16 x i8], [16 x i8]* @.str.1149.49368, i32 0, i32 0))
  call void @_ZN8ap_fixedILi33ELin5EL9ap_q_mode5EL9ap_o_mode3ELi0EEC2EPKc(%"struct.ap_int<33>.94"* getelementptr inbounds ([128 x %"struct.ap_int<33>.94"], [128 x %"struct.ap_int<33>.94"]* @_ZN19fourth_order_doubleL6sin_K3E, i64 0, i64 118), i8* getelementptr inbounds ([15 x i8], [15 x i8]* @.str.1150.49369, i32 0, i32 0))
  call void @_ZN8ap_fixedILi33ELin5EL9ap_q_mode5EL9ap_o_mode3ELi0EEC2EPKc(%"struct.ap_int<33>.94"* getelementptr inbounds ([128 x %"struct.ap_int<33>.94"], [128 x %"struct.ap_int<33>.94"]* @_ZN19fourth_order_doubleL6sin_K3E, i64 0, i64 119), i8* getelementptr inbounds ([16 x i8], [16 x i8]* @.str.1151.49370, i32 0, i32 0))
  call void @_ZN8ap_fixedILi33ELin5EL9ap_q_mode5EL9ap_o_mode3ELi0EEC2EPKc(%"struct.ap_int<33>.94"* getelementptr inbounds ([128 x %"struct.ap_int<33>.94"], [128 x %"struct.ap_int<33>.94"]* @_ZN19fourth_order_doubleL6sin_K3E, i64 0, i64 120), i8* getelementptr inbounds ([16 x i8], [16 x i8]* @.str.1152.49371, i32 0, i32 0))
  call void @_ZN8ap_fixedILi33ELin5EL9ap_q_mode5EL9ap_o_mode3ELi0EEC2EPKc(%"struct.ap_int<33>.94"* getelementptr inbounds ([128 x %"struct.ap_int<33>.94"], [128 x %"struct.ap_int<33>.94"]* @_ZN19fourth_order_doubleL6sin_K3E, i64 0, i64 121), i8* getelementptr inbounds ([16 x i8], [16 x i8]* @.str.1153.49372, i32 0, i32 0))
  call void @_ZN8ap_fixedILi33ELin5EL9ap_q_mode5EL9ap_o_mode3ELi0EEC2EPKc(%"struct.ap_int<33>.94"* getelementptr inbounds ([128 x %"struct.ap_int<33>.94"], [128 x %"struct.ap_int<33>.94"]* @_ZN19fourth_order_doubleL6sin_K3E, i64 0, i64 122), i8* getelementptr inbounds ([16 x i8], [16 x i8]* @.str.1154.49373, i32 0, i32 0))
  call void @_ZN8ap_fixedILi33ELin5EL9ap_q_mode5EL9ap_o_mode3ELi0EEC2EPKc(%"struct.ap_int<33>.94"* getelementptr inbounds ([128 x %"struct.ap_int<33>.94"], [128 x %"struct.ap_int<33>.94"]* @_ZN19fourth_order_doubleL6sin_K3E, i64 0, i64 123), i8* getelementptr inbounds ([15 x i8], [15 x i8]* @.str.1155.49374, i32 0, i32 0))
  call void @_ZN8ap_fixedILi33ELin5EL9ap_q_mode5EL9ap_o_mode3ELi0EEC2EPKc(%"struct.ap_int<33>.94"* getelementptr inbounds ([128 x %"struct.ap_int<33>.94"], [128 x %"struct.ap_int<33>.94"]* @_ZN19fourth_order_doubleL6sin_K3E, i64 0, i64 124), i8* getelementptr inbounds ([16 x i8], [16 x i8]* @.str.1156.49375, i32 0, i32 0))
  call void @_ZN8ap_fixedILi33ELin5EL9ap_q_mode5EL9ap_o_mode3ELi0EEC2EPKc(%"struct.ap_int<33>.94"* getelementptr inbounds ([128 x %"struct.ap_int<33>.94"], [128 x %"struct.ap_int<33>.94"]* @_ZN19fourth_order_doubleL6sin_K3E, i64 0, i64 125), i8* getelementptr inbounds ([16 x i8], [16 x i8]* @.str.1157.49376, i32 0, i32 0))
  call void @_ZN8ap_fixedILi33ELin5EL9ap_q_mode5EL9ap_o_mode3ELi0EEC2EPKc(%"struct.ap_int<33>.94"* getelementptr inbounds ([128 x %"struct.ap_int<33>.94"], [128 x %"struct.ap_int<33>.94"]* @_ZN19fourth_order_doubleL6sin_K3E, i64 0, i64 126), i8* getelementptr inbounds ([16 x i8], [16 x i8]* @.str.1158.49377, i32 0, i32 0))
  call void @_ZN8ap_fixedILi33ELin5EL9ap_q_mode5EL9ap_o_mode3ELi0EEC2EPKc(%"struct.ap_int<33>.94"* getelementptr inbounds ([128 x %"struct.ap_int<33>.94"], [128 x %"struct.ap_int<33>.94"]* @_ZN19fourth_order_doubleL6sin_K3E, i64 0, i64 127), i8* getelementptr inbounds ([16 x i8], [16 x i8]* @.str.1159.49378, i32 0, i32 0))
  ret void
}

; Function Attrs: nounwind
define internal void @__cxx_global_var_init.1160() #0 section ".text.startup" {
entry:
  call void @_ZN8ap_fixedILi24ELin7EL9ap_q_mode5EL9ap_o_mode3ELi0EEC2EPKc(%"struct.ap_ufixed<24, 1, AP_TRN, AP_WRAP, 0>.50"* getelementptr inbounds ([128 x %"struct.ap_ufixed<24, 1, AP_TRN, AP_WRAP, 0>.50"], [128 x %"struct.ap_ufixed<24, 1, AP_TRN, AP_WRAP, 0>.50"]* @_ZN19fourth_order_doubleL6sin_K4E, i64 0, i64 0), i8* getelementptr inbounds ([14 x i8], [14 x i8]* @.str.1161.49127, i32 0, i32 0))
  call void @_ZN8ap_fixedILi24ELin7EL9ap_q_mode5EL9ap_o_mode3ELi0EEC2EPKc(%"struct.ap_ufixed<24, 1, AP_TRN, AP_WRAP, 0>.50"* getelementptr inbounds ([128 x %"struct.ap_ufixed<24, 1, AP_TRN, AP_WRAP, 0>.50"], [128 x %"struct.ap_ufixed<24, 1, AP_TRN, AP_WRAP, 0>.50"]* @_ZN19fourth_order_doubleL6sin_K4E, i64 0, i64 1), i8* getelementptr inbounds ([13 x i8], [13 x i8]* @.str.1162.49128, i32 0, i32 0))
  call void @_ZN8ap_fixedILi24ELin7EL9ap_q_mode5EL9ap_o_mode3ELi0EEC2EPKc(%"struct.ap_ufixed<24, 1, AP_TRN, AP_WRAP, 0>.50"* getelementptr inbounds ([128 x %"struct.ap_ufixed<24, 1, AP_TRN, AP_WRAP, 0>.50"], [128 x %"struct.ap_ufixed<24, 1, AP_TRN, AP_WRAP, 0>.50"]* @_ZN19fourth_order_doubleL6sin_K4E, i64 0, i64 2), i8* getelementptr inbounds ([14 x i8], [14 x i8]* @.str.1163.49129, i32 0, i32 0))
  call void @_ZN8ap_fixedILi24ELin7EL9ap_q_mode5EL9ap_o_mode3ELi0EEC2EPKc(%"struct.ap_ufixed<24, 1, AP_TRN, AP_WRAP, 0>.50"* getelementptr inbounds ([128 x %"struct.ap_ufixed<24, 1, AP_TRN, AP_WRAP, 0>.50"], [128 x %"struct.ap_ufixed<24, 1, AP_TRN, AP_WRAP, 0>.50"]* @_ZN19fourth_order_doubleL6sin_K4E, i64 0, i64 3), i8* getelementptr inbounds ([14 x i8], [14 x i8]* @.str.1164.49130, i32 0, i32 0))
  call void @_ZN8ap_fixedILi24ELin7EL9ap_q_mode5EL9ap_o_mode3ELi0EEC2EPKc(%"struct.ap_ufixed<24, 1, AP_TRN, AP_WRAP, 0>.50"* getelementptr inbounds ([128 x %"struct.ap_ufixed<24, 1, AP_TRN, AP_WRAP, 0>.50"], [128 x %"struct.ap_ufixed<24, 1, AP_TRN, AP_WRAP, 0>.50"]* @_ZN19fourth_order_doubleL6sin_K4E, i64 0, i64 4), i8* getelementptr inbounds ([14 x i8], [14 x i8]* @.str.1165.49131, i32 0, i32 0))
  call void @_ZN8ap_fixedILi24ELin7EL9ap_q_mode5EL9ap_o_mode3ELi0EEC2EPKc(%"struct.ap_ufixed<24, 1, AP_TRN, AP_WRAP, 0>.50"* getelementptr inbounds ([128 x %"struct.ap_ufixed<24, 1, AP_TRN, AP_WRAP, 0>.50"], [128 x %"struct.ap_ufixed<24, 1, AP_TRN, AP_WRAP, 0>.50"]* @_ZN19fourth_order_doubleL6sin_K4E, i64 0, i64 5), i8* getelementptr inbounds ([14 x i8], [14 x i8]* @.str.1166.49132, i32 0, i32 0))
  call void @_ZN8ap_fixedILi24ELin7EL9ap_q_mode5EL9ap_o_mode3ELi0EEC2EPKc(%"struct.ap_ufixed<24, 1, AP_TRN, AP_WRAP, 0>.50"* getelementptr inbounds ([128 x %"struct.ap_ufixed<24, 1, AP_TRN, AP_WRAP, 0>.50"], [128 x %"struct.ap_ufixed<24, 1, AP_TRN, AP_WRAP, 0>.50"]* @_ZN19fourth_order_doubleL6sin_K4E, i64 0, i64 6), i8* getelementptr inbounds ([14 x i8], [14 x i8]* @.str.1167.49133, i32 0, i32 0))
  call void @_ZN8ap_fixedILi24ELin7EL9ap_q_mode5EL9ap_o_mode3ELi0EEC2EPKc(%"struct.ap_ufixed<24, 1, AP_TRN, AP_WRAP, 0>.50"* getelementptr inbounds ([128 x %"struct.ap_ufixed<24, 1, AP_TRN, AP_WRAP, 0>.50"], [128 x %"struct.ap_ufixed<24, 1, AP_TRN, AP_WRAP, 0>.50"]* @_ZN19fourth_order_doubleL6sin_K4E, i64 0, i64 7), i8* getelementptr inbounds ([14 x i8], [14 x i8]* @.str.1168.49134, i32 0, i32 0))
  call void @_ZN8ap_fixedILi24ELin7EL9ap_q_mode5EL9ap_o_mode3ELi0EEC2EPKc(%"struct.ap_ufixed<24, 1, AP_TRN, AP_WRAP, 0>.50"* getelementptr inbounds ([128 x %"struct.ap_ufixed<24, 1, AP_TRN, AP_WRAP, 0>.50"], [128 x %"struct.ap_ufixed<24, 1, AP_TRN, AP_WRAP, 0>.50"]* @_ZN19fourth_order_doubleL6sin_K4E, i64 0, i64 8), i8* getelementptr inbounds ([14 x i8], [14 x i8]* @.str.1169.49135, i32 0, i32 0))
  call void @_ZN8ap_fixedILi24ELin7EL9ap_q_mode5EL9ap_o_mode3ELi0EEC2EPKc(%"struct.ap_ufixed<24, 1, AP_TRN, AP_WRAP, 0>.50"* getelementptr inbounds ([128 x %"struct.ap_ufixed<24, 1, AP_TRN, AP_WRAP, 0>.50"], [128 x %"struct.ap_ufixed<24, 1, AP_TRN, AP_WRAP, 0>.50"]* @_ZN19fourth_order_doubleL6sin_K4E, i64 0, i64 9), i8* getelementptr inbounds ([14 x i8], [14 x i8]* @.str.1170.49136, i32 0, i32 0))
  call void @_ZN8ap_fixedILi24ELin7EL9ap_q_mode5EL9ap_o_mode3ELi0EEC2EPKc(%"struct.ap_ufixed<24, 1, AP_TRN, AP_WRAP, 0>.50"* getelementptr inbounds ([128 x %"struct.ap_ufixed<24, 1, AP_TRN, AP_WRAP, 0>.50"], [128 x %"struct.ap_ufixed<24, 1, AP_TRN, AP_WRAP, 0>.50"]* @_ZN19fourth_order_doubleL6sin_K4E, i64 0, i64 10), i8* getelementptr inbounds ([14 x i8], [14 x i8]* @.str.1171.49137, i32 0, i32 0))
  call void @_ZN8ap_fixedILi24ELin7EL9ap_q_mode5EL9ap_o_mode3ELi0EEC2EPKc(%"struct.ap_ufixed<24, 1, AP_TRN, AP_WRAP, 0>.50"* getelementptr inbounds ([128 x %"struct.ap_ufixed<24, 1, AP_TRN, AP_WRAP, 0>.50"], [128 x %"struct.ap_ufixed<24, 1, AP_TRN, AP_WRAP, 0>.50"]* @_ZN19fourth_order_doubleL6sin_K4E, i64 0, i64 11), i8* getelementptr inbounds ([14 x i8], [14 x i8]* @.str.1172.49138, i32 0, i32 0))
  call void @_ZN8ap_fixedILi24ELin7EL9ap_q_mode5EL9ap_o_mode3ELi0EEC2EPKc(%"struct.ap_ufixed<24, 1, AP_TRN, AP_WRAP, 0>.50"* getelementptr inbounds ([128 x %"struct.ap_ufixed<24, 1, AP_TRN, AP_WRAP, 0>.50"], [128 x %"struct.ap_ufixed<24, 1, AP_TRN, AP_WRAP, 0>.50"]* @_ZN19fourth_order_doubleL6sin_K4E, i64 0, i64 12), i8* getelementptr inbounds ([14 x i8], [14 x i8]* @.str.1173.48160, i32 0, i32 0))
  call void @_ZN8ap_fixedILi24ELin7EL9ap_q_mode5EL9ap_o_mode3ELi0EEC2EPKc(%"struct.ap_ufixed<24, 1, AP_TRN, AP_WRAP, 0>.50"* getelementptr inbounds ([128 x %"struct.ap_ufixed<24, 1, AP_TRN, AP_WRAP, 0>.50"], [128 x %"struct.ap_ufixed<24, 1, AP_TRN, AP_WRAP, 0>.50"]* @_ZN19fourth_order_doubleL6sin_K4E, i64 0, i64 13), i8* getelementptr inbounds ([14 x i8], [14 x i8]* @.str.1174.49139, i32 0, i32 0))
  call void @_ZN8ap_fixedILi24ELin7EL9ap_q_mode5EL9ap_o_mode3ELi0EEC2EPKc(%"struct.ap_ufixed<24, 1, AP_TRN, AP_WRAP, 0>.50"* getelementptr inbounds ([128 x %"struct.ap_ufixed<24, 1, AP_TRN, AP_WRAP, 0>.50"], [128 x %"struct.ap_ufixed<24, 1, AP_TRN, AP_WRAP, 0>.50"]* @_ZN19fourth_order_doubleL6sin_K4E, i64 0, i64 14), i8* getelementptr inbounds ([14 x i8], [14 x i8]* @.str.1175.49140, i32 0, i32 0))
  call void @_ZN8ap_fixedILi24ELin7EL9ap_q_mode5EL9ap_o_mode3ELi0EEC2EPKc(%"struct.ap_ufixed<24, 1, AP_TRN, AP_WRAP, 0>.50"* getelementptr inbounds ([128 x %"struct.ap_ufixed<24, 1, AP_TRN, AP_WRAP, 0>.50"], [128 x %"struct.ap_ufixed<24, 1, AP_TRN, AP_WRAP, 0>.50"]* @_ZN19fourth_order_doubleL6sin_K4E, i64 0, i64 15), i8* getelementptr inbounds ([14 x i8], [14 x i8]* @.str.1176.49141, i32 0, i32 0))
  call void @_ZN8ap_fixedILi24ELin7EL9ap_q_mode5EL9ap_o_mode3ELi0EEC2EPKc(%"struct.ap_ufixed<24, 1, AP_TRN, AP_WRAP, 0>.50"* getelementptr inbounds ([128 x %"struct.ap_ufixed<24, 1, AP_TRN, AP_WRAP, 0>.50"], [128 x %"struct.ap_ufixed<24, 1, AP_TRN, AP_WRAP, 0>.50"]* @_ZN19fourth_order_doubleL6sin_K4E, i64 0, i64 16), i8* getelementptr inbounds ([14 x i8], [14 x i8]* @.str.1177.49142, i32 0, i32 0))
  call void @_ZN8ap_fixedILi24ELin7EL9ap_q_mode5EL9ap_o_mode3ELi0EEC2EPKc(%"struct.ap_ufixed<24, 1, AP_TRN, AP_WRAP, 0>.50"* getelementptr inbounds ([128 x %"struct.ap_ufixed<24, 1, AP_TRN, AP_WRAP, 0>.50"], [128 x %"struct.ap_ufixed<24, 1, AP_TRN, AP_WRAP, 0>.50"]* @_ZN19fourth_order_doubleL6sin_K4E, i64 0, i64 17), i8* getelementptr inbounds ([14 x i8], [14 x i8]* @.str.1178.49143, i32 0, i32 0))
  call void @_ZN8ap_fixedILi24ELin7EL9ap_q_mode5EL9ap_o_mode3ELi0EEC2EPKc(%"struct.ap_ufixed<24, 1, AP_TRN, AP_WRAP, 0>.50"* getelementptr inbounds ([128 x %"struct.ap_ufixed<24, 1, AP_TRN, AP_WRAP, 0>.50"], [128 x %"struct.ap_ufixed<24, 1, AP_TRN, AP_WRAP, 0>.50"]* @_ZN19fourth_order_doubleL6sin_K4E, i64 0, i64 18), i8* getelementptr inbounds ([14 x i8], [14 x i8]* @.str.1179.49144, i32 0, i32 0))
  call void @_ZN8ap_fixedILi24ELin7EL9ap_q_mode5EL9ap_o_mode3ELi0EEC2EPKc(%"struct.ap_ufixed<24, 1, AP_TRN, AP_WRAP, 0>.50"* getelementptr inbounds ([128 x %"struct.ap_ufixed<24, 1, AP_TRN, AP_WRAP, 0>.50"], [128 x %"struct.ap_ufixed<24, 1, AP_TRN, AP_WRAP, 0>.50"]* @_ZN19fourth_order_doubleL6sin_K4E, i64 0, i64 19), i8* getelementptr inbounds ([14 x i8], [14 x i8]* @.str.1180.48161, i32 0, i32 0))
  call void @_ZN8ap_fixedILi24ELin7EL9ap_q_mode5EL9ap_o_mode3ELi0EEC2EPKc(%"struct.ap_ufixed<24, 1, AP_TRN, AP_WRAP, 0>.50"* getelementptr inbounds ([128 x %"struct.ap_ufixed<24, 1, AP_TRN, AP_WRAP, 0>.50"], [128 x %"struct.ap_ufixed<24, 1, AP_TRN, AP_WRAP, 0>.50"]* @_ZN19fourth_order_doubleL6sin_K4E, i64 0, i64 20), i8* getelementptr inbounds ([14 x i8], [14 x i8]* @.str.1181.49145, i32 0, i32 0))
  call void @_ZN8ap_fixedILi24ELin7EL9ap_q_mode5EL9ap_o_mode3ELi0EEC2EPKc(%"struct.ap_ufixed<24, 1, AP_TRN, AP_WRAP, 0>.50"* getelementptr inbounds ([128 x %"struct.ap_ufixed<24, 1, AP_TRN, AP_WRAP, 0>.50"], [128 x %"struct.ap_ufixed<24, 1, AP_TRN, AP_WRAP, 0>.50"]* @_ZN19fourth_order_doubleL6sin_K4E, i64 0, i64 21), i8* getelementptr inbounds ([14 x i8], [14 x i8]* @.str.1182.49146, i32 0, i32 0))
  call void @_ZN8ap_fixedILi24ELin7EL9ap_q_mode5EL9ap_o_mode3ELi0EEC2EPKc(%"struct.ap_ufixed<24, 1, AP_TRN, AP_WRAP, 0>.50"* getelementptr inbounds ([128 x %"struct.ap_ufixed<24, 1, AP_TRN, AP_WRAP, 0>.50"], [128 x %"struct.ap_ufixed<24, 1, AP_TRN, AP_WRAP, 0>.50"]* @_ZN19fourth_order_doubleL6sin_K4E, i64 0, i64 22), i8* getelementptr inbounds ([14 x i8], [14 x i8]* @.str.1183.49147, i32 0, i32 0))
  call void @_ZN8ap_fixedILi24ELin7EL9ap_q_mode5EL9ap_o_mode3ELi0EEC2EPKc(%"struct.ap_ufixed<24, 1, AP_TRN, AP_WRAP, 0>.50"* getelementptr inbounds ([128 x %"struct.ap_ufixed<24, 1, AP_TRN, AP_WRAP, 0>.50"], [128 x %"struct.ap_ufixed<24, 1, AP_TRN, AP_WRAP, 0>.50"]* @_ZN19fourth_order_doubleL6sin_K4E, i64 0, i64 23), i8* getelementptr inbounds ([13 x i8], [13 x i8]* @.str.1184.49148, i32 0, i32 0))
  call void @_ZN8ap_fixedILi24ELin7EL9ap_q_mode5EL9ap_o_mode3ELi0EEC2EPKc(%"struct.ap_ufixed<24, 1, AP_TRN, AP_WRAP, 0>.50"* getelementptr inbounds ([128 x %"struct.ap_ufixed<24, 1, AP_TRN, AP_WRAP, 0>.50"], [128 x %"struct.ap_ufixed<24, 1, AP_TRN, AP_WRAP, 0>.50"]* @_ZN19fourth_order_doubleL6sin_K4E, i64 0, i64 24), i8* getelementptr inbounds ([14 x i8], [14 x i8]* @.str.1185.49149, i32 0, i32 0))
  call void @_ZN8ap_fixedILi24ELin7EL9ap_q_mode5EL9ap_o_mode3ELi0EEC2EPKc(%"struct.ap_ufixed<24, 1, AP_TRN, AP_WRAP, 0>.50"* getelementptr inbounds ([128 x %"struct.ap_ufixed<24, 1, AP_TRN, AP_WRAP, 0>.50"], [128 x %"struct.ap_ufixed<24, 1, AP_TRN, AP_WRAP, 0>.50"]* @_ZN19fourth_order_doubleL6sin_K4E, i64 0, i64 25), i8* getelementptr inbounds ([14 x i8], [14 x i8]* @.str.1186.49150, i32 0, i32 0))
  call void @_ZN8ap_fixedILi24ELin7EL9ap_q_mode5EL9ap_o_mode3ELi0EEC2EPKc(%"struct.ap_ufixed<24, 1, AP_TRN, AP_WRAP, 0>.50"* getelementptr inbounds ([128 x %"struct.ap_ufixed<24, 1, AP_TRN, AP_WRAP, 0>.50"], [128 x %"struct.ap_ufixed<24, 1, AP_TRN, AP_WRAP, 0>.50"]* @_ZN19fourth_order_doubleL6sin_K4E, i64 0, i64 26), i8* getelementptr inbounds ([14 x i8], [14 x i8]* @.str.1187.49151, i32 0, i32 0))
  call void @_ZN8ap_fixedILi24ELin7EL9ap_q_mode5EL9ap_o_mode3ELi0EEC2EPKc(%"struct.ap_ufixed<24, 1, AP_TRN, AP_WRAP, 0>.50"* getelementptr inbounds ([128 x %"struct.ap_ufixed<24, 1, AP_TRN, AP_WRAP, 0>.50"], [128 x %"struct.ap_ufixed<24, 1, AP_TRN, AP_WRAP, 0>.50"]* @_ZN19fourth_order_doubleL6sin_K4E, i64 0, i64 27), i8* getelementptr inbounds ([14 x i8], [14 x i8]* @.str.1188.49152, i32 0, i32 0))
  call void @_ZN8ap_fixedILi24ELin7EL9ap_q_mode5EL9ap_o_mode3ELi0EEC2EPKc(%"struct.ap_ufixed<24, 1, AP_TRN, AP_WRAP, 0>.50"* getelementptr inbounds ([128 x %"struct.ap_ufixed<24, 1, AP_TRN, AP_WRAP, 0>.50"], [128 x %"struct.ap_ufixed<24, 1, AP_TRN, AP_WRAP, 0>.50"]* @_ZN19fourth_order_doubleL6sin_K4E, i64 0, i64 28), i8* getelementptr inbounds ([14 x i8], [14 x i8]* @.str.1189.49153, i32 0, i32 0))
  call void @_ZN8ap_fixedILi24ELin7EL9ap_q_mode5EL9ap_o_mode3ELi0EEC2EPKc(%"struct.ap_ufixed<24, 1, AP_TRN, AP_WRAP, 0>.50"* getelementptr inbounds ([128 x %"struct.ap_ufixed<24, 1, AP_TRN, AP_WRAP, 0>.50"], [128 x %"struct.ap_ufixed<24, 1, AP_TRN, AP_WRAP, 0>.50"]* @_ZN19fourth_order_doubleL6sin_K4E, i64 0, i64 29), i8* getelementptr inbounds ([14 x i8], [14 x i8]* @.str.1190.49154, i32 0, i32 0))
  call void @_ZN8ap_fixedILi24ELin7EL9ap_q_mode5EL9ap_o_mode3ELi0EEC2EPKc(%"struct.ap_ufixed<24, 1, AP_TRN, AP_WRAP, 0>.50"* getelementptr inbounds ([128 x %"struct.ap_ufixed<24, 1, AP_TRN, AP_WRAP, 0>.50"], [128 x %"struct.ap_ufixed<24, 1, AP_TRN, AP_WRAP, 0>.50"]* @_ZN19fourth_order_doubleL6sin_K4E, i64 0, i64 30), i8* getelementptr inbounds ([14 x i8], [14 x i8]* @.str.1191.49155, i32 0, i32 0))
  call void @_ZN8ap_fixedILi24ELin7EL9ap_q_mode5EL9ap_o_mode3ELi0EEC2EPKc(%"struct.ap_ufixed<24, 1, AP_TRN, AP_WRAP, 0>.50"* getelementptr inbounds ([128 x %"struct.ap_ufixed<24, 1, AP_TRN, AP_WRAP, 0>.50"], [128 x %"struct.ap_ufixed<24, 1, AP_TRN, AP_WRAP, 0>.50"]* @_ZN19fourth_order_doubleL6sin_K4E, i64 0, i64 31), i8* getelementptr inbounds ([14 x i8], [14 x i8]* @.str.1192.49156, i32 0, i32 0))
  call void @_ZN8ap_fixedILi24ELin7EL9ap_q_mode5EL9ap_o_mode3ELi0EEC2EPKc(%"struct.ap_ufixed<24, 1, AP_TRN, AP_WRAP, 0>.50"* getelementptr inbounds ([128 x %"struct.ap_ufixed<24, 1, AP_TRN, AP_WRAP, 0>.50"], [128 x %"struct.ap_ufixed<24, 1, AP_TRN, AP_WRAP, 0>.50"]* @_ZN19fourth_order_doubleL6sin_K4E, i64 0, i64 32), i8* getelementptr inbounds ([14 x i8], [14 x i8]* @.str.1193.49157, i32 0, i32 0))
  call void @_ZN8ap_fixedILi24ELin7EL9ap_q_mode5EL9ap_o_mode3ELi0EEC2EPKc(%"struct.ap_ufixed<24, 1, AP_TRN, AP_WRAP, 0>.50"* getelementptr inbounds ([128 x %"struct.ap_ufixed<24, 1, AP_TRN, AP_WRAP, 0>.50"], [128 x %"struct.ap_ufixed<24, 1, AP_TRN, AP_WRAP, 0>.50"]* @_ZN19fourth_order_doubleL6sin_K4E, i64 0, i64 33), i8* getelementptr inbounds ([14 x i8], [14 x i8]* @.str.1194.49158, i32 0, i32 0))
  call void @_ZN8ap_fixedILi24ELin7EL9ap_q_mode5EL9ap_o_mode3ELi0EEC2EPKc(%"struct.ap_ufixed<24, 1, AP_TRN, AP_WRAP, 0>.50"* getelementptr inbounds ([128 x %"struct.ap_ufixed<24, 1, AP_TRN, AP_WRAP, 0>.50"], [128 x %"struct.ap_ufixed<24, 1, AP_TRN, AP_WRAP, 0>.50"]* @_ZN19fourth_order_doubleL6sin_K4E, i64 0, i64 34), i8* getelementptr inbounds ([14 x i8], [14 x i8]* @.str.1195.49159, i32 0, i32 0))
  call void @_ZN8ap_fixedILi24ELin7EL9ap_q_mode5EL9ap_o_mode3ELi0EEC2EPKc(%"struct.ap_ufixed<24, 1, AP_TRN, AP_WRAP, 0>.50"* getelementptr inbounds ([128 x %"struct.ap_ufixed<24, 1, AP_TRN, AP_WRAP, 0>.50"], [128 x %"struct.ap_ufixed<24, 1, AP_TRN, AP_WRAP, 0>.50"]* @_ZN19fourth_order_doubleL6sin_K4E, i64 0, i64 35), i8* getelementptr inbounds ([14 x i8], [14 x i8]* @.str.1196.49160, i32 0, i32 0))
  call void @_ZN8ap_fixedILi24ELin7EL9ap_q_mode5EL9ap_o_mode3ELi0EEC2EPKc(%"struct.ap_ufixed<24, 1, AP_TRN, AP_WRAP, 0>.50"* getelementptr inbounds ([128 x %"struct.ap_ufixed<24, 1, AP_TRN, AP_WRAP, 0>.50"], [128 x %"struct.ap_ufixed<24, 1, AP_TRN, AP_WRAP, 0>.50"]* @_ZN19fourth_order_doubleL6sin_K4E, i64 0, i64 36), i8* getelementptr inbounds ([14 x i8], [14 x i8]* @.str.1197.49161, i32 0, i32 0))
  call void @_ZN8ap_fixedILi24ELin7EL9ap_q_mode5EL9ap_o_mode3ELi0EEC2EPKc(%"struct.ap_ufixed<24, 1, AP_TRN, AP_WRAP, 0>.50"* getelementptr inbounds ([128 x %"struct.ap_ufixed<24, 1, AP_TRN, AP_WRAP, 0>.50"], [128 x %"struct.ap_ufixed<24, 1, AP_TRN, AP_WRAP, 0>.50"]* @_ZN19fourth_order_doubleL6sin_K4E, i64 0, i64 37), i8* getelementptr inbounds ([14 x i8], [14 x i8]* @.str.1198.49162, i32 0, i32 0))
  call void @_ZN8ap_fixedILi24ELin7EL9ap_q_mode5EL9ap_o_mode3ELi0EEC2EPKc(%"struct.ap_ufixed<24, 1, AP_TRN, AP_WRAP, 0>.50"* getelementptr inbounds ([128 x %"struct.ap_ufixed<24, 1, AP_TRN, AP_WRAP, 0>.50"], [128 x %"struct.ap_ufixed<24, 1, AP_TRN, AP_WRAP, 0>.50"]* @_ZN19fourth_order_doubleL6sin_K4E, i64 0, i64 38), i8* getelementptr inbounds ([14 x i8], [14 x i8]* @.str.1199.49163, i32 0, i32 0))
  call void @_ZN8ap_fixedILi24ELin7EL9ap_q_mode5EL9ap_o_mode3ELi0EEC2EPKc(%"struct.ap_ufixed<24, 1, AP_TRN, AP_WRAP, 0>.50"* getelementptr inbounds ([128 x %"struct.ap_ufixed<24, 1, AP_TRN, AP_WRAP, 0>.50"], [128 x %"struct.ap_ufixed<24, 1, AP_TRN, AP_WRAP, 0>.50"]* @_ZN19fourth_order_doubleL6sin_K4E, i64 0, i64 39), i8* getelementptr inbounds ([14 x i8], [14 x i8]* @.str.1200.49164, i32 0, i32 0))
  call void @_ZN8ap_fixedILi24ELin7EL9ap_q_mode5EL9ap_o_mode3ELi0EEC2EPKc(%"struct.ap_ufixed<24, 1, AP_TRN, AP_WRAP, 0>.50"* getelementptr inbounds ([128 x %"struct.ap_ufixed<24, 1, AP_TRN, AP_WRAP, 0>.50"], [128 x %"struct.ap_ufixed<24, 1, AP_TRN, AP_WRAP, 0>.50"]* @_ZN19fourth_order_doubleL6sin_K4E, i64 0, i64 40), i8* getelementptr inbounds ([14 x i8], [14 x i8]* @.str.1201.49165, i32 0, i32 0))
  call void @_ZN8ap_fixedILi24ELin7EL9ap_q_mode5EL9ap_o_mode3ELi0EEC2EPKc(%"struct.ap_ufixed<24, 1, AP_TRN, AP_WRAP, 0>.50"* getelementptr inbounds ([128 x %"struct.ap_ufixed<24, 1, AP_TRN, AP_WRAP, 0>.50"], [128 x %"struct.ap_ufixed<24, 1, AP_TRN, AP_WRAP, 0>.50"]* @_ZN19fourth_order_doubleL6sin_K4E, i64 0, i64 41), i8* getelementptr inbounds ([14 x i8], [14 x i8]* @.str.1202.49166, i32 0, i32 0))
  call void @_ZN8ap_fixedILi24ELin7EL9ap_q_mode5EL9ap_o_mode3ELi0EEC2EPKc(%"struct.ap_ufixed<24, 1, AP_TRN, AP_WRAP, 0>.50"* getelementptr inbounds ([128 x %"struct.ap_ufixed<24, 1, AP_TRN, AP_WRAP, 0>.50"], [128 x %"struct.ap_ufixed<24, 1, AP_TRN, AP_WRAP, 0>.50"]* @_ZN19fourth_order_doubleL6sin_K4E, i64 0, i64 42), i8* getelementptr inbounds ([14 x i8], [14 x i8]* @.str.1203.49167, i32 0, i32 0))
  call void @_ZN8ap_fixedILi24ELin7EL9ap_q_mode5EL9ap_o_mode3ELi0EEC2EPKc(%"struct.ap_ufixed<24, 1, AP_TRN, AP_WRAP, 0>.50"* getelementptr inbounds ([128 x %"struct.ap_ufixed<24, 1, AP_TRN, AP_WRAP, 0>.50"], [128 x %"struct.ap_ufixed<24, 1, AP_TRN, AP_WRAP, 0>.50"]* @_ZN19fourth_order_doubleL6sin_K4E, i64 0, i64 43), i8* getelementptr inbounds ([13 x i8], [13 x i8]* @.str.1204.49168, i32 0, i32 0))
  call void @_ZN8ap_fixedILi24ELin7EL9ap_q_mode5EL9ap_o_mode3ELi0EEC2EPKc(%"struct.ap_ufixed<24, 1, AP_TRN, AP_WRAP, 0>.50"* getelementptr inbounds ([128 x %"struct.ap_ufixed<24, 1, AP_TRN, AP_WRAP, 0>.50"], [128 x %"struct.ap_ufixed<24, 1, AP_TRN, AP_WRAP, 0>.50"]* @_ZN19fourth_order_doubleL6sin_K4E, i64 0, i64 44), i8* getelementptr inbounds ([14 x i8], [14 x i8]* @.str.1205.49169, i32 0, i32 0))
  call void @_ZN8ap_fixedILi24ELin7EL9ap_q_mode5EL9ap_o_mode3ELi0EEC2EPKc(%"struct.ap_ufixed<24, 1, AP_TRN, AP_WRAP, 0>.50"* getelementptr inbounds ([128 x %"struct.ap_ufixed<24, 1, AP_TRN, AP_WRAP, 0>.50"], [128 x %"struct.ap_ufixed<24, 1, AP_TRN, AP_WRAP, 0>.50"]* @_ZN19fourth_order_doubleL6sin_K4E, i64 0, i64 45), i8* getelementptr inbounds ([14 x i8], [14 x i8]* @.str.1206.49170, i32 0, i32 0))
  call void @_ZN8ap_fixedILi24ELin7EL9ap_q_mode5EL9ap_o_mode3ELi0EEC2EPKc(%"struct.ap_ufixed<24, 1, AP_TRN, AP_WRAP, 0>.50"* getelementptr inbounds ([128 x %"struct.ap_ufixed<24, 1, AP_TRN, AP_WRAP, 0>.50"], [128 x %"struct.ap_ufixed<24, 1, AP_TRN, AP_WRAP, 0>.50"]* @_ZN19fourth_order_doubleL6sin_K4E, i64 0, i64 46), i8* getelementptr inbounds ([14 x i8], [14 x i8]* @.str.1207.49171, i32 0, i32 0))
  call void @_ZN8ap_fixedILi24ELin7EL9ap_q_mode5EL9ap_o_mode3ELi0EEC2EPKc(%"struct.ap_ufixed<24, 1, AP_TRN, AP_WRAP, 0>.50"* getelementptr inbounds ([128 x %"struct.ap_ufixed<24, 1, AP_TRN, AP_WRAP, 0>.50"], [128 x %"struct.ap_ufixed<24, 1, AP_TRN, AP_WRAP, 0>.50"]* @_ZN19fourth_order_doubleL6sin_K4E, i64 0, i64 47), i8* getelementptr inbounds ([13 x i8], [13 x i8]* @.str.1208.49172, i32 0, i32 0))
  call void @_ZN8ap_fixedILi24ELin7EL9ap_q_mode5EL9ap_o_mode3ELi0EEC2EPKc(%"struct.ap_ufixed<24, 1, AP_TRN, AP_WRAP, 0>.50"* getelementptr inbounds ([128 x %"struct.ap_ufixed<24, 1, AP_TRN, AP_WRAP, 0>.50"], [128 x %"struct.ap_ufixed<24, 1, AP_TRN, AP_WRAP, 0>.50"]* @_ZN19fourth_order_doubleL6sin_K4E, i64 0, i64 48), i8* getelementptr inbounds ([14 x i8], [14 x i8]* @.str.1209.49173, i32 0, i32 0))
  call void @_ZN8ap_fixedILi24ELin7EL9ap_q_mode5EL9ap_o_mode3ELi0EEC2EPKc(%"struct.ap_ufixed<24, 1, AP_TRN, AP_WRAP, 0>.50"* getelementptr inbounds ([128 x %"struct.ap_ufixed<24, 1, AP_TRN, AP_WRAP, 0>.50"], [128 x %"struct.ap_ufixed<24, 1, AP_TRN, AP_WRAP, 0>.50"]* @_ZN19fourth_order_doubleL6sin_K4E, i64 0, i64 49), i8* getelementptr inbounds ([14 x i8], [14 x i8]* @.str.1210.49174, i32 0, i32 0))
  call void @_ZN8ap_fixedILi24ELin7EL9ap_q_mode5EL9ap_o_mode3ELi0EEC2EPKc(%"struct.ap_ufixed<24, 1, AP_TRN, AP_WRAP, 0>.50"* getelementptr inbounds ([128 x %"struct.ap_ufixed<24, 1, AP_TRN, AP_WRAP, 0>.50"], [128 x %"struct.ap_ufixed<24, 1, AP_TRN, AP_WRAP, 0>.50"]* @_ZN19fourth_order_doubleL6sin_K4E, i64 0, i64 50), i8* getelementptr inbounds ([14 x i8], [14 x i8]* @.str.1211.49175, i32 0, i32 0))
  call void @_ZN8ap_fixedILi24ELin7EL9ap_q_mode5EL9ap_o_mode3ELi0EEC2EPKc(%"struct.ap_ufixed<24, 1, AP_TRN, AP_WRAP, 0>.50"* getelementptr inbounds ([128 x %"struct.ap_ufixed<24, 1, AP_TRN, AP_WRAP, 0>.50"], [128 x %"struct.ap_ufixed<24, 1, AP_TRN, AP_WRAP, 0>.50"]* @_ZN19fourth_order_doubleL6sin_K4E, i64 0, i64 51), i8* getelementptr inbounds ([14 x i8], [14 x i8]* @.str.1212.49176, i32 0, i32 0))
  call void @_ZN8ap_fixedILi24ELin7EL9ap_q_mode5EL9ap_o_mode3ELi0EEC2EPKc(%"struct.ap_ufixed<24, 1, AP_TRN, AP_WRAP, 0>.50"* getelementptr inbounds ([128 x %"struct.ap_ufixed<24, 1, AP_TRN, AP_WRAP, 0>.50"], [128 x %"struct.ap_ufixed<24, 1, AP_TRN, AP_WRAP, 0>.50"]* @_ZN19fourth_order_doubleL6sin_K4E, i64 0, i64 52), i8* getelementptr inbounds ([14 x i8], [14 x i8]* @.str.1213.49177, i32 0, i32 0))
  call void @_ZN8ap_fixedILi24ELin7EL9ap_q_mode5EL9ap_o_mode3ELi0EEC2EPKc(%"struct.ap_ufixed<24, 1, AP_TRN, AP_WRAP, 0>.50"* getelementptr inbounds ([128 x %"struct.ap_ufixed<24, 1, AP_TRN, AP_WRAP, 0>.50"], [128 x %"struct.ap_ufixed<24, 1, AP_TRN, AP_WRAP, 0>.50"]* @_ZN19fourth_order_doubleL6sin_K4E, i64 0, i64 53), i8* getelementptr inbounds ([14 x i8], [14 x i8]* @.str.1214.49178, i32 0, i32 0))
  call void @_ZN8ap_fixedILi24ELin7EL9ap_q_mode5EL9ap_o_mode3ELi0EEC2EPKc(%"struct.ap_ufixed<24, 1, AP_TRN, AP_WRAP, 0>.50"* getelementptr inbounds ([128 x %"struct.ap_ufixed<24, 1, AP_TRN, AP_WRAP, 0>.50"], [128 x %"struct.ap_ufixed<24, 1, AP_TRN, AP_WRAP, 0>.50"]* @_ZN19fourth_order_doubleL6sin_K4E, i64 0, i64 54), i8* getelementptr inbounds ([14 x i8], [14 x i8]* @.str.1215.49179, i32 0, i32 0))
  call void @_ZN8ap_fixedILi24ELin7EL9ap_q_mode5EL9ap_o_mode3ELi0EEC2EPKc(%"struct.ap_ufixed<24, 1, AP_TRN, AP_WRAP, 0>.50"* getelementptr inbounds ([128 x %"struct.ap_ufixed<24, 1, AP_TRN, AP_WRAP, 0>.50"], [128 x %"struct.ap_ufixed<24, 1, AP_TRN, AP_WRAP, 0>.50"]* @_ZN19fourth_order_doubleL6sin_K4E, i64 0, i64 55), i8* getelementptr inbounds ([14 x i8], [14 x i8]* @.str.1216.49180, i32 0, i32 0))
  call void @_ZN8ap_fixedILi24ELin7EL9ap_q_mode5EL9ap_o_mode3ELi0EEC2EPKc(%"struct.ap_ufixed<24, 1, AP_TRN, AP_WRAP, 0>.50"* getelementptr inbounds ([128 x %"struct.ap_ufixed<24, 1, AP_TRN, AP_WRAP, 0>.50"], [128 x %"struct.ap_ufixed<24, 1, AP_TRN, AP_WRAP, 0>.50"]* @_ZN19fourth_order_doubleL6sin_K4E, i64 0, i64 56), i8* getelementptr inbounds ([14 x i8], [14 x i8]* @.str.1217.49181, i32 0, i32 0))
  call void @_ZN8ap_fixedILi24ELin7EL9ap_q_mode5EL9ap_o_mode3ELi0EEC2EPKc(%"struct.ap_ufixed<24, 1, AP_TRN, AP_WRAP, 0>.50"* getelementptr inbounds ([128 x %"struct.ap_ufixed<24, 1, AP_TRN, AP_WRAP, 0>.50"], [128 x %"struct.ap_ufixed<24, 1, AP_TRN, AP_WRAP, 0>.50"]* @_ZN19fourth_order_doubleL6sin_K4E, i64 0, i64 57), i8* getelementptr inbounds ([14 x i8], [14 x i8]* @.str.1218.49182, i32 0, i32 0))
  call void @_ZN8ap_fixedILi24ELin7EL9ap_q_mode5EL9ap_o_mode3ELi0EEC2EPKc(%"struct.ap_ufixed<24, 1, AP_TRN, AP_WRAP, 0>.50"* getelementptr inbounds ([128 x %"struct.ap_ufixed<24, 1, AP_TRN, AP_WRAP, 0>.50"], [128 x %"struct.ap_ufixed<24, 1, AP_TRN, AP_WRAP, 0>.50"]* @_ZN19fourth_order_doubleL6sin_K4E, i64 0, i64 58), i8* getelementptr inbounds ([14 x i8], [14 x i8]* @.str.1219.49183, i32 0, i32 0))
  call void @_ZN8ap_fixedILi24ELin7EL9ap_q_mode5EL9ap_o_mode3ELi0EEC2EPKc(%"struct.ap_ufixed<24, 1, AP_TRN, AP_WRAP, 0>.50"* getelementptr inbounds ([128 x %"struct.ap_ufixed<24, 1, AP_TRN, AP_WRAP, 0>.50"], [128 x %"struct.ap_ufixed<24, 1, AP_TRN, AP_WRAP, 0>.50"]* @_ZN19fourth_order_doubleL6sin_K4E, i64 0, i64 59), i8* getelementptr inbounds ([14 x i8], [14 x i8]* @.str.1220.49184, i32 0, i32 0))
  call void @_ZN8ap_fixedILi24ELin7EL9ap_q_mode5EL9ap_o_mode3ELi0EEC2EPKc(%"struct.ap_ufixed<24, 1, AP_TRN, AP_WRAP, 0>.50"* getelementptr inbounds ([128 x %"struct.ap_ufixed<24, 1, AP_TRN, AP_WRAP, 0>.50"], [128 x %"struct.ap_ufixed<24, 1, AP_TRN, AP_WRAP, 0>.50"]* @_ZN19fourth_order_doubleL6sin_K4E, i64 0, i64 60), i8* getelementptr inbounds ([14 x i8], [14 x i8]* @.str.1221.49185, i32 0, i32 0))
  call void @_ZN8ap_fixedILi24ELin7EL9ap_q_mode5EL9ap_o_mode3ELi0EEC2EPKc(%"struct.ap_ufixed<24, 1, AP_TRN, AP_WRAP, 0>.50"* getelementptr inbounds ([128 x %"struct.ap_ufixed<24, 1, AP_TRN, AP_WRAP, 0>.50"], [128 x %"struct.ap_ufixed<24, 1, AP_TRN, AP_WRAP, 0>.50"]* @_ZN19fourth_order_doubleL6sin_K4E, i64 0, i64 61), i8* getelementptr inbounds ([14 x i8], [14 x i8]* @.str.1222.49186, i32 0, i32 0))
  call void @_ZN8ap_fixedILi24ELin7EL9ap_q_mode5EL9ap_o_mode3ELi0EEC2EPKc(%"struct.ap_ufixed<24, 1, AP_TRN, AP_WRAP, 0>.50"* getelementptr inbounds ([128 x %"struct.ap_ufixed<24, 1, AP_TRN, AP_WRAP, 0>.50"], [128 x %"struct.ap_ufixed<24, 1, AP_TRN, AP_WRAP, 0>.50"]* @_ZN19fourth_order_doubleL6sin_K4E, i64 0, i64 62), i8* getelementptr inbounds ([14 x i8], [14 x i8]* @.str.1223.49187, i32 0, i32 0))
  call void @_ZN8ap_fixedILi24ELin7EL9ap_q_mode5EL9ap_o_mode3ELi0EEC2EPKc(%"struct.ap_ufixed<24, 1, AP_TRN, AP_WRAP, 0>.50"* getelementptr inbounds ([128 x %"struct.ap_ufixed<24, 1, AP_TRN, AP_WRAP, 0>.50"], [128 x %"struct.ap_ufixed<24, 1, AP_TRN, AP_WRAP, 0>.50"]* @_ZN19fourth_order_doubleL6sin_K4E, i64 0, i64 63), i8* getelementptr inbounds ([14 x i8], [14 x i8]* @.str.1224.49188, i32 0, i32 0))
  call void @_ZN8ap_fixedILi24ELin7EL9ap_q_mode5EL9ap_o_mode3ELi0EEC2EPKc(%"struct.ap_ufixed<24, 1, AP_TRN, AP_WRAP, 0>.50"* getelementptr inbounds ([128 x %"struct.ap_ufixed<24, 1, AP_TRN, AP_WRAP, 0>.50"], [128 x %"struct.ap_ufixed<24, 1, AP_TRN, AP_WRAP, 0>.50"]* @_ZN19fourth_order_doubleL6sin_K4E, i64 0, i64 64), i8* getelementptr inbounds ([14 x i8], [14 x i8]* @.str.1225.49189, i32 0, i32 0))
  call void @_ZN8ap_fixedILi24ELin7EL9ap_q_mode5EL9ap_o_mode3ELi0EEC2EPKc(%"struct.ap_ufixed<24, 1, AP_TRN, AP_WRAP, 0>.50"* getelementptr inbounds ([128 x %"struct.ap_ufixed<24, 1, AP_TRN, AP_WRAP, 0>.50"], [128 x %"struct.ap_ufixed<24, 1, AP_TRN, AP_WRAP, 0>.50"]* @_ZN19fourth_order_doubleL6sin_K4E, i64 0, i64 65), i8* getelementptr inbounds ([14 x i8], [14 x i8]* @.str.1226.49190, i32 0, i32 0))
  call void @_ZN8ap_fixedILi24ELin7EL9ap_q_mode5EL9ap_o_mode3ELi0EEC2EPKc(%"struct.ap_ufixed<24, 1, AP_TRN, AP_WRAP, 0>.50"* getelementptr inbounds ([128 x %"struct.ap_ufixed<24, 1, AP_TRN, AP_WRAP, 0>.50"], [128 x %"struct.ap_ufixed<24, 1, AP_TRN, AP_WRAP, 0>.50"]* @_ZN19fourth_order_doubleL6sin_K4E, i64 0, i64 66), i8* getelementptr inbounds ([13 x i8], [13 x i8]* @.str.1227.49191, i32 0, i32 0))
  call void @_ZN8ap_fixedILi24ELin7EL9ap_q_mode5EL9ap_o_mode3ELi0EEC2EPKc(%"struct.ap_ufixed<24, 1, AP_TRN, AP_WRAP, 0>.50"* getelementptr inbounds ([128 x %"struct.ap_ufixed<24, 1, AP_TRN, AP_WRAP, 0>.50"], [128 x %"struct.ap_ufixed<24, 1, AP_TRN, AP_WRAP, 0>.50"]* @_ZN19fourth_order_doubleL6sin_K4E, i64 0, i64 67), i8* getelementptr inbounds ([14 x i8], [14 x i8]* @.str.1228.49192, i32 0, i32 0))
  call void @_ZN8ap_fixedILi24ELin7EL9ap_q_mode5EL9ap_o_mode3ELi0EEC2EPKc(%"struct.ap_ufixed<24, 1, AP_TRN, AP_WRAP, 0>.50"* getelementptr inbounds ([128 x %"struct.ap_ufixed<24, 1, AP_TRN, AP_WRAP, 0>.50"], [128 x %"struct.ap_ufixed<24, 1, AP_TRN, AP_WRAP, 0>.50"]* @_ZN19fourth_order_doubleL6sin_K4E, i64 0, i64 68), i8* getelementptr inbounds ([13 x i8], [13 x i8]* @.str.1229.49193, i32 0, i32 0))
  call void @_ZN8ap_fixedILi24ELin7EL9ap_q_mode5EL9ap_o_mode3ELi0EEC2EPKc(%"struct.ap_ufixed<24, 1, AP_TRN, AP_WRAP, 0>.50"* getelementptr inbounds ([128 x %"struct.ap_ufixed<24, 1, AP_TRN, AP_WRAP, 0>.50"], [128 x %"struct.ap_ufixed<24, 1, AP_TRN, AP_WRAP, 0>.50"]* @_ZN19fourth_order_doubleL6sin_K4E, i64 0, i64 69), i8* getelementptr inbounds ([14 x i8], [14 x i8]* @.str.1230.49194, i32 0, i32 0))
  call void @_ZN8ap_fixedILi24ELin7EL9ap_q_mode5EL9ap_o_mode3ELi0EEC2EPKc(%"struct.ap_ufixed<24, 1, AP_TRN, AP_WRAP, 0>.50"* getelementptr inbounds ([128 x %"struct.ap_ufixed<24, 1, AP_TRN, AP_WRAP, 0>.50"], [128 x %"struct.ap_ufixed<24, 1, AP_TRN, AP_WRAP, 0>.50"]* @_ZN19fourth_order_doubleL6sin_K4E, i64 0, i64 70), i8* getelementptr inbounds ([14 x i8], [14 x i8]* @.str.1231.49195, i32 0, i32 0))
  call void @_ZN8ap_fixedILi24ELin7EL9ap_q_mode5EL9ap_o_mode3ELi0EEC2EPKc(%"struct.ap_ufixed<24, 1, AP_TRN, AP_WRAP, 0>.50"* getelementptr inbounds ([128 x %"struct.ap_ufixed<24, 1, AP_TRN, AP_WRAP, 0>.50"], [128 x %"struct.ap_ufixed<24, 1, AP_TRN, AP_WRAP, 0>.50"]* @_ZN19fourth_order_doubleL6sin_K4E, i64 0, i64 71), i8* getelementptr inbounds ([14 x i8], [14 x i8]* @.str.1232.49196, i32 0, i32 0))
  call void @_ZN8ap_fixedILi24ELin7EL9ap_q_mode5EL9ap_o_mode3ELi0EEC2EPKc(%"struct.ap_ufixed<24, 1, AP_TRN, AP_WRAP, 0>.50"* getelementptr inbounds ([128 x %"struct.ap_ufixed<24, 1, AP_TRN, AP_WRAP, 0>.50"], [128 x %"struct.ap_ufixed<24, 1, AP_TRN, AP_WRAP, 0>.50"]* @_ZN19fourth_order_doubleL6sin_K4E, i64 0, i64 72), i8* getelementptr inbounds ([14 x i8], [14 x i8]* @.str.1233.49197, i32 0, i32 0))
  call void @_ZN8ap_fixedILi24ELin7EL9ap_q_mode5EL9ap_o_mode3ELi0EEC2EPKc(%"struct.ap_ufixed<24, 1, AP_TRN, AP_WRAP, 0>.50"* getelementptr inbounds ([128 x %"struct.ap_ufixed<24, 1, AP_TRN, AP_WRAP, 0>.50"], [128 x %"struct.ap_ufixed<24, 1, AP_TRN, AP_WRAP, 0>.50"]* @_ZN19fourth_order_doubleL6sin_K4E, i64 0, i64 73), i8* getelementptr inbounds ([14 x i8], [14 x i8]* @.str.1234.49198, i32 0, i32 0))
  call void @_ZN8ap_fixedILi24ELin7EL9ap_q_mode5EL9ap_o_mode3ELi0EEC2EPKc(%"struct.ap_ufixed<24, 1, AP_TRN, AP_WRAP, 0>.50"* getelementptr inbounds ([128 x %"struct.ap_ufixed<24, 1, AP_TRN, AP_WRAP, 0>.50"], [128 x %"struct.ap_ufixed<24, 1, AP_TRN, AP_WRAP, 0>.50"]* @_ZN19fourth_order_doubleL6sin_K4E, i64 0, i64 74), i8* getelementptr inbounds ([14 x i8], [14 x i8]* @.str.1235.49199, i32 0, i32 0))
  call void @_ZN8ap_fixedILi24ELin7EL9ap_q_mode5EL9ap_o_mode3ELi0EEC2EPKc(%"struct.ap_ufixed<24, 1, AP_TRN, AP_WRAP, 0>.50"* getelementptr inbounds ([128 x %"struct.ap_ufixed<24, 1, AP_TRN, AP_WRAP, 0>.50"], [128 x %"struct.ap_ufixed<24, 1, AP_TRN, AP_WRAP, 0>.50"]* @_ZN19fourth_order_doubleL6sin_K4E, i64 0, i64 75), i8* getelementptr inbounds ([13 x i8], [13 x i8]* @.str.1236.49200, i32 0, i32 0))
  call void @_ZN8ap_fixedILi24ELin7EL9ap_q_mode5EL9ap_o_mode3ELi0EEC2EPKc(%"struct.ap_ufixed<24, 1, AP_TRN, AP_WRAP, 0>.50"* getelementptr inbounds ([128 x %"struct.ap_ufixed<24, 1, AP_TRN, AP_WRAP, 0>.50"], [128 x %"struct.ap_ufixed<24, 1, AP_TRN, AP_WRAP, 0>.50"]* @_ZN19fourth_order_doubleL6sin_K4E, i64 0, i64 76), i8* getelementptr inbounds ([14 x i8], [14 x i8]* @.str.1237.49201, i32 0, i32 0))
  call void @_ZN8ap_fixedILi24ELin7EL9ap_q_mode5EL9ap_o_mode3ELi0EEC2EPKc(%"struct.ap_ufixed<24, 1, AP_TRN, AP_WRAP, 0>.50"* getelementptr inbounds ([128 x %"struct.ap_ufixed<24, 1, AP_TRN, AP_WRAP, 0>.50"], [128 x %"struct.ap_ufixed<24, 1, AP_TRN, AP_WRAP, 0>.50"]* @_ZN19fourth_order_doubleL6sin_K4E, i64 0, i64 77), i8* getelementptr inbounds ([14 x i8], [14 x i8]* @.str.1238.49202, i32 0, i32 0))
  call void @_ZN8ap_fixedILi24ELin7EL9ap_q_mode5EL9ap_o_mode3ELi0EEC2EPKc(%"struct.ap_ufixed<24, 1, AP_TRN, AP_WRAP, 0>.50"* getelementptr inbounds ([128 x %"struct.ap_ufixed<24, 1, AP_TRN, AP_WRAP, 0>.50"], [128 x %"struct.ap_ufixed<24, 1, AP_TRN, AP_WRAP, 0>.50"]* @_ZN19fourth_order_doubleL6sin_K4E, i64 0, i64 78), i8* getelementptr inbounds ([14 x i8], [14 x i8]* @.str.1239.49203, i32 0, i32 0))
  call void @_ZN8ap_fixedILi24ELin7EL9ap_q_mode5EL9ap_o_mode3ELi0EEC2EPKc(%"struct.ap_ufixed<24, 1, AP_TRN, AP_WRAP, 0>.50"* getelementptr inbounds ([128 x %"struct.ap_ufixed<24, 1, AP_TRN, AP_WRAP, 0>.50"], [128 x %"struct.ap_ufixed<24, 1, AP_TRN, AP_WRAP, 0>.50"]* @_ZN19fourth_order_doubleL6sin_K4E, i64 0, i64 79), i8* getelementptr inbounds ([14 x i8], [14 x i8]* @.str.1240.49204, i32 0, i32 0))
  call void @_ZN8ap_fixedILi24ELin7EL9ap_q_mode5EL9ap_o_mode3ELi0EEC2EPKc(%"struct.ap_ufixed<24, 1, AP_TRN, AP_WRAP, 0>.50"* getelementptr inbounds ([128 x %"struct.ap_ufixed<24, 1, AP_TRN, AP_WRAP, 0>.50"], [128 x %"struct.ap_ufixed<24, 1, AP_TRN, AP_WRAP, 0>.50"]* @_ZN19fourth_order_doubleL6sin_K4E, i64 0, i64 80), i8* getelementptr inbounds ([14 x i8], [14 x i8]* @.str.1241.49205, i32 0, i32 0))
  call void @_ZN8ap_fixedILi24ELin7EL9ap_q_mode5EL9ap_o_mode3ELi0EEC2EPKc(%"struct.ap_ufixed<24, 1, AP_TRN, AP_WRAP, 0>.50"* getelementptr inbounds ([128 x %"struct.ap_ufixed<24, 1, AP_TRN, AP_WRAP, 0>.50"], [128 x %"struct.ap_ufixed<24, 1, AP_TRN, AP_WRAP, 0>.50"]* @_ZN19fourth_order_doubleL6sin_K4E, i64 0, i64 81), i8* getelementptr inbounds ([14 x i8], [14 x i8]* @.str.1242.49206, i32 0, i32 0))
  call void @_ZN8ap_fixedILi24ELin7EL9ap_q_mode5EL9ap_o_mode3ELi0EEC2EPKc(%"struct.ap_ufixed<24, 1, AP_TRN, AP_WRAP, 0>.50"* getelementptr inbounds ([128 x %"struct.ap_ufixed<24, 1, AP_TRN, AP_WRAP, 0>.50"], [128 x %"struct.ap_ufixed<24, 1, AP_TRN, AP_WRAP, 0>.50"]* @_ZN19fourth_order_doubleL6sin_K4E, i64 0, i64 82), i8* getelementptr inbounds ([14 x i8], [14 x i8]* @.str.1243.49207, i32 0, i32 0))
  call void @_ZN8ap_fixedILi24ELin7EL9ap_q_mode5EL9ap_o_mode3ELi0EEC2EPKc(%"struct.ap_ufixed<24, 1, AP_TRN, AP_WRAP, 0>.50"* getelementptr inbounds ([128 x %"struct.ap_ufixed<24, 1, AP_TRN, AP_WRAP, 0>.50"], [128 x %"struct.ap_ufixed<24, 1, AP_TRN, AP_WRAP, 0>.50"]* @_ZN19fourth_order_doubleL6sin_K4E, i64 0, i64 83), i8* getelementptr inbounds ([14 x i8], [14 x i8]* @.str.1244.49208, i32 0, i32 0))
  call void @_ZN8ap_fixedILi24ELin7EL9ap_q_mode5EL9ap_o_mode3ELi0EEC2EPKc(%"struct.ap_ufixed<24, 1, AP_TRN, AP_WRAP, 0>.50"* getelementptr inbounds ([128 x %"struct.ap_ufixed<24, 1, AP_TRN, AP_WRAP, 0>.50"], [128 x %"struct.ap_ufixed<24, 1, AP_TRN, AP_WRAP, 0>.50"]* @_ZN19fourth_order_doubleL6sin_K4E, i64 0, i64 84), i8* getelementptr inbounds ([14 x i8], [14 x i8]* @.str.1245.49209, i32 0, i32 0))
  call void @_ZN8ap_fixedILi24ELin7EL9ap_q_mode5EL9ap_o_mode3ELi0EEC2EPKc(%"struct.ap_ufixed<24, 1, AP_TRN, AP_WRAP, 0>.50"* getelementptr inbounds ([128 x %"struct.ap_ufixed<24, 1, AP_TRN, AP_WRAP, 0>.50"], [128 x %"struct.ap_ufixed<24, 1, AP_TRN, AP_WRAP, 0>.50"]* @_ZN19fourth_order_doubleL6sin_K4E, i64 0, i64 85), i8* getelementptr inbounds ([14 x i8], [14 x i8]* @.str.1246.49210, i32 0, i32 0))
  call void @_ZN8ap_fixedILi24ELin7EL9ap_q_mode5EL9ap_o_mode3ELi0EEC2EPKc(%"struct.ap_ufixed<24, 1, AP_TRN, AP_WRAP, 0>.50"* getelementptr inbounds ([128 x %"struct.ap_ufixed<24, 1, AP_TRN, AP_WRAP, 0>.50"], [128 x %"struct.ap_ufixed<24, 1, AP_TRN, AP_WRAP, 0>.50"]* @_ZN19fourth_order_doubleL6sin_K4E, i64 0, i64 86), i8* getelementptr inbounds ([14 x i8], [14 x i8]* @.str.1247.49211, i32 0, i32 0))
  call void @_ZN8ap_fixedILi24ELin7EL9ap_q_mode5EL9ap_o_mode3ELi0EEC2EPKc(%"struct.ap_ufixed<24, 1, AP_TRN, AP_WRAP, 0>.50"* getelementptr inbounds ([128 x %"struct.ap_ufixed<24, 1, AP_TRN, AP_WRAP, 0>.50"], [128 x %"struct.ap_ufixed<24, 1, AP_TRN, AP_WRAP, 0>.50"]* @_ZN19fourth_order_doubleL6sin_K4E, i64 0, i64 87), i8* getelementptr inbounds ([14 x i8], [14 x i8]* @.str.1248.49212, i32 0, i32 0))
  call void @_ZN8ap_fixedILi24ELin7EL9ap_q_mode5EL9ap_o_mode3ELi0EEC2EPKc(%"struct.ap_ufixed<24, 1, AP_TRN, AP_WRAP, 0>.50"* getelementptr inbounds ([128 x %"struct.ap_ufixed<24, 1, AP_TRN, AP_WRAP, 0>.50"], [128 x %"struct.ap_ufixed<24, 1, AP_TRN, AP_WRAP, 0>.50"]* @_ZN19fourth_order_doubleL6sin_K4E, i64 0, i64 88), i8* getelementptr inbounds ([14 x i8], [14 x i8]* @.str.1249.49213, i32 0, i32 0))
  call void @_ZN8ap_fixedILi24ELin7EL9ap_q_mode5EL9ap_o_mode3ELi0EEC2EPKc(%"struct.ap_ufixed<24, 1, AP_TRN, AP_WRAP, 0>.50"* getelementptr inbounds ([128 x %"struct.ap_ufixed<24, 1, AP_TRN, AP_WRAP, 0>.50"], [128 x %"struct.ap_ufixed<24, 1, AP_TRN, AP_WRAP, 0>.50"]* @_ZN19fourth_order_doubleL6sin_K4E, i64 0, i64 89), i8* getelementptr inbounds ([14 x i8], [14 x i8]* @.str.1250.49214, i32 0, i32 0))
  call void @_ZN8ap_fixedILi24ELin7EL9ap_q_mode5EL9ap_o_mode3ELi0EEC2EPKc(%"struct.ap_ufixed<24, 1, AP_TRN, AP_WRAP, 0>.50"* getelementptr inbounds ([128 x %"struct.ap_ufixed<24, 1, AP_TRN, AP_WRAP, 0>.50"], [128 x %"struct.ap_ufixed<24, 1, AP_TRN, AP_WRAP, 0>.50"]* @_ZN19fourth_order_doubleL6sin_K4E, i64 0, i64 90), i8* getelementptr inbounds ([14 x i8], [14 x i8]* @.str.1251.49215, i32 0, i32 0))
  call void @_ZN8ap_fixedILi24ELin7EL9ap_q_mode5EL9ap_o_mode3ELi0EEC2EPKc(%"struct.ap_ufixed<24, 1, AP_TRN, AP_WRAP, 0>.50"* getelementptr inbounds ([128 x %"struct.ap_ufixed<24, 1, AP_TRN, AP_WRAP, 0>.50"], [128 x %"struct.ap_ufixed<24, 1, AP_TRN, AP_WRAP, 0>.50"]* @_ZN19fourth_order_doubleL6sin_K4E, i64 0, i64 91), i8* getelementptr inbounds ([13 x i8], [13 x i8]* @.str.1252.49216, i32 0, i32 0))
  call void @_ZN8ap_fixedILi24ELin7EL9ap_q_mode5EL9ap_o_mode3ELi0EEC2EPKc(%"struct.ap_ufixed<24, 1, AP_TRN, AP_WRAP, 0>.50"* getelementptr inbounds ([128 x %"struct.ap_ufixed<24, 1, AP_TRN, AP_WRAP, 0>.50"], [128 x %"struct.ap_ufixed<24, 1, AP_TRN, AP_WRAP, 0>.50"]* @_ZN19fourth_order_doubleL6sin_K4E, i64 0, i64 92), i8* getelementptr inbounds ([14 x i8], [14 x i8]* @.str.1253.49217, i32 0, i32 0))
  call void @_ZN8ap_fixedILi24ELin7EL9ap_q_mode5EL9ap_o_mode3ELi0EEC2EPKc(%"struct.ap_ufixed<24, 1, AP_TRN, AP_WRAP, 0>.50"* getelementptr inbounds ([128 x %"struct.ap_ufixed<24, 1, AP_TRN, AP_WRAP, 0>.50"], [128 x %"struct.ap_ufixed<24, 1, AP_TRN, AP_WRAP, 0>.50"]* @_ZN19fourth_order_doubleL6sin_K4E, i64 0, i64 93), i8* getelementptr inbounds ([14 x i8], [14 x i8]* @.str.1254.49218, i32 0, i32 0))
  call void @_ZN8ap_fixedILi24ELin7EL9ap_q_mode5EL9ap_o_mode3ELi0EEC2EPKc(%"struct.ap_ufixed<24, 1, AP_TRN, AP_WRAP, 0>.50"* getelementptr inbounds ([128 x %"struct.ap_ufixed<24, 1, AP_TRN, AP_WRAP, 0>.50"], [128 x %"struct.ap_ufixed<24, 1, AP_TRN, AP_WRAP, 0>.50"]* @_ZN19fourth_order_doubleL6sin_K4E, i64 0, i64 94), i8* getelementptr inbounds ([14 x i8], [14 x i8]* @.str.1255.49219, i32 0, i32 0))
  call void @_ZN8ap_fixedILi24ELin7EL9ap_q_mode5EL9ap_o_mode3ELi0EEC2EPKc(%"struct.ap_ufixed<24, 1, AP_TRN, AP_WRAP, 0>.50"* getelementptr inbounds ([128 x %"struct.ap_ufixed<24, 1, AP_TRN, AP_WRAP, 0>.50"], [128 x %"struct.ap_ufixed<24, 1, AP_TRN, AP_WRAP, 0>.50"]* @_ZN19fourth_order_doubleL6sin_K4E, i64 0, i64 95), i8* getelementptr inbounds ([14 x i8], [14 x i8]* @.str.1256.49220, i32 0, i32 0))
  call void @_ZN8ap_fixedILi24ELin7EL9ap_q_mode5EL9ap_o_mode3ELi0EEC2EPKc(%"struct.ap_ufixed<24, 1, AP_TRN, AP_WRAP, 0>.50"* getelementptr inbounds ([128 x %"struct.ap_ufixed<24, 1, AP_TRN, AP_WRAP, 0>.50"], [128 x %"struct.ap_ufixed<24, 1, AP_TRN, AP_WRAP, 0>.50"]* @_ZN19fourth_order_doubleL6sin_K4E, i64 0, i64 96), i8* getelementptr inbounds ([14 x i8], [14 x i8]* @.str.1257.49221, i32 0, i32 0))
  call void @_ZN8ap_fixedILi24ELin7EL9ap_q_mode5EL9ap_o_mode3ELi0EEC2EPKc(%"struct.ap_ufixed<24, 1, AP_TRN, AP_WRAP, 0>.50"* getelementptr inbounds ([128 x %"struct.ap_ufixed<24, 1, AP_TRN, AP_WRAP, 0>.50"], [128 x %"struct.ap_ufixed<24, 1, AP_TRN, AP_WRAP, 0>.50"]* @_ZN19fourth_order_doubleL6sin_K4E, i64 0, i64 97), i8* getelementptr inbounds ([13 x i8], [13 x i8]* @.str.1258.49222, i32 0, i32 0))
  call void @_ZN8ap_fixedILi24ELin7EL9ap_q_mode5EL9ap_o_mode3ELi0EEC2EPKc(%"struct.ap_ufixed<24, 1, AP_TRN, AP_WRAP, 0>.50"* getelementptr inbounds ([128 x %"struct.ap_ufixed<24, 1, AP_TRN, AP_WRAP, 0>.50"], [128 x %"struct.ap_ufixed<24, 1, AP_TRN, AP_WRAP, 0>.50"]* @_ZN19fourth_order_doubleL6sin_K4E, i64 0, i64 98), i8* getelementptr inbounds ([14 x i8], [14 x i8]* @.str.1259.49223, i32 0, i32 0))
  call void @_ZN8ap_fixedILi24ELin7EL9ap_q_mode5EL9ap_o_mode3ELi0EEC2EPKc(%"struct.ap_ufixed<24, 1, AP_TRN, AP_WRAP, 0>.50"* getelementptr inbounds ([128 x %"struct.ap_ufixed<24, 1, AP_TRN, AP_WRAP, 0>.50"], [128 x %"struct.ap_ufixed<24, 1, AP_TRN, AP_WRAP, 0>.50"]* @_ZN19fourth_order_doubleL6sin_K4E, i64 0, i64 99), i8* getelementptr inbounds ([14 x i8], [14 x i8]* @.str.1260.49224, i32 0, i32 0))
  call void @_ZN8ap_fixedILi24ELin7EL9ap_q_mode5EL9ap_o_mode3ELi0EEC2EPKc(%"struct.ap_ufixed<24, 1, AP_TRN, AP_WRAP, 0>.50"* getelementptr inbounds ([128 x %"struct.ap_ufixed<24, 1, AP_TRN, AP_WRAP, 0>.50"], [128 x %"struct.ap_ufixed<24, 1, AP_TRN, AP_WRAP, 0>.50"]* @_ZN19fourth_order_doubleL6sin_K4E, i64 0, i64 100), i8* getelementptr inbounds ([14 x i8], [14 x i8]* @.str.1261.49225, i32 0, i32 0))
  call void @_ZN8ap_fixedILi24ELin7EL9ap_q_mode5EL9ap_o_mode3ELi0EEC2EPKc(%"struct.ap_ufixed<24, 1, AP_TRN, AP_WRAP, 0>.50"* getelementptr inbounds ([128 x %"struct.ap_ufixed<24, 1, AP_TRN, AP_WRAP, 0>.50"], [128 x %"struct.ap_ufixed<24, 1, AP_TRN, AP_WRAP, 0>.50"]* @_ZN19fourth_order_doubleL6sin_K4E, i64 0, i64 101), i8* getelementptr inbounds ([14 x i8], [14 x i8]* @.str.1262.49226, i32 0, i32 0))
  call void @_ZN8ap_fixedILi24ELin7EL9ap_q_mode5EL9ap_o_mode3ELi0EEC2EPKc(%"struct.ap_ufixed<24, 1, AP_TRN, AP_WRAP, 0>.50"* getelementptr inbounds ([128 x %"struct.ap_ufixed<24, 1, AP_TRN, AP_WRAP, 0>.50"], [128 x %"struct.ap_ufixed<24, 1, AP_TRN, AP_WRAP, 0>.50"]* @_ZN19fourth_order_doubleL6sin_K4E, i64 0, i64 102), i8* getelementptr inbounds ([14 x i8], [14 x i8]* @.str.1263.49227, i32 0, i32 0))
  call void @_ZN8ap_fixedILi24ELin7EL9ap_q_mode5EL9ap_o_mode3ELi0EEC2EPKc(%"struct.ap_ufixed<24, 1, AP_TRN, AP_WRAP, 0>.50"* getelementptr inbounds ([128 x %"struct.ap_ufixed<24, 1, AP_TRN, AP_WRAP, 0>.50"], [128 x %"struct.ap_ufixed<24, 1, AP_TRN, AP_WRAP, 0>.50"]* @_ZN19fourth_order_doubleL6sin_K4E, i64 0, i64 103), i8* getelementptr inbounds ([14 x i8], [14 x i8]* @.str.1264.49228, i32 0, i32 0))
  call void @_ZN8ap_fixedILi24ELin7EL9ap_q_mode5EL9ap_o_mode3ELi0EEC2EPKc(%"struct.ap_ufixed<24, 1, AP_TRN, AP_WRAP, 0>.50"* getelementptr inbounds ([128 x %"struct.ap_ufixed<24, 1, AP_TRN, AP_WRAP, 0>.50"], [128 x %"struct.ap_ufixed<24, 1, AP_TRN, AP_WRAP, 0>.50"]* @_ZN19fourth_order_doubleL6sin_K4E, i64 0, i64 104), i8* getelementptr inbounds ([14 x i8], [14 x i8]* @.str.1265.49229, i32 0, i32 0))
  call void @_ZN8ap_fixedILi24ELin7EL9ap_q_mode5EL9ap_o_mode3ELi0EEC2EPKc(%"struct.ap_ufixed<24, 1, AP_TRN, AP_WRAP, 0>.50"* getelementptr inbounds ([128 x %"struct.ap_ufixed<24, 1, AP_TRN, AP_WRAP, 0>.50"], [128 x %"struct.ap_ufixed<24, 1, AP_TRN, AP_WRAP, 0>.50"]* @_ZN19fourth_order_doubleL6sin_K4E, i64 0, i64 105), i8* getelementptr inbounds ([14 x i8], [14 x i8]* @.str.1266.49230, i32 0, i32 0))
  call void @_ZN8ap_fixedILi24ELin7EL9ap_q_mode5EL9ap_o_mode3ELi0EEC2EPKc(%"struct.ap_ufixed<24, 1, AP_TRN, AP_WRAP, 0>.50"* getelementptr inbounds ([128 x %"struct.ap_ufixed<24, 1, AP_TRN, AP_WRAP, 0>.50"], [128 x %"struct.ap_ufixed<24, 1, AP_TRN, AP_WRAP, 0>.50"]* @_ZN19fourth_order_doubleL6sin_K4E, i64 0, i64 106), i8* getelementptr inbounds ([14 x i8], [14 x i8]* @.str.1267.49231, i32 0, i32 0))
  call void @_ZN8ap_fixedILi24ELin7EL9ap_q_mode5EL9ap_o_mode3ELi0EEC2EPKc(%"struct.ap_ufixed<24, 1, AP_TRN, AP_WRAP, 0>.50"* getelementptr inbounds ([128 x %"struct.ap_ufixed<24, 1, AP_TRN, AP_WRAP, 0>.50"], [128 x %"struct.ap_ufixed<24, 1, AP_TRN, AP_WRAP, 0>.50"]* @_ZN19fourth_order_doubleL6sin_K4E, i64 0, i64 107), i8* getelementptr inbounds ([14 x i8], [14 x i8]* @.str.1268.49232, i32 0, i32 0))
  call void @_ZN8ap_fixedILi24ELin7EL9ap_q_mode5EL9ap_o_mode3ELi0EEC2EPKc(%"struct.ap_ufixed<24, 1, AP_TRN, AP_WRAP, 0>.50"* getelementptr inbounds ([128 x %"struct.ap_ufixed<24, 1, AP_TRN, AP_WRAP, 0>.50"], [128 x %"struct.ap_ufixed<24, 1, AP_TRN, AP_WRAP, 0>.50"]* @_ZN19fourth_order_doubleL6sin_K4E, i64 0, i64 108), i8* getelementptr inbounds ([14 x i8], [14 x i8]* @.str.1269.49233, i32 0, i32 0))
  call void @_ZN8ap_fixedILi24ELin7EL9ap_q_mode5EL9ap_o_mode3ELi0EEC2EPKc(%"struct.ap_ufixed<24, 1, AP_TRN, AP_WRAP, 0>.50"* getelementptr inbounds ([128 x %"struct.ap_ufixed<24, 1, AP_TRN, AP_WRAP, 0>.50"], [128 x %"struct.ap_ufixed<24, 1, AP_TRN, AP_WRAP, 0>.50"]* @_ZN19fourth_order_doubleL6sin_K4E, i64 0, i64 109), i8* getelementptr inbounds ([14 x i8], [14 x i8]* @.str.1270.49234, i32 0, i32 0))
  call void @_ZN8ap_fixedILi24ELin7EL9ap_q_mode5EL9ap_o_mode3ELi0EEC2EPKc(%"struct.ap_ufixed<24, 1, AP_TRN, AP_WRAP, 0>.50"* getelementptr inbounds ([128 x %"struct.ap_ufixed<24, 1, AP_TRN, AP_WRAP, 0>.50"], [128 x %"struct.ap_ufixed<24, 1, AP_TRN, AP_WRAP, 0>.50"]* @_ZN19fourth_order_doubleL6sin_K4E, i64 0, i64 110), i8* getelementptr inbounds ([14 x i8], [14 x i8]* @.str.1271.49235, i32 0, i32 0))
  call void @_ZN8ap_fixedILi24ELin7EL9ap_q_mode5EL9ap_o_mode3ELi0EEC2EPKc(%"struct.ap_ufixed<24, 1, AP_TRN, AP_WRAP, 0>.50"* getelementptr inbounds ([128 x %"struct.ap_ufixed<24, 1, AP_TRN, AP_WRAP, 0>.50"], [128 x %"struct.ap_ufixed<24, 1, AP_TRN, AP_WRAP, 0>.50"]* @_ZN19fourth_order_doubleL6sin_K4E, i64 0, i64 111), i8* getelementptr inbounds ([14 x i8], [14 x i8]* @.str.1272.49236, i32 0, i32 0))
  call void @_ZN8ap_fixedILi24ELin7EL9ap_q_mode5EL9ap_o_mode3ELi0EEC2EPKc(%"struct.ap_ufixed<24, 1, AP_TRN, AP_WRAP, 0>.50"* getelementptr inbounds ([128 x %"struct.ap_ufixed<24, 1, AP_TRN, AP_WRAP, 0>.50"], [128 x %"struct.ap_ufixed<24, 1, AP_TRN, AP_WRAP, 0>.50"]* @_ZN19fourth_order_doubleL6sin_K4E, i64 0, i64 112), i8* getelementptr inbounds ([14 x i8], [14 x i8]* @.str.1273.49237, i32 0, i32 0))
  call void @_ZN8ap_fixedILi24ELin7EL9ap_q_mode5EL9ap_o_mode3ELi0EEC2EPKc(%"struct.ap_ufixed<24, 1, AP_TRN, AP_WRAP, 0>.50"* getelementptr inbounds ([128 x %"struct.ap_ufixed<24, 1, AP_TRN, AP_WRAP, 0>.50"], [128 x %"struct.ap_ufixed<24, 1, AP_TRN, AP_WRAP, 0>.50"]* @_ZN19fourth_order_doubleL6sin_K4E, i64 0, i64 113), i8* getelementptr inbounds ([14 x i8], [14 x i8]* @.str.1274.49238, i32 0, i32 0))
  call void @_ZN8ap_fixedILi24ELin7EL9ap_q_mode5EL9ap_o_mode3ELi0EEC2EPKc(%"struct.ap_ufixed<24, 1, AP_TRN, AP_WRAP, 0>.50"* getelementptr inbounds ([128 x %"struct.ap_ufixed<24, 1, AP_TRN, AP_WRAP, 0>.50"], [128 x %"struct.ap_ufixed<24, 1, AP_TRN, AP_WRAP, 0>.50"]* @_ZN19fourth_order_doubleL6sin_K4E, i64 0, i64 114), i8* getelementptr inbounds ([14 x i8], [14 x i8]* @.str.1275.49239, i32 0, i32 0))
  call void @_ZN8ap_fixedILi24ELin7EL9ap_q_mode5EL9ap_o_mode3ELi0EEC2EPKc(%"struct.ap_ufixed<24, 1, AP_TRN, AP_WRAP, 0>.50"* getelementptr inbounds ([128 x %"struct.ap_ufixed<24, 1, AP_TRN, AP_WRAP, 0>.50"], [128 x %"struct.ap_ufixed<24, 1, AP_TRN, AP_WRAP, 0>.50"]* @_ZN19fourth_order_doubleL6sin_K4E, i64 0, i64 115), i8* getelementptr inbounds ([13 x i8], [13 x i8]* @.str.1276.49240, i32 0, i32 0))
  call void @_ZN8ap_fixedILi24ELin7EL9ap_q_mode5EL9ap_o_mode3ELi0EEC2EPKc(%"struct.ap_ufixed<24, 1, AP_TRN, AP_WRAP, 0>.50"* getelementptr inbounds ([128 x %"struct.ap_ufixed<24, 1, AP_TRN, AP_WRAP, 0>.50"], [128 x %"struct.ap_ufixed<24, 1, AP_TRN, AP_WRAP, 0>.50"]* @_ZN19fourth_order_doubleL6sin_K4E, i64 0, i64 116), i8* getelementptr inbounds ([14 x i8], [14 x i8]* @.str.1277.49241, i32 0, i32 0))
  call void @_ZN8ap_fixedILi24ELin7EL9ap_q_mode5EL9ap_o_mode3ELi0EEC2EPKc(%"struct.ap_ufixed<24, 1, AP_TRN, AP_WRAP, 0>.50"* getelementptr inbounds ([128 x %"struct.ap_ufixed<24, 1, AP_TRN, AP_WRAP, 0>.50"], [128 x %"struct.ap_ufixed<24, 1, AP_TRN, AP_WRAP, 0>.50"]* @_ZN19fourth_order_doubleL6sin_K4E, i64 0, i64 117), i8* getelementptr inbounds ([14 x i8], [14 x i8]* @.str.1278.49242, i32 0, i32 0))
  call void @_ZN8ap_fixedILi24ELin7EL9ap_q_mode5EL9ap_o_mode3ELi0EEC2EPKc(%"struct.ap_ufixed<24, 1, AP_TRN, AP_WRAP, 0>.50"* getelementptr inbounds ([128 x %"struct.ap_ufixed<24, 1, AP_TRN, AP_WRAP, 0>.50"], [128 x %"struct.ap_ufixed<24, 1, AP_TRN, AP_WRAP, 0>.50"]* @_ZN19fourth_order_doubleL6sin_K4E, i64 0, i64 118), i8* getelementptr inbounds ([14 x i8], [14 x i8]* @.str.1279.49243, i32 0, i32 0))
  call void @_ZN8ap_fixedILi24ELin7EL9ap_q_mode5EL9ap_o_mode3ELi0EEC2EPKc(%"struct.ap_ufixed<24, 1, AP_TRN, AP_WRAP, 0>.50"* getelementptr inbounds ([128 x %"struct.ap_ufixed<24, 1, AP_TRN, AP_WRAP, 0>.50"], [128 x %"struct.ap_ufixed<24, 1, AP_TRN, AP_WRAP, 0>.50"]* @_ZN19fourth_order_doubleL6sin_K4E, i64 0, i64 119), i8* getelementptr inbounds ([13 x i8], [13 x i8]* @.str.1280.49244, i32 0, i32 0))
  call void @_ZN8ap_fixedILi24ELin7EL9ap_q_mode5EL9ap_o_mode3ELi0EEC2EPKc(%"struct.ap_ufixed<24, 1, AP_TRN, AP_WRAP, 0>.50"* getelementptr inbounds ([128 x %"struct.ap_ufixed<24, 1, AP_TRN, AP_WRAP, 0>.50"], [128 x %"struct.ap_ufixed<24, 1, AP_TRN, AP_WRAP, 0>.50"]* @_ZN19fourth_order_doubleL6sin_K4E, i64 0, i64 120), i8* getelementptr inbounds ([14 x i8], [14 x i8]* @.str.1281.49245, i32 0, i32 0))
  call void @_ZN8ap_fixedILi24ELin7EL9ap_q_mode5EL9ap_o_mode3ELi0EEC2EPKc(%"struct.ap_ufixed<24, 1, AP_TRN, AP_WRAP, 0>.50"* getelementptr inbounds ([128 x %"struct.ap_ufixed<24, 1, AP_TRN, AP_WRAP, 0>.50"], [128 x %"struct.ap_ufixed<24, 1, AP_TRN, AP_WRAP, 0>.50"]* @_ZN19fourth_order_doubleL6sin_K4E, i64 0, i64 121), i8* getelementptr inbounds ([14 x i8], [14 x i8]* @.str.1282.49246, i32 0, i32 0))
  call void @_ZN8ap_fixedILi24ELin7EL9ap_q_mode5EL9ap_o_mode3ELi0EEC2EPKc(%"struct.ap_ufixed<24, 1, AP_TRN, AP_WRAP, 0>.50"* getelementptr inbounds ([128 x %"struct.ap_ufixed<24, 1, AP_TRN, AP_WRAP, 0>.50"], [128 x %"struct.ap_ufixed<24, 1, AP_TRN, AP_WRAP, 0>.50"]* @_ZN19fourth_order_doubleL6sin_K4E, i64 0, i64 122), i8* getelementptr inbounds ([14 x i8], [14 x i8]* @.str.1283.49247, i32 0, i32 0))
  call void @_ZN8ap_fixedILi24ELin7EL9ap_q_mode5EL9ap_o_mode3ELi0EEC2EPKc(%"struct.ap_ufixed<24, 1, AP_TRN, AP_WRAP, 0>.50"* getelementptr inbounds ([128 x %"struct.ap_ufixed<24, 1, AP_TRN, AP_WRAP, 0>.50"], [128 x %"struct.ap_ufixed<24, 1, AP_TRN, AP_WRAP, 0>.50"]* @_ZN19fourth_order_doubleL6sin_K4E, i64 0, i64 123), i8* getelementptr inbounds ([14 x i8], [14 x i8]* @.str.1284.49248, i32 0, i32 0))
  call void @_ZN8ap_fixedILi24ELin7EL9ap_q_mode5EL9ap_o_mode3ELi0EEC2EPKc(%"struct.ap_ufixed<24, 1, AP_TRN, AP_WRAP, 0>.50"* getelementptr inbounds ([128 x %"struct.ap_ufixed<24, 1, AP_TRN, AP_WRAP, 0>.50"], [128 x %"struct.ap_ufixed<24, 1, AP_TRN, AP_WRAP, 0>.50"]* @_ZN19fourth_order_doubleL6sin_K4E, i64 0, i64 124), i8* getelementptr inbounds ([14 x i8], [14 x i8]* @.str.1285.49249, i32 0, i32 0))
  call void @_ZN8ap_fixedILi24ELin7EL9ap_q_mode5EL9ap_o_mode3ELi0EEC2EPKc(%"struct.ap_ufixed<24, 1, AP_TRN, AP_WRAP, 0>.50"* getelementptr inbounds ([128 x %"struct.ap_ufixed<24, 1, AP_TRN, AP_WRAP, 0>.50"], [128 x %"struct.ap_ufixed<24, 1, AP_TRN, AP_WRAP, 0>.50"]* @_ZN19fourth_order_doubleL6sin_K4E, i64 0, i64 125), i8* getelementptr inbounds ([14 x i8], [14 x i8]* @.str.1286.49250, i32 0, i32 0))
  call void @_ZN8ap_fixedILi24ELin7EL9ap_q_mode5EL9ap_o_mode3ELi0EEC2EPKc(%"struct.ap_ufixed<24, 1, AP_TRN, AP_WRAP, 0>.50"* getelementptr inbounds ([128 x %"struct.ap_ufixed<24, 1, AP_TRN, AP_WRAP, 0>.50"], [128 x %"struct.ap_ufixed<24, 1, AP_TRN, AP_WRAP, 0>.50"]* @_ZN19fourth_order_doubleL6sin_K4E, i64 0, i64 126), i8* getelementptr inbounds ([14 x i8], [14 x i8]* @.str.1287.49251, i32 0, i32 0))
  call void @_ZN8ap_fixedILi24ELin7EL9ap_q_mode5EL9ap_o_mode3ELi0EEC2EPKc(%"struct.ap_ufixed<24, 1, AP_TRN, AP_WRAP, 0>.50"* getelementptr inbounds ([128 x %"struct.ap_ufixed<24, 1, AP_TRN, AP_WRAP, 0>.50"], [128 x %"struct.ap_ufixed<24, 1, AP_TRN, AP_WRAP, 0>.50"]* @_ZN19fourth_order_doubleL6sin_K4E, i64 0, i64 127), i8* getelementptr inbounds ([14 x i8], [14 x i8]* @.str.1288.49252, i32 0, i32 0))
  ret void
}

; Function Attrs: nounwind
define internal void @__cxx_global_var_init.1289() #0 section ".text.startup" {
entry:
  call void @_ZN8ap_fixedILi59ELi1EL9ap_q_mode5EL9ap_o_mode3ELi0EEC2EPKc(%"struct.ap_ufixed<59, 0, AP_TRN, AP_WRAP, 0>"* getelementptr inbounds ([256 x %"struct.ap_ufixed<59, 0, AP_TRN, AP_WRAP, 0>"], [256 x %"struct.ap_ufixed<59, 0, AP_TRN, AP_WRAP, 0>"]* @_ZN19fourth_order_doubleL10sin_cos_K0E, i64 0, i64 0), i8* getelementptr inbounds ([7 x i8], [7 x i8]* @.str.1290.48871, i32 0, i32 0))
  call void @_ZN8ap_fixedILi59ELi1EL9ap_q_mode5EL9ap_o_mode3ELi0EEC2EPKc(%"struct.ap_ufixed<59, 0, AP_TRN, AP_WRAP, 0>"* getelementptr inbounds ([256 x %"struct.ap_ufixed<59, 0, AP_TRN, AP_WRAP, 0>"], [256 x %"struct.ap_ufixed<59, 0, AP_TRN, AP_WRAP, 0>"]* @_ZN19fourth_order_doubleL10sin_cos_K0E, i64 0, i64 1), i8* getelementptr inbounds ([22 x i8], [22 x i8]* @.str.1291.48872, i32 0, i32 0))
  call void @_ZN8ap_fixedILi59ELi1EL9ap_q_mode5EL9ap_o_mode3ELi0EEC2EPKc(%"struct.ap_ufixed<59, 0, AP_TRN, AP_WRAP, 0>"* getelementptr inbounds ([256 x %"struct.ap_ufixed<59, 0, AP_TRN, AP_WRAP, 0>"], [256 x %"struct.ap_ufixed<59, 0, AP_TRN, AP_WRAP, 0>"]* @_ZN19fourth_order_doubleL10sin_cos_K0E, i64 0, i64 2), i8* getelementptr inbounds ([22 x i8], [22 x i8]* @.str.1292.48873, i32 0, i32 0))
  call void @_ZN8ap_fixedILi59ELi1EL9ap_q_mode5EL9ap_o_mode3ELi0EEC2EPKc(%"struct.ap_ufixed<59, 0, AP_TRN, AP_WRAP, 0>"* getelementptr inbounds ([256 x %"struct.ap_ufixed<59, 0, AP_TRN, AP_WRAP, 0>"], [256 x %"struct.ap_ufixed<59, 0, AP_TRN, AP_WRAP, 0>"]* @_ZN19fourth_order_doubleL10sin_cos_K0E, i64 0, i64 3), i8* getelementptr inbounds ([22 x i8], [22 x i8]* @.str.1293.48874, i32 0, i32 0))
  call void @_ZN8ap_fixedILi59ELi1EL9ap_q_mode5EL9ap_o_mode3ELi0EEC2EPKc(%"struct.ap_ufixed<59, 0, AP_TRN, AP_WRAP, 0>"* getelementptr inbounds ([256 x %"struct.ap_ufixed<59, 0, AP_TRN, AP_WRAP, 0>"], [256 x %"struct.ap_ufixed<59, 0, AP_TRN, AP_WRAP, 0>"]* @_ZN19fourth_order_doubleL10sin_cos_K0E, i64 0, i64 4), i8* getelementptr inbounds ([22 x i8], [22 x i8]* @.str.1294.48875, i32 0, i32 0))
  call void @_ZN8ap_fixedILi59ELi1EL9ap_q_mode5EL9ap_o_mode3ELi0EEC2EPKc(%"struct.ap_ufixed<59, 0, AP_TRN, AP_WRAP, 0>"* getelementptr inbounds ([256 x %"struct.ap_ufixed<59, 0, AP_TRN, AP_WRAP, 0>"], [256 x %"struct.ap_ufixed<59, 0, AP_TRN, AP_WRAP, 0>"]* @_ZN19fourth_order_doubleL10sin_cos_K0E, i64 0, i64 5), i8* getelementptr inbounds ([22 x i8], [22 x i8]* @.str.1295.48876, i32 0, i32 0))
  call void @_ZN8ap_fixedILi59ELi1EL9ap_q_mode5EL9ap_o_mode3ELi0EEC2EPKc(%"struct.ap_ufixed<59, 0, AP_TRN, AP_WRAP, 0>"* getelementptr inbounds ([256 x %"struct.ap_ufixed<59, 0, AP_TRN, AP_WRAP, 0>"], [256 x %"struct.ap_ufixed<59, 0, AP_TRN, AP_WRAP, 0>"]* @_ZN19fourth_order_doubleL10sin_cos_K0E, i64 0, i64 6), i8* getelementptr inbounds ([22 x i8], [22 x i8]* @.str.1296.48877, i32 0, i32 0))
  call void @_ZN8ap_fixedILi59ELi1EL9ap_q_mode5EL9ap_o_mode3ELi0EEC2EPKc(%"struct.ap_ufixed<59, 0, AP_TRN, AP_WRAP, 0>"* getelementptr inbounds ([256 x %"struct.ap_ufixed<59, 0, AP_TRN, AP_WRAP, 0>"], [256 x %"struct.ap_ufixed<59, 0, AP_TRN, AP_WRAP, 0>"]* @_ZN19fourth_order_doubleL10sin_cos_K0E, i64 0, i64 7), i8* getelementptr inbounds ([21 x i8], [21 x i8]* @.str.1297.48878, i32 0, i32 0))
  call void @_ZN8ap_fixedILi59ELi1EL9ap_q_mode5EL9ap_o_mode3ELi0EEC2EPKc(%"struct.ap_ufixed<59, 0, AP_TRN, AP_WRAP, 0>"* getelementptr inbounds ([256 x %"struct.ap_ufixed<59, 0, AP_TRN, AP_WRAP, 0>"], [256 x %"struct.ap_ufixed<59, 0, AP_TRN, AP_WRAP, 0>"]* @_ZN19fourth_order_doubleL10sin_cos_K0E, i64 0, i64 8), i8* getelementptr inbounds ([22 x i8], [22 x i8]* @.str.1298.48879, i32 0, i32 0))
  call void @_ZN8ap_fixedILi59ELi1EL9ap_q_mode5EL9ap_o_mode3ELi0EEC2EPKc(%"struct.ap_ufixed<59, 0, AP_TRN, AP_WRAP, 0>"* getelementptr inbounds ([256 x %"struct.ap_ufixed<59, 0, AP_TRN, AP_WRAP, 0>"], [256 x %"struct.ap_ufixed<59, 0, AP_TRN, AP_WRAP, 0>"]* @_ZN19fourth_order_doubleL10sin_cos_K0E, i64 0, i64 9), i8* getelementptr inbounds ([22 x i8], [22 x i8]* @.str.1299.48880, i32 0, i32 0))
  call void @_ZN8ap_fixedILi59ELi1EL9ap_q_mode5EL9ap_o_mode3ELi0EEC2EPKc(%"struct.ap_ufixed<59, 0, AP_TRN, AP_WRAP, 0>"* getelementptr inbounds ([256 x %"struct.ap_ufixed<59, 0, AP_TRN, AP_WRAP, 0>"], [256 x %"struct.ap_ufixed<59, 0, AP_TRN, AP_WRAP, 0>"]* @_ZN19fourth_order_doubleL10sin_cos_K0E, i64 0, i64 10), i8* getelementptr inbounds ([22 x i8], [22 x i8]* @.str.1300.48881, i32 0, i32 0))
  call void @_ZN8ap_fixedILi59ELi1EL9ap_q_mode5EL9ap_o_mode3ELi0EEC2EPKc(%"struct.ap_ufixed<59, 0, AP_TRN, AP_WRAP, 0>"* getelementptr inbounds ([256 x %"struct.ap_ufixed<59, 0, AP_TRN, AP_WRAP, 0>"], [256 x %"struct.ap_ufixed<59, 0, AP_TRN, AP_WRAP, 0>"]* @_ZN19fourth_order_doubleL10sin_cos_K0E, i64 0, i64 11), i8* getelementptr inbounds ([22 x i8], [22 x i8]* @.str.1301.48882, i32 0, i32 0))
  call void @_ZN8ap_fixedILi59ELi1EL9ap_q_mode5EL9ap_o_mode3ELi0EEC2EPKc(%"struct.ap_ufixed<59, 0, AP_TRN, AP_WRAP, 0>"* getelementptr inbounds ([256 x %"struct.ap_ufixed<59, 0, AP_TRN, AP_WRAP, 0>"], [256 x %"struct.ap_ufixed<59, 0, AP_TRN, AP_WRAP, 0>"]* @_ZN19fourth_order_doubleL10sin_cos_K0E, i64 0, i64 12), i8* getelementptr inbounds ([20 x i8], [20 x i8]* @.str.1302.48883, i32 0, i32 0))
  call void @_ZN8ap_fixedILi59ELi1EL9ap_q_mode5EL9ap_o_mode3ELi0EEC2EPKc(%"struct.ap_ufixed<59, 0, AP_TRN, AP_WRAP, 0>"* getelementptr inbounds ([256 x %"struct.ap_ufixed<59, 0, AP_TRN, AP_WRAP, 0>"], [256 x %"struct.ap_ufixed<59, 0, AP_TRN, AP_WRAP, 0>"]* @_ZN19fourth_order_doubleL10sin_cos_K0E, i64 0, i64 13), i8* getelementptr inbounds ([22 x i8], [22 x i8]* @.str.1303.48884, i32 0, i32 0))
  call void @_ZN8ap_fixedILi59ELi1EL9ap_q_mode5EL9ap_o_mode3ELi0EEC2EPKc(%"struct.ap_ufixed<59, 0, AP_TRN, AP_WRAP, 0>"* getelementptr inbounds ([256 x %"struct.ap_ufixed<59, 0, AP_TRN, AP_WRAP, 0>"], [256 x %"struct.ap_ufixed<59, 0, AP_TRN, AP_WRAP, 0>"]* @_ZN19fourth_order_doubleL10sin_cos_K0E, i64 0, i64 14), i8* getelementptr inbounds ([21 x i8], [21 x i8]* @.str.1304.48885, i32 0, i32 0))
  call void @_ZN8ap_fixedILi59ELi1EL9ap_q_mode5EL9ap_o_mode3ELi0EEC2EPKc(%"struct.ap_ufixed<59, 0, AP_TRN, AP_WRAP, 0>"* getelementptr inbounds ([256 x %"struct.ap_ufixed<59, 0, AP_TRN, AP_WRAP, 0>"], [256 x %"struct.ap_ufixed<59, 0, AP_TRN, AP_WRAP, 0>"]* @_ZN19fourth_order_doubleL10sin_cos_K0E, i64 0, i64 15), i8* getelementptr inbounds ([22 x i8], [22 x i8]* @.str.1305.48886, i32 0, i32 0))
  call void @_ZN8ap_fixedILi59ELi1EL9ap_q_mode5EL9ap_o_mode3ELi0EEC2EPKc(%"struct.ap_ufixed<59, 0, AP_TRN, AP_WRAP, 0>"* getelementptr inbounds ([256 x %"struct.ap_ufixed<59, 0, AP_TRN, AP_WRAP, 0>"], [256 x %"struct.ap_ufixed<59, 0, AP_TRN, AP_WRAP, 0>"]* @_ZN19fourth_order_doubleL10sin_cos_K0E, i64 0, i64 16), i8* getelementptr inbounds ([21 x i8], [21 x i8]* @.str.1306.48887, i32 0, i32 0))
  call void @_ZN8ap_fixedILi59ELi1EL9ap_q_mode5EL9ap_o_mode3ELi0EEC2EPKc(%"struct.ap_ufixed<59, 0, AP_TRN, AP_WRAP, 0>"* getelementptr inbounds ([256 x %"struct.ap_ufixed<59, 0, AP_TRN, AP_WRAP, 0>"], [256 x %"struct.ap_ufixed<59, 0, AP_TRN, AP_WRAP, 0>"]* @_ZN19fourth_order_doubleL10sin_cos_K0E, i64 0, i64 17), i8* getelementptr inbounds ([22 x i8], [22 x i8]* @.str.1307.48888, i32 0, i32 0))
  call void @_ZN8ap_fixedILi59ELi1EL9ap_q_mode5EL9ap_o_mode3ELi0EEC2EPKc(%"struct.ap_ufixed<59, 0, AP_TRN, AP_WRAP, 0>"* getelementptr inbounds ([256 x %"struct.ap_ufixed<59, 0, AP_TRN, AP_WRAP, 0>"], [256 x %"struct.ap_ufixed<59, 0, AP_TRN, AP_WRAP, 0>"]* @_ZN19fourth_order_doubleL10sin_cos_K0E, i64 0, i64 18), i8* getelementptr inbounds ([22 x i8], [22 x i8]* @.str.1308.48889, i32 0, i32 0))
  call void @_ZN8ap_fixedILi59ELi1EL9ap_q_mode5EL9ap_o_mode3ELi0EEC2EPKc(%"struct.ap_ufixed<59, 0, AP_TRN, AP_WRAP, 0>"* getelementptr inbounds ([256 x %"struct.ap_ufixed<59, 0, AP_TRN, AP_WRAP, 0>"], [256 x %"struct.ap_ufixed<59, 0, AP_TRN, AP_WRAP, 0>"]* @_ZN19fourth_order_doubleL10sin_cos_K0E, i64 0, i64 19), i8* getelementptr inbounds ([22 x i8], [22 x i8]* @.str.1309.48890, i32 0, i32 0))
  call void @_ZN8ap_fixedILi59ELi1EL9ap_q_mode5EL9ap_o_mode3ELi0EEC2EPKc(%"struct.ap_ufixed<59, 0, AP_TRN, AP_WRAP, 0>"* getelementptr inbounds ([256 x %"struct.ap_ufixed<59, 0, AP_TRN, AP_WRAP, 0>"], [256 x %"struct.ap_ufixed<59, 0, AP_TRN, AP_WRAP, 0>"]* @_ZN19fourth_order_doubleL10sin_cos_K0E, i64 0, i64 20), i8* getelementptr inbounds ([21 x i8], [21 x i8]* @.str.1310.48891, i32 0, i32 0))
  call void @_ZN8ap_fixedILi59ELi1EL9ap_q_mode5EL9ap_o_mode3ELi0EEC2EPKc(%"struct.ap_ufixed<59, 0, AP_TRN, AP_WRAP, 0>"* getelementptr inbounds ([256 x %"struct.ap_ufixed<59, 0, AP_TRN, AP_WRAP, 0>"], [256 x %"struct.ap_ufixed<59, 0, AP_TRN, AP_WRAP, 0>"]* @_ZN19fourth_order_doubleL10sin_cos_K0E, i64 0, i64 21), i8* getelementptr inbounds ([22 x i8], [22 x i8]* @.str.1311.48892, i32 0, i32 0))
  call void @_ZN8ap_fixedILi59ELi1EL9ap_q_mode5EL9ap_o_mode3ELi0EEC2EPKc(%"struct.ap_ufixed<59, 0, AP_TRN, AP_WRAP, 0>"* getelementptr inbounds ([256 x %"struct.ap_ufixed<59, 0, AP_TRN, AP_WRAP, 0>"], [256 x %"struct.ap_ufixed<59, 0, AP_TRN, AP_WRAP, 0>"]* @_ZN19fourth_order_doubleL10sin_cos_K0E, i64 0, i64 22), i8* getelementptr inbounds ([22 x i8], [22 x i8]* @.str.1312.48893, i32 0, i32 0))
  call void @_ZN8ap_fixedILi59ELi1EL9ap_q_mode5EL9ap_o_mode3ELi0EEC2EPKc(%"struct.ap_ufixed<59, 0, AP_TRN, AP_WRAP, 0>"* getelementptr inbounds ([256 x %"struct.ap_ufixed<59, 0, AP_TRN, AP_WRAP, 0>"], [256 x %"struct.ap_ufixed<59, 0, AP_TRN, AP_WRAP, 0>"]* @_ZN19fourth_order_doubleL10sin_cos_K0E, i64 0, i64 23), i8* getelementptr inbounds ([22 x i8], [22 x i8]* @.str.1313.48894, i32 0, i32 0))
  call void @_ZN8ap_fixedILi59ELi1EL9ap_q_mode5EL9ap_o_mode3ELi0EEC2EPKc(%"struct.ap_ufixed<59, 0, AP_TRN, AP_WRAP, 0>"* getelementptr inbounds ([256 x %"struct.ap_ufixed<59, 0, AP_TRN, AP_WRAP, 0>"], [256 x %"struct.ap_ufixed<59, 0, AP_TRN, AP_WRAP, 0>"]* @_ZN19fourth_order_doubleL10sin_cos_K0E, i64 0, i64 24), i8* getelementptr inbounds ([22 x i8], [22 x i8]* @.str.1314.48895, i32 0, i32 0))
  call void @_ZN8ap_fixedILi59ELi1EL9ap_q_mode5EL9ap_o_mode3ELi0EEC2EPKc(%"struct.ap_ufixed<59, 0, AP_TRN, AP_WRAP, 0>"* getelementptr inbounds ([256 x %"struct.ap_ufixed<59, 0, AP_TRN, AP_WRAP, 0>"], [256 x %"struct.ap_ufixed<59, 0, AP_TRN, AP_WRAP, 0>"]* @_ZN19fourth_order_doubleL10sin_cos_K0E, i64 0, i64 25), i8* getelementptr inbounds ([22 x i8], [22 x i8]* @.str.1315.48896, i32 0, i32 0))
  call void @_ZN8ap_fixedILi59ELi1EL9ap_q_mode5EL9ap_o_mode3ELi0EEC2EPKc(%"struct.ap_ufixed<59, 0, AP_TRN, AP_WRAP, 0>"* getelementptr inbounds ([256 x %"struct.ap_ufixed<59, 0, AP_TRN, AP_WRAP, 0>"], [256 x %"struct.ap_ufixed<59, 0, AP_TRN, AP_WRAP, 0>"]* @_ZN19fourth_order_doubleL10sin_cos_K0E, i64 0, i64 26), i8* getelementptr inbounds ([22 x i8], [22 x i8]* @.str.1316.48897, i32 0, i32 0))
  call void @_ZN8ap_fixedILi59ELi1EL9ap_q_mode5EL9ap_o_mode3ELi0EEC2EPKc(%"struct.ap_ufixed<59, 0, AP_TRN, AP_WRAP, 0>"* getelementptr inbounds ([256 x %"struct.ap_ufixed<59, 0, AP_TRN, AP_WRAP, 0>"], [256 x %"struct.ap_ufixed<59, 0, AP_TRN, AP_WRAP, 0>"]* @_ZN19fourth_order_doubleL10sin_cos_K0E, i64 0, i64 27), i8* getelementptr inbounds ([22 x i8], [22 x i8]* @.str.1317.48898, i32 0, i32 0))
  call void @_ZN8ap_fixedILi59ELi1EL9ap_q_mode5EL9ap_o_mode3ELi0EEC2EPKc(%"struct.ap_ufixed<59, 0, AP_TRN, AP_WRAP, 0>"* getelementptr inbounds ([256 x %"struct.ap_ufixed<59, 0, AP_TRN, AP_WRAP, 0>"], [256 x %"struct.ap_ufixed<59, 0, AP_TRN, AP_WRAP, 0>"]* @_ZN19fourth_order_doubleL10sin_cos_K0E, i64 0, i64 28), i8* getelementptr inbounds ([21 x i8], [21 x i8]* @.str.1318.48899, i32 0, i32 0))
  call void @_ZN8ap_fixedILi59ELi1EL9ap_q_mode5EL9ap_o_mode3ELi0EEC2EPKc(%"struct.ap_ufixed<59, 0, AP_TRN, AP_WRAP, 0>"* getelementptr inbounds ([256 x %"struct.ap_ufixed<59, 0, AP_TRN, AP_WRAP, 0>"], [256 x %"struct.ap_ufixed<59, 0, AP_TRN, AP_WRAP, 0>"]* @_ZN19fourth_order_doubleL10sin_cos_K0E, i64 0, i64 29), i8* getelementptr inbounds ([22 x i8], [22 x i8]* @.str.1319.48900, i32 0, i32 0))
  call void @_ZN8ap_fixedILi59ELi1EL9ap_q_mode5EL9ap_o_mode3ELi0EEC2EPKc(%"struct.ap_ufixed<59, 0, AP_TRN, AP_WRAP, 0>"* getelementptr inbounds ([256 x %"struct.ap_ufixed<59, 0, AP_TRN, AP_WRAP, 0>"], [256 x %"struct.ap_ufixed<59, 0, AP_TRN, AP_WRAP, 0>"]* @_ZN19fourth_order_doubleL10sin_cos_K0E, i64 0, i64 30), i8* getelementptr inbounds ([22 x i8], [22 x i8]* @.str.1320.48901, i32 0, i32 0))
  call void @_ZN8ap_fixedILi59ELi1EL9ap_q_mode5EL9ap_o_mode3ELi0EEC2EPKc(%"struct.ap_ufixed<59, 0, AP_TRN, AP_WRAP, 0>"* getelementptr inbounds ([256 x %"struct.ap_ufixed<59, 0, AP_TRN, AP_WRAP, 0>"], [256 x %"struct.ap_ufixed<59, 0, AP_TRN, AP_WRAP, 0>"]* @_ZN19fourth_order_doubleL10sin_cos_K0E, i64 0, i64 31), i8* getelementptr inbounds ([22 x i8], [22 x i8]* @.str.1321.48902, i32 0, i32 0))
  call void @_ZN8ap_fixedILi59ELi1EL9ap_q_mode5EL9ap_o_mode3ELi0EEC2EPKc(%"struct.ap_ufixed<59, 0, AP_TRN, AP_WRAP, 0>"* getelementptr inbounds ([256 x %"struct.ap_ufixed<59, 0, AP_TRN, AP_WRAP, 0>"], [256 x %"struct.ap_ufixed<59, 0, AP_TRN, AP_WRAP, 0>"]* @_ZN19fourth_order_doubleL10sin_cos_K0E, i64 0, i64 32), i8* getelementptr inbounds ([22 x i8], [22 x i8]* @.str.1322.48903, i32 0, i32 0))
  call void @_ZN8ap_fixedILi59ELi1EL9ap_q_mode5EL9ap_o_mode3ELi0EEC2EPKc(%"struct.ap_ufixed<59, 0, AP_TRN, AP_WRAP, 0>"* getelementptr inbounds ([256 x %"struct.ap_ufixed<59, 0, AP_TRN, AP_WRAP, 0>"], [256 x %"struct.ap_ufixed<59, 0, AP_TRN, AP_WRAP, 0>"]* @_ZN19fourth_order_doubleL10sin_cos_K0E, i64 0, i64 33), i8* getelementptr inbounds ([21 x i8], [21 x i8]* @.str.1323.48904, i32 0, i32 0))
  call void @_ZN8ap_fixedILi59ELi1EL9ap_q_mode5EL9ap_o_mode3ELi0EEC2EPKc(%"struct.ap_ufixed<59, 0, AP_TRN, AP_WRAP, 0>"* getelementptr inbounds ([256 x %"struct.ap_ufixed<59, 0, AP_TRN, AP_WRAP, 0>"], [256 x %"struct.ap_ufixed<59, 0, AP_TRN, AP_WRAP, 0>"]* @_ZN19fourth_order_doubleL10sin_cos_K0E, i64 0, i64 34), i8* getelementptr inbounds ([22 x i8], [22 x i8]* @.str.1324.48905, i32 0, i32 0))
  call void @_ZN8ap_fixedILi59ELi1EL9ap_q_mode5EL9ap_o_mode3ELi0EEC2EPKc(%"struct.ap_ufixed<59, 0, AP_TRN, AP_WRAP, 0>"* getelementptr inbounds ([256 x %"struct.ap_ufixed<59, 0, AP_TRN, AP_WRAP, 0>"], [256 x %"struct.ap_ufixed<59, 0, AP_TRN, AP_WRAP, 0>"]* @_ZN19fourth_order_doubleL10sin_cos_K0E, i64 0, i64 35), i8* getelementptr inbounds ([22 x i8], [22 x i8]* @.str.1325.48906, i32 0, i32 0))
  call void @_ZN8ap_fixedILi59ELi1EL9ap_q_mode5EL9ap_o_mode3ELi0EEC2EPKc(%"struct.ap_ufixed<59, 0, AP_TRN, AP_WRAP, 0>"* getelementptr inbounds ([256 x %"struct.ap_ufixed<59, 0, AP_TRN, AP_WRAP, 0>"], [256 x %"struct.ap_ufixed<59, 0, AP_TRN, AP_WRAP, 0>"]* @_ZN19fourth_order_doubleL10sin_cos_K0E, i64 0, i64 36), i8* getelementptr inbounds ([21 x i8], [21 x i8]* @.str.1326.48907, i32 0, i32 0))
  call void @_ZN8ap_fixedILi59ELi1EL9ap_q_mode5EL9ap_o_mode3ELi0EEC2EPKc(%"struct.ap_ufixed<59, 0, AP_TRN, AP_WRAP, 0>"* getelementptr inbounds ([256 x %"struct.ap_ufixed<59, 0, AP_TRN, AP_WRAP, 0>"], [256 x %"struct.ap_ufixed<59, 0, AP_TRN, AP_WRAP, 0>"]* @_ZN19fourth_order_doubleL10sin_cos_K0E, i64 0, i64 37), i8* getelementptr inbounds ([22 x i8], [22 x i8]* @.str.1327.48908, i32 0, i32 0))
  call void @_ZN8ap_fixedILi59ELi1EL9ap_q_mode5EL9ap_o_mode3ELi0EEC2EPKc(%"struct.ap_ufixed<59, 0, AP_TRN, AP_WRAP, 0>"* getelementptr inbounds ([256 x %"struct.ap_ufixed<59, 0, AP_TRN, AP_WRAP, 0>"], [256 x %"struct.ap_ufixed<59, 0, AP_TRN, AP_WRAP, 0>"]* @_ZN19fourth_order_doubleL10sin_cos_K0E, i64 0, i64 38), i8* getelementptr inbounds ([22 x i8], [22 x i8]* @.str.1328.48909, i32 0, i32 0))
  call void @_ZN8ap_fixedILi59ELi1EL9ap_q_mode5EL9ap_o_mode3ELi0EEC2EPKc(%"struct.ap_ufixed<59, 0, AP_TRN, AP_WRAP, 0>"* getelementptr inbounds ([256 x %"struct.ap_ufixed<59, 0, AP_TRN, AP_WRAP, 0>"], [256 x %"struct.ap_ufixed<59, 0, AP_TRN, AP_WRAP, 0>"]* @_ZN19fourth_order_doubleL10sin_cos_K0E, i64 0, i64 39), i8* getelementptr inbounds ([21 x i8], [21 x i8]* @.str.1329.48910, i32 0, i32 0))
  call void @_ZN8ap_fixedILi59ELi1EL9ap_q_mode5EL9ap_o_mode3ELi0EEC2EPKc(%"struct.ap_ufixed<59, 0, AP_TRN, AP_WRAP, 0>"* getelementptr inbounds ([256 x %"struct.ap_ufixed<59, 0, AP_TRN, AP_WRAP, 0>"], [256 x %"struct.ap_ufixed<59, 0, AP_TRN, AP_WRAP, 0>"]* @_ZN19fourth_order_doubleL10sin_cos_K0E, i64 0, i64 40), i8* getelementptr inbounds ([22 x i8], [22 x i8]* @.str.1330.48911, i32 0, i32 0))
  call void @_ZN8ap_fixedILi59ELi1EL9ap_q_mode5EL9ap_o_mode3ELi0EEC2EPKc(%"struct.ap_ufixed<59, 0, AP_TRN, AP_WRAP, 0>"* getelementptr inbounds ([256 x %"struct.ap_ufixed<59, 0, AP_TRN, AP_WRAP, 0>"], [256 x %"struct.ap_ufixed<59, 0, AP_TRN, AP_WRAP, 0>"]* @_ZN19fourth_order_doubleL10sin_cos_K0E, i64 0, i64 41), i8* getelementptr inbounds ([21 x i8], [21 x i8]* @.str.1331.48912, i32 0, i32 0))
  call void @_ZN8ap_fixedILi59ELi1EL9ap_q_mode5EL9ap_o_mode3ELi0EEC2EPKc(%"struct.ap_ufixed<59, 0, AP_TRN, AP_WRAP, 0>"* getelementptr inbounds ([256 x %"struct.ap_ufixed<59, 0, AP_TRN, AP_WRAP, 0>"], [256 x %"struct.ap_ufixed<59, 0, AP_TRN, AP_WRAP, 0>"]* @_ZN19fourth_order_doubleL10sin_cos_K0E, i64 0, i64 42), i8* getelementptr inbounds ([22 x i8], [22 x i8]* @.str.1332.48913, i32 0, i32 0))
  call void @_ZN8ap_fixedILi59ELi1EL9ap_q_mode5EL9ap_o_mode3ELi0EEC2EPKc(%"struct.ap_ufixed<59, 0, AP_TRN, AP_WRAP, 0>"* getelementptr inbounds ([256 x %"struct.ap_ufixed<59, 0, AP_TRN, AP_WRAP, 0>"], [256 x %"struct.ap_ufixed<59, 0, AP_TRN, AP_WRAP, 0>"]* @_ZN19fourth_order_doubleL10sin_cos_K0E, i64 0, i64 43), i8* getelementptr inbounds ([22 x i8], [22 x i8]* @.str.1333.48914, i32 0, i32 0))
  call void @_ZN8ap_fixedILi59ELi1EL9ap_q_mode5EL9ap_o_mode3ELi0EEC2EPKc(%"struct.ap_ufixed<59, 0, AP_TRN, AP_WRAP, 0>"* getelementptr inbounds ([256 x %"struct.ap_ufixed<59, 0, AP_TRN, AP_WRAP, 0>"], [256 x %"struct.ap_ufixed<59, 0, AP_TRN, AP_WRAP, 0>"]* @_ZN19fourth_order_doubleL10sin_cos_K0E, i64 0, i64 44), i8* getelementptr inbounds ([22 x i8], [22 x i8]* @.str.1334.48915, i32 0, i32 0))
  call void @_ZN8ap_fixedILi59ELi1EL9ap_q_mode5EL9ap_o_mode3ELi0EEC2EPKc(%"struct.ap_ufixed<59, 0, AP_TRN, AP_WRAP, 0>"* getelementptr inbounds ([256 x %"struct.ap_ufixed<59, 0, AP_TRN, AP_WRAP, 0>"], [256 x %"struct.ap_ufixed<59, 0, AP_TRN, AP_WRAP, 0>"]* @_ZN19fourth_order_doubleL10sin_cos_K0E, i64 0, i64 45), i8* getelementptr inbounds ([22 x i8], [22 x i8]* @.str.1335.48916, i32 0, i32 0))
  call void @_ZN8ap_fixedILi59ELi1EL9ap_q_mode5EL9ap_o_mode3ELi0EEC2EPKc(%"struct.ap_ufixed<59, 0, AP_TRN, AP_WRAP, 0>"* getelementptr inbounds ([256 x %"struct.ap_ufixed<59, 0, AP_TRN, AP_WRAP, 0>"], [256 x %"struct.ap_ufixed<59, 0, AP_TRN, AP_WRAP, 0>"]* @_ZN19fourth_order_doubleL10sin_cos_K0E, i64 0, i64 46), i8* getelementptr inbounds ([21 x i8], [21 x i8]* @.str.1336.48917, i32 0, i32 0))
  call void @_ZN8ap_fixedILi59ELi1EL9ap_q_mode5EL9ap_o_mode3ELi0EEC2EPKc(%"struct.ap_ufixed<59, 0, AP_TRN, AP_WRAP, 0>"* getelementptr inbounds ([256 x %"struct.ap_ufixed<59, 0, AP_TRN, AP_WRAP, 0>"], [256 x %"struct.ap_ufixed<59, 0, AP_TRN, AP_WRAP, 0>"]* @_ZN19fourth_order_doubleL10sin_cos_K0E, i64 0, i64 47), i8* getelementptr inbounds ([21 x i8], [21 x i8]* @.str.1337.48918, i32 0, i32 0))
  call void @_ZN8ap_fixedILi59ELi1EL9ap_q_mode5EL9ap_o_mode3ELi0EEC2EPKc(%"struct.ap_ufixed<59, 0, AP_TRN, AP_WRAP, 0>"* getelementptr inbounds ([256 x %"struct.ap_ufixed<59, 0, AP_TRN, AP_WRAP, 0>"], [256 x %"struct.ap_ufixed<59, 0, AP_TRN, AP_WRAP, 0>"]* @_ZN19fourth_order_doubleL10sin_cos_K0E, i64 0, i64 48), i8* getelementptr inbounds ([20 x i8], [20 x i8]* @.str.1338.48919, i32 0, i32 0))
  call void @_ZN8ap_fixedILi59ELi1EL9ap_q_mode5EL9ap_o_mode3ELi0EEC2EPKc(%"struct.ap_ufixed<59, 0, AP_TRN, AP_WRAP, 0>"* getelementptr inbounds ([256 x %"struct.ap_ufixed<59, 0, AP_TRN, AP_WRAP, 0>"], [256 x %"struct.ap_ufixed<59, 0, AP_TRN, AP_WRAP, 0>"]* @_ZN19fourth_order_doubleL10sin_cos_K0E, i64 0, i64 49), i8* getelementptr inbounds ([22 x i8], [22 x i8]* @.str.1339.48920, i32 0, i32 0))
  call void @_ZN8ap_fixedILi59ELi1EL9ap_q_mode5EL9ap_o_mode3ELi0EEC2EPKc(%"struct.ap_ufixed<59, 0, AP_TRN, AP_WRAP, 0>"* getelementptr inbounds ([256 x %"struct.ap_ufixed<59, 0, AP_TRN, AP_WRAP, 0>"], [256 x %"struct.ap_ufixed<59, 0, AP_TRN, AP_WRAP, 0>"]* @_ZN19fourth_order_doubleL10sin_cos_K0E, i64 0, i64 50), i8* getelementptr inbounds ([21 x i8], [21 x i8]* @.str.1340.48921, i32 0, i32 0))
  call void @_ZN8ap_fixedILi59ELi1EL9ap_q_mode5EL9ap_o_mode3ELi0EEC2EPKc(%"struct.ap_ufixed<59, 0, AP_TRN, AP_WRAP, 0>"* getelementptr inbounds ([256 x %"struct.ap_ufixed<59, 0, AP_TRN, AP_WRAP, 0>"], [256 x %"struct.ap_ufixed<59, 0, AP_TRN, AP_WRAP, 0>"]* @_ZN19fourth_order_doubleL10sin_cos_K0E, i64 0, i64 51), i8* getelementptr inbounds ([21 x i8], [21 x i8]* @.str.1341.48922, i32 0, i32 0))
  call void @_ZN8ap_fixedILi59ELi1EL9ap_q_mode5EL9ap_o_mode3ELi0EEC2EPKc(%"struct.ap_ufixed<59, 0, AP_TRN, AP_WRAP, 0>"* getelementptr inbounds ([256 x %"struct.ap_ufixed<59, 0, AP_TRN, AP_WRAP, 0>"], [256 x %"struct.ap_ufixed<59, 0, AP_TRN, AP_WRAP, 0>"]* @_ZN19fourth_order_doubleL10sin_cos_K0E, i64 0, i64 52), i8* getelementptr inbounds ([22 x i8], [22 x i8]* @.str.1342.48923, i32 0, i32 0))
  call void @_ZN8ap_fixedILi59ELi1EL9ap_q_mode5EL9ap_o_mode3ELi0EEC2EPKc(%"struct.ap_ufixed<59, 0, AP_TRN, AP_WRAP, 0>"* getelementptr inbounds ([256 x %"struct.ap_ufixed<59, 0, AP_TRN, AP_WRAP, 0>"], [256 x %"struct.ap_ufixed<59, 0, AP_TRN, AP_WRAP, 0>"]* @_ZN19fourth_order_doubleL10sin_cos_K0E, i64 0, i64 53), i8* getelementptr inbounds ([22 x i8], [22 x i8]* @.str.1343.48924, i32 0, i32 0))
  call void @_ZN8ap_fixedILi59ELi1EL9ap_q_mode5EL9ap_o_mode3ELi0EEC2EPKc(%"struct.ap_ufixed<59, 0, AP_TRN, AP_WRAP, 0>"* getelementptr inbounds ([256 x %"struct.ap_ufixed<59, 0, AP_TRN, AP_WRAP, 0>"], [256 x %"struct.ap_ufixed<59, 0, AP_TRN, AP_WRAP, 0>"]* @_ZN19fourth_order_doubleL10sin_cos_K0E, i64 0, i64 54), i8* getelementptr inbounds ([20 x i8], [20 x i8]* @.str.1344.48925, i32 0, i32 0))
  call void @_ZN8ap_fixedILi59ELi1EL9ap_q_mode5EL9ap_o_mode3ELi0EEC2EPKc(%"struct.ap_ufixed<59, 0, AP_TRN, AP_WRAP, 0>"* getelementptr inbounds ([256 x %"struct.ap_ufixed<59, 0, AP_TRN, AP_WRAP, 0>"], [256 x %"struct.ap_ufixed<59, 0, AP_TRN, AP_WRAP, 0>"]* @_ZN19fourth_order_doubleL10sin_cos_K0E, i64 0, i64 55), i8* getelementptr inbounds ([22 x i8], [22 x i8]* @.str.1345.48926, i32 0, i32 0))
  call void @_ZN8ap_fixedILi59ELi1EL9ap_q_mode5EL9ap_o_mode3ELi0EEC2EPKc(%"struct.ap_ufixed<59, 0, AP_TRN, AP_WRAP, 0>"* getelementptr inbounds ([256 x %"struct.ap_ufixed<59, 0, AP_TRN, AP_WRAP, 0>"], [256 x %"struct.ap_ufixed<59, 0, AP_TRN, AP_WRAP, 0>"]* @_ZN19fourth_order_doubleL10sin_cos_K0E, i64 0, i64 56), i8* getelementptr inbounds ([22 x i8], [22 x i8]* @.str.1346.48927, i32 0, i32 0))
  call void @_ZN8ap_fixedILi59ELi1EL9ap_q_mode5EL9ap_o_mode3ELi0EEC2EPKc(%"struct.ap_ufixed<59, 0, AP_TRN, AP_WRAP, 0>"* getelementptr inbounds ([256 x %"struct.ap_ufixed<59, 0, AP_TRN, AP_WRAP, 0>"], [256 x %"struct.ap_ufixed<59, 0, AP_TRN, AP_WRAP, 0>"]* @_ZN19fourth_order_doubleL10sin_cos_K0E, i64 0, i64 57), i8* getelementptr inbounds ([21 x i8], [21 x i8]* @.str.1347.48928, i32 0, i32 0))
  call void @_ZN8ap_fixedILi59ELi1EL9ap_q_mode5EL9ap_o_mode3ELi0EEC2EPKc(%"struct.ap_ufixed<59, 0, AP_TRN, AP_WRAP, 0>"* getelementptr inbounds ([256 x %"struct.ap_ufixed<59, 0, AP_TRN, AP_WRAP, 0>"], [256 x %"struct.ap_ufixed<59, 0, AP_TRN, AP_WRAP, 0>"]* @_ZN19fourth_order_doubleL10sin_cos_K0E, i64 0, i64 58), i8* getelementptr inbounds ([22 x i8], [22 x i8]* @.str.1348.48929, i32 0, i32 0))
  call void @_ZN8ap_fixedILi59ELi1EL9ap_q_mode5EL9ap_o_mode3ELi0EEC2EPKc(%"struct.ap_ufixed<59, 0, AP_TRN, AP_WRAP, 0>"* getelementptr inbounds ([256 x %"struct.ap_ufixed<59, 0, AP_TRN, AP_WRAP, 0>"], [256 x %"struct.ap_ufixed<59, 0, AP_TRN, AP_WRAP, 0>"]* @_ZN19fourth_order_doubleL10sin_cos_K0E, i64 0, i64 59), i8* getelementptr inbounds ([21 x i8], [21 x i8]* @.str.1349.48930, i32 0, i32 0))
  call void @_ZN8ap_fixedILi59ELi1EL9ap_q_mode5EL9ap_o_mode3ELi0EEC2EPKc(%"struct.ap_ufixed<59, 0, AP_TRN, AP_WRAP, 0>"* getelementptr inbounds ([256 x %"struct.ap_ufixed<59, 0, AP_TRN, AP_WRAP, 0>"], [256 x %"struct.ap_ufixed<59, 0, AP_TRN, AP_WRAP, 0>"]* @_ZN19fourth_order_doubleL10sin_cos_K0E, i64 0, i64 60), i8* getelementptr inbounds ([22 x i8], [22 x i8]* @.str.1350.48931, i32 0, i32 0))
  call void @_ZN8ap_fixedILi59ELi1EL9ap_q_mode5EL9ap_o_mode3ELi0EEC2EPKc(%"struct.ap_ufixed<59, 0, AP_TRN, AP_WRAP, 0>"* getelementptr inbounds ([256 x %"struct.ap_ufixed<59, 0, AP_TRN, AP_WRAP, 0>"], [256 x %"struct.ap_ufixed<59, 0, AP_TRN, AP_WRAP, 0>"]* @_ZN19fourth_order_doubleL10sin_cos_K0E, i64 0, i64 61), i8* getelementptr inbounds ([22 x i8], [22 x i8]* @.str.1351.48932, i32 0, i32 0))
  call void @_ZN8ap_fixedILi59ELi1EL9ap_q_mode5EL9ap_o_mode3ELi0EEC2EPKc(%"struct.ap_ufixed<59, 0, AP_TRN, AP_WRAP, 0>"* getelementptr inbounds ([256 x %"struct.ap_ufixed<59, 0, AP_TRN, AP_WRAP, 0>"], [256 x %"struct.ap_ufixed<59, 0, AP_TRN, AP_WRAP, 0>"]* @_ZN19fourth_order_doubleL10sin_cos_K0E, i64 0, i64 62), i8* getelementptr inbounds ([22 x i8], [22 x i8]* @.str.1352.48933, i32 0, i32 0))
  call void @_ZN8ap_fixedILi59ELi1EL9ap_q_mode5EL9ap_o_mode3ELi0EEC2EPKc(%"struct.ap_ufixed<59, 0, AP_TRN, AP_WRAP, 0>"* getelementptr inbounds ([256 x %"struct.ap_ufixed<59, 0, AP_TRN, AP_WRAP, 0>"], [256 x %"struct.ap_ufixed<59, 0, AP_TRN, AP_WRAP, 0>"]* @_ZN19fourth_order_doubleL10sin_cos_K0E, i64 0, i64 63), i8* getelementptr inbounds ([22 x i8], [22 x i8]* @.str.1353.48934, i32 0, i32 0))
  call void @_ZN8ap_fixedILi59ELi1EL9ap_q_mode5EL9ap_o_mode3ELi0EEC2EPKc(%"struct.ap_ufixed<59, 0, AP_TRN, AP_WRAP, 0>"* getelementptr inbounds ([256 x %"struct.ap_ufixed<59, 0, AP_TRN, AP_WRAP, 0>"], [256 x %"struct.ap_ufixed<59, 0, AP_TRN, AP_WRAP, 0>"]* @_ZN19fourth_order_doubleL10sin_cos_K0E, i64 0, i64 64), i8* getelementptr inbounds ([22 x i8], [22 x i8]* @.str.1354.48935, i32 0, i32 0))
